ARM GAS  /tmp/cc0gW0uU.s 			page 1


   1              		.cpu cortex-m4
   2              		.eabi_attribute 27, 1
   3              		.eabi_attribute 28, 1
   4              		.eabi_attribute 20, 1
   5              		.eabi_attribute 21, 1
   6              		.eabi_attribute 23, 3
   7              		.eabi_attribute 24, 1
   8              		.eabi_attribute 25, 1
   9              		.eabi_attribute 26, 1
  10              		.eabi_attribute 30, 1
  11              		.eabi_attribute 34, 1
  12              		.eabi_attribute 18, 4
  13              		.file	"stm32f4xx_ll_fmc.c"
  14              		.text
  15              	.Ltext0:
  16              		.cfi_sections	.debug_frame
  17              		.section	.text.FMC_NORSRAM_Init,"ax",%progbits
  18              		.align	1
  19              		.global	FMC_NORSRAM_Init
  20              		.arch armv7e-m
  21              		.syntax unified
  22              		.thumb
  23              		.thumb_func
  24              		.fpu fpv4-sp-d16
  26              	FMC_NORSRAM_Init:
  27              	.LVL0:
  28              	.LFB126:
  29              		.file 1 "/home/paulo/Alexandria/STM32Cube_FW_F4_V1.23.0/Drivers/STM32F4xx_HAL_Driver/Src/stm32f4xx
   1:/home/paulo/Alexandria/STM32Cube_FW_F4_V1.23.0/Drivers/STM32F4xx_HAL_Driver/Src/stm32f4xx_ll_fmc.c **** /**
   2:/home/paulo/Alexandria/STM32Cube_FW_F4_V1.23.0/Drivers/STM32F4xx_HAL_Driver/Src/stm32f4xx_ll_fmc.c ****   ******************************************************************************
   3:/home/paulo/Alexandria/STM32Cube_FW_F4_V1.23.0/Drivers/STM32F4xx_HAL_Driver/Src/stm32f4xx_ll_fmc.c ****   * @file    stm32f4xx_ll_fmc.c
   4:/home/paulo/Alexandria/STM32Cube_FW_F4_V1.23.0/Drivers/STM32F4xx_HAL_Driver/Src/stm32f4xx_ll_fmc.c ****   * @author  MCD Application Team
   5:/home/paulo/Alexandria/STM32Cube_FW_F4_V1.23.0/Drivers/STM32F4xx_HAL_Driver/Src/stm32f4xx_ll_fmc.c ****   * @brief   FMC Low Layer HAL module driver.
   6:/home/paulo/Alexandria/STM32Cube_FW_F4_V1.23.0/Drivers/STM32F4xx_HAL_Driver/Src/stm32f4xx_ll_fmc.c ****   *    
   7:/home/paulo/Alexandria/STM32Cube_FW_F4_V1.23.0/Drivers/STM32F4xx_HAL_Driver/Src/stm32f4xx_ll_fmc.c ****   *          This file provides firmware functions to manage the following 
   8:/home/paulo/Alexandria/STM32Cube_FW_F4_V1.23.0/Drivers/STM32F4xx_HAL_Driver/Src/stm32f4xx_ll_fmc.c ****   *          functionalities of the Flexible Memory Controller (FMC) peripheral memories:
   9:/home/paulo/Alexandria/STM32Cube_FW_F4_V1.23.0/Drivers/STM32F4xx_HAL_Driver/Src/stm32f4xx_ll_fmc.c ****   *           + Initialization/de-initialization functions
  10:/home/paulo/Alexandria/STM32Cube_FW_F4_V1.23.0/Drivers/STM32F4xx_HAL_Driver/Src/stm32f4xx_ll_fmc.c ****   *           + Peripheral Control functions 
  11:/home/paulo/Alexandria/STM32Cube_FW_F4_V1.23.0/Drivers/STM32F4xx_HAL_Driver/Src/stm32f4xx_ll_fmc.c ****   *           + Peripheral State functions
  12:/home/paulo/Alexandria/STM32Cube_FW_F4_V1.23.0/Drivers/STM32F4xx_HAL_Driver/Src/stm32f4xx_ll_fmc.c ****   *         
  13:/home/paulo/Alexandria/STM32Cube_FW_F4_V1.23.0/Drivers/STM32F4xx_HAL_Driver/Src/stm32f4xx_ll_fmc.c ****   @verbatim
  14:/home/paulo/Alexandria/STM32Cube_FW_F4_V1.23.0/Drivers/STM32F4xx_HAL_Driver/Src/stm32f4xx_ll_fmc.c ****   ==============================================================================
  15:/home/paulo/Alexandria/STM32Cube_FW_F4_V1.23.0/Drivers/STM32F4xx_HAL_Driver/Src/stm32f4xx_ll_fmc.c ****                         ##### FMC peripheral features #####
  16:/home/paulo/Alexandria/STM32Cube_FW_F4_V1.23.0/Drivers/STM32F4xx_HAL_Driver/Src/stm32f4xx_ll_fmc.c ****   ==============================================================================
  17:/home/paulo/Alexandria/STM32Cube_FW_F4_V1.23.0/Drivers/STM32F4xx_HAL_Driver/Src/stm32f4xx_ll_fmc.c ****   [..] The Flexible memory controller (FMC) includes three memory controllers:
  18:/home/paulo/Alexandria/STM32Cube_FW_F4_V1.23.0/Drivers/STM32F4xx_HAL_Driver/Src/stm32f4xx_ll_fmc.c ****        (+) The NOR/PSRAM memory controller
  19:/home/paulo/Alexandria/STM32Cube_FW_F4_V1.23.0/Drivers/STM32F4xx_HAL_Driver/Src/stm32f4xx_ll_fmc.c ****        (+) The NAND/PC Card memory controller
  20:/home/paulo/Alexandria/STM32Cube_FW_F4_V1.23.0/Drivers/STM32F4xx_HAL_Driver/Src/stm32f4xx_ll_fmc.c ****        (+) The Synchronous DRAM (SDRAM) controller 
  21:/home/paulo/Alexandria/STM32Cube_FW_F4_V1.23.0/Drivers/STM32F4xx_HAL_Driver/Src/stm32f4xx_ll_fmc.c ****        
  22:/home/paulo/Alexandria/STM32Cube_FW_F4_V1.23.0/Drivers/STM32F4xx_HAL_Driver/Src/stm32f4xx_ll_fmc.c ****   [..] The FMC functional block makes the interface with synchronous and asynchronous static
  23:/home/paulo/Alexandria/STM32Cube_FW_F4_V1.23.0/Drivers/STM32F4xx_HAL_Driver/Src/stm32f4xx_ll_fmc.c ****        memories, SDRAM memories, and 16-bit PC memory cards. Its main purposes are:
  24:/home/paulo/Alexandria/STM32Cube_FW_F4_V1.23.0/Drivers/STM32F4xx_HAL_Driver/Src/stm32f4xx_ll_fmc.c ****        (+) to translate AHB transactions into the appropriate external device protocol
  25:/home/paulo/Alexandria/STM32Cube_FW_F4_V1.23.0/Drivers/STM32F4xx_HAL_Driver/Src/stm32f4xx_ll_fmc.c ****        (+) to meet the access time requirements of the external memory devices
  26:/home/paulo/Alexandria/STM32Cube_FW_F4_V1.23.0/Drivers/STM32F4xx_HAL_Driver/Src/stm32f4xx_ll_fmc.c ****    
  27:/home/paulo/Alexandria/STM32Cube_FW_F4_V1.23.0/Drivers/STM32F4xx_HAL_Driver/Src/stm32f4xx_ll_fmc.c ****   [..] All external memories share the addresses, data and control signals with the controller.
  28:/home/paulo/Alexandria/STM32Cube_FW_F4_V1.23.0/Drivers/STM32F4xx_HAL_Driver/Src/stm32f4xx_ll_fmc.c ****        Each external device is accessed by means of a unique Chip Select. The FMC performs
  29:/home/paulo/Alexandria/STM32Cube_FW_F4_V1.23.0/Drivers/STM32F4xx_HAL_Driver/Src/stm32f4xx_ll_fmc.c ****        only one access at a time to an external device.
ARM GAS  /tmp/cc0gW0uU.s 			page 2


  30:/home/paulo/Alexandria/STM32Cube_FW_F4_V1.23.0/Drivers/STM32F4xx_HAL_Driver/Src/stm32f4xx_ll_fmc.c ****        The main features of the FMC controller are the following:
  31:/home/paulo/Alexandria/STM32Cube_FW_F4_V1.23.0/Drivers/STM32F4xx_HAL_Driver/Src/stm32f4xx_ll_fmc.c ****         (+) Interface with static-memory mapped devices including:
  32:/home/paulo/Alexandria/STM32Cube_FW_F4_V1.23.0/Drivers/STM32F4xx_HAL_Driver/Src/stm32f4xx_ll_fmc.c ****            (++) Static random access memory (SRAM)
  33:/home/paulo/Alexandria/STM32Cube_FW_F4_V1.23.0/Drivers/STM32F4xx_HAL_Driver/Src/stm32f4xx_ll_fmc.c ****            (++) Read-only memory (ROM)
  34:/home/paulo/Alexandria/STM32Cube_FW_F4_V1.23.0/Drivers/STM32F4xx_HAL_Driver/Src/stm32f4xx_ll_fmc.c ****            (++) NOR Flash memory/OneNAND Flash memory
  35:/home/paulo/Alexandria/STM32Cube_FW_F4_V1.23.0/Drivers/STM32F4xx_HAL_Driver/Src/stm32f4xx_ll_fmc.c ****            (++) PSRAM (4 memory banks)
  36:/home/paulo/Alexandria/STM32Cube_FW_F4_V1.23.0/Drivers/STM32F4xx_HAL_Driver/Src/stm32f4xx_ll_fmc.c ****            (++) 16-bit PC Card compatible devices
  37:/home/paulo/Alexandria/STM32Cube_FW_F4_V1.23.0/Drivers/STM32F4xx_HAL_Driver/Src/stm32f4xx_ll_fmc.c ****            (++) Two banks of NAND Flash memory with ECC hardware to check up to 8 Kbytes of
  38:/home/paulo/Alexandria/STM32Cube_FW_F4_V1.23.0/Drivers/STM32F4xx_HAL_Driver/Src/stm32f4xx_ll_fmc.c ****                 data
  39:/home/paulo/Alexandria/STM32Cube_FW_F4_V1.23.0/Drivers/STM32F4xx_HAL_Driver/Src/stm32f4xx_ll_fmc.c ****         (+) Interface with synchronous DRAM (SDRAM) memories
  40:/home/paulo/Alexandria/STM32Cube_FW_F4_V1.23.0/Drivers/STM32F4xx_HAL_Driver/Src/stm32f4xx_ll_fmc.c ****         (+) Independent Chip Select control for each memory bank
  41:/home/paulo/Alexandria/STM32Cube_FW_F4_V1.23.0/Drivers/STM32F4xx_HAL_Driver/Src/stm32f4xx_ll_fmc.c ****         (+) Independent configuration for each memory bank
  42:/home/paulo/Alexandria/STM32Cube_FW_F4_V1.23.0/Drivers/STM32F4xx_HAL_Driver/Src/stm32f4xx_ll_fmc.c ****                     
  43:/home/paulo/Alexandria/STM32Cube_FW_F4_V1.23.0/Drivers/STM32F4xx_HAL_Driver/Src/stm32f4xx_ll_fmc.c ****   @endverbatim
  44:/home/paulo/Alexandria/STM32Cube_FW_F4_V1.23.0/Drivers/STM32F4xx_HAL_Driver/Src/stm32f4xx_ll_fmc.c ****   ******************************************************************************
  45:/home/paulo/Alexandria/STM32Cube_FW_F4_V1.23.0/Drivers/STM32F4xx_HAL_Driver/Src/stm32f4xx_ll_fmc.c ****   * @attention
  46:/home/paulo/Alexandria/STM32Cube_FW_F4_V1.23.0/Drivers/STM32F4xx_HAL_Driver/Src/stm32f4xx_ll_fmc.c ****   *
  47:/home/paulo/Alexandria/STM32Cube_FW_F4_V1.23.0/Drivers/STM32F4xx_HAL_Driver/Src/stm32f4xx_ll_fmc.c ****   * <h2><center>&copy; COPYRIGHT(c) 2017 STMicroelectronics</center></h2>
  48:/home/paulo/Alexandria/STM32Cube_FW_F4_V1.23.0/Drivers/STM32F4xx_HAL_Driver/Src/stm32f4xx_ll_fmc.c ****   *
  49:/home/paulo/Alexandria/STM32Cube_FW_F4_V1.23.0/Drivers/STM32F4xx_HAL_Driver/Src/stm32f4xx_ll_fmc.c ****   * Redistribution and use in source and binary forms, with or without modification,
  50:/home/paulo/Alexandria/STM32Cube_FW_F4_V1.23.0/Drivers/STM32F4xx_HAL_Driver/Src/stm32f4xx_ll_fmc.c ****   * are permitted provided that the following conditions are met:
  51:/home/paulo/Alexandria/STM32Cube_FW_F4_V1.23.0/Drivers/STM32F4xx_HAL_Driver/Src/stm32f4xx_ll_fmc.c ****   *   1. Redistributions of source code must retain the above copyright notice,
  52:/home/paulo/Alexandria/STM32Cube_FW_F4_V1.23.0/Drivers/STM32F4xx_HAL_Driver/Src/stm32f4xx_ll_fmc.c ****   *      this list of conditions and the following disclaimer.
  53:/home/paulo/Alexandria/STM32Cube_FW_F4_V1.23.0/Drivers/STM32F4xx_HAL_Driver/Src/stm32f4xx_ll_fmc.c ****   *   2. Redistributions in binary form must reproduce the above copyright notice,
  54:/home/paulo/Alexandria/STM32Cube_FW_F4_V1.23.0/Drivers/STM32F4xx_HAL_Driver/Src/stm32f4xx_ll_fmc.c ****   *      this list of conditions and the following disclaimer in the documentation
  55:/home/paulo/Alexandria/STM32Cube_FW_F4_V1.23.0/Drivers/STM32F4xx_HAL_Driver/Src/stm32f4xx_ll_fmc.c ****   *      and/or other materials provided with the distribution.
  56:/home/paulo/Alexandria/STM32Cube_FW_F4_V1.23.0/Drivers/STM32F4xx_HAL_Driver/Src/stm32f4xx_ll_fmc.c ****   *   3. Neither the name of STMicroelectronics nor the names of its contributors
  57:/home/paulo/Alexandria/STM32Cube_FW_F4_V1.23.0/Drivers/STM32F4xx_HAL_Driver/Src/stm32f4xx_ll_fmc.c ****   *      may be used to endorse or promote products derived from this software
  58:/home/paulo/Alexandria/STM32Cube_FW_F4_V1.23.0/Drivers/STM32F4xx_HAL_Driver/Src/stm32f4xx_ll_fmc.c ****   *      without specific prior written permission.
  59:/home/paulo/Alexandria/STM32Cube_FW_F4_V1.23.0/Drivers/STM32F4xx_HAL_Driver/Src/stm32f4xx_ll_fmc.c ****   *
  60:/home/paulo/Alexandria/STM32Cube_FW_F4_V1.23.0/Drivers/STM32F4xx_HAL_Driver/Src/stm32f4xx_ll_fmc.c ****   * THIS SOFTWARE IS PROVIDED BY THE COPYRIGHT HOLDERS AND CONTRIBUTORS "AS IS"
  61:/home/paulo/Alexandria/STM32Cube_FW_F4_V1.23.0/Drivers/STM32F4xx_HAL_Driver/Src/stm32f4xx_ll_fmc.c ****   * AND ANY EXPRESS OR IMPLIED WARRANTIES, INCLUDING, BUT NOT LIMITED TO, THE
  62:/home/paulo/Alexandria/STM32Cube_FW_F4_V1.23.0/Drivers/STM32F4xx_HAL_Driver/Src/stm32f4xx_ll_fmc.c ****   * IMPLIED WARRANTIES OF MERCHANTABILITY AND FITNESS FOR A PARTICULAR PURPOSE ARE
  63:/home/paulo/Alexandria/STM32Cube_FW_F4_V1.23.0/Drivers/STM32F4xx_HAL_Driver/Src/stm32f4xx_ll_fmc.c ****   * DISCLAIMED. IN NO EVENT SHALL THE COPYRIGHT HOLDER OR CONTRIBUTORS BE LIABLE
  64:/home/paulo/Alexandria/STM32Cube_FW_F4_V1.23.0/Drivers/STM32F4xx_HAL_Driver/Src/stm32f4xx_ll_fmc.c ****   * FOR ANY DIRECT, INDIRECT, INCIDENTAL, SPECIAL, EXEMPLARY, OR CONSEQUENTIAL
  65:/home/paulo/Alexandria/STM32Cube_FW_F4_V1.23.0/Drivers/STM32F4xx_HAL_Driver/Src/stm32f4xx_ll_fmc.c ****   * DAMAGES (INCLUDING, BUT NOT LIMITED TO, PROCUREMENT OF SUBSTITUTE GOODS OR
  66:/home/paulo/Alexandria/STM32Cube_FW_F4_V1.23.0/Drivers/STM32F4xx_HAL_Driver/Src/stm32f4xx_ll_fmc.c ****   * SERVICES; LOSS OF USE, DATA, OR PROFITS; OR BUSINESS INTERRUPTION) HOWEVER
  67:/home/paulo/Alexandria/STM32Cube_FW_F4_V1.23.0/Drivers/STM32F4xx_HAL_Driver/Src/stm32f4xx_ll_fmc.c ****   * CAUSED AND ON ANY THEORY OF LIABILITY, WHETHER IN CONTRACT, STRICT LIABILITY,
  68:/home/paulo/Alexandria/STM32Cube_FW_F4_V1.23.0/Drivers/STM32F4xx_HAL_Driver/Src/stm32f4xx_ll_fmc.c ****   * OR TORT (INCLUDING NEGLIGENCE OR OTHERWISE) ARISING IN ANY WAY OUT OF THE USE
  69:/home/paulo/Alexandria/STM32Cube_FW_F4_V1.23.0/Drivers/STM32F4xx_HAL_Driver/Src/stm32f4xx_ll_fmc.c ****   * OF THIS SOFTWARE, EVEN IF ADVISED OF THE POSSIBILITY OF SUCH DAMAGE.
  70:/home/paulo/Alexandria/STM32Cube_FW_F4_V1.23.0/Drivers/STM32F4xx_HAL_Driver/Src/stm32f4xx_ll_fmc.c ****   *
  71:/home/paulo/Alexandria/STM32Cube_FW_F4_V1.23.0/Drivers/STM32F4xx_HAL_Driver/Src/stm32f4xx_ll_fmc.c ****   ******************************************************************************
  72:/home/paulo/Alexandria/STM32Cube_FW_F4_V1.23.0/Drivers/STM32F4xx_HAL_Driver/Src/stm32f4xx_ll_fmc.c ****   */ 
  73:/home/paulo/Alexandria/STM32Cube_FW_F4_V1.23.0/Drivers/STM32F4xx_HAL_Driver/Src/stm32f4xx_ll_fmc.c **** 
  74:/home/paulo/Alexandria/STM32Cube_FW_F4_V1.23.0/Drivers/STM32F4xx_HAL_Driver/Src/stm32f4xx_ll_fmc.c **** /* Includes ------------------------------------------------------------------*/
  75:/home/paulo/Alexandria/STM32Cube_FW_F4_V1.23.0/Drivers/STM32F4xx_HAL_Driver/Src/stm32f4xx_ll_fmc.c **** #include "stm32f4xx_hal.h"
  76:/home/paulo/Alexandria/STM32Cube_FW_F4_V1.23.0/Drivers/STM32F4xx_HAL_Driver/Src/stm32f4xx_ll_fmc.c **** 
  77:/home/paulo/Alexandria/STM32Cube_FW_F4_V1.23.0/Drivers/STM32F4xx_HAL_Driver/Src/stm32f4xx_ll_fmc.c **** /** @addtogroup STM32F4xx_HAL_Driver
  78:/home/paulo/Alexandria/STM32Cube_FW_F4_V1.23.0/Drivers/STM32F4xx_HAL_Driver/Src/stm32f4xx_ll_fmc.c ****   * @{
  79:/home/paulo/Alexandria/STM32Cube_FW_F4_V1.23.0/Drivers/STM32F4xx_HAL_Driver/Src/stm32f4xx_ll_fmc.c ****   */
  80:/home/paulo/Alexandria/STM32Cube_FW_F4_V1.23.0/Drivers/STM32F4xx_HAL_Driver/Src/stm32f4xx_ll_fmc.c **** 
  81:/home/paulo/Alexandria/STM32Cube_FW_F4_V1.23.0/Drivers/STM32F4xx_HAL_Driver/Src/stm32f4xx_ll_fmc.c **** /** @defgroup FMC_LL  FMC Low Layer
  82:/home/paulo/Alexandria/STM32Cube_FW_F4_V1.23.0/Drivers/STM32F4xx_HAL_Driver/Src/stm32f4xx_ll_fmc.c ****   * @brief FMC driver modules
  83:/home/paulo/Alexandria/STM32Cube_FW_F4_V1.23.0/Drivers/STM32F4xx_HAL_Driver/Src/stm32f4xx_ll_fmc.c ****   * @{
  84:/home/paulo/Alexandria/STM32Cube_FW_F4_V1.23.0/Drivers/STM32F4xx_HAL_Driver/Src/stm32f4xx_ll_fmc.c ****   */
  85:/home/paulo/Alexandria/STM32Cube_FW_F4_V1.23.0/Drivers/STM32F4xx_HAL_Driver/Src/stm32f4xx_ll_fmc.c **** 
  86:/home/paulo/Alexandria/STM32Cube_FW_F4_V1.23.0/Drivers/STM32F4xx_HAL_Driver/Src/stm32f4xx_ll_fmc.c **** #if defined (HAL_SRAM_MODULE_ENABLED) || defined(HAL_NOR_MODULE_ENABLED) || defined(HAL_NAND_MODULE
ARM GAS  /tmp/cc0gW0uU.s 			page 3


  87:/home/paulo/Alexandria/STM32Cube_FW_F4_V1.23.0/Drivers/STM32F4xx_HAL_Driver/Src/stm32f4xx_ll_fmc.c **** 
  88:/home/paulo/Alexandria/STM32Cube_FW_F4_V1.23.0/Drivers/STM32F4xx_HAL_Driver/Src/stm32f4xx_ll_fmc.c **** #if defined(STM32F427xx) || defined(STM32F437xx) || defined(STM32F429xx) || defined(STM32F439xx) ||
  89:/home/paulo/Alexandria/STM32Cube_FW_F4_V1.23.0/Drivers/STM32F4xx_HAL_Driver/Src/stm32f4xx_ll_fmc.c **** 
  90:/home/paulo/Alexandria/STM32Cube_FW_F4_V1.23.0/Drivers/STM32F4xx_HAL_Driver/Src/stm32f4xx_ll_fmc.c **** /* Private typedef -----------------------------------------------------------*/
  91:/home/paulo/Alexandria/STM32Cube_FW_F4_V1.23.0/Drivers/STM32F4xx_HAL_Driver/Src/stm32f4xx_ll_fmc.c **** /* Private define ------------------------------------------------------------*/
  92:/home/paulo/Alexandria/STM32Cube_FW_F4_V1.23.0/Drivers/STM32F4xx_HAL_Driver/Src/stm32f4xx_ll_fmc.c **** /* Private macro -------------------------------------------------------------*/
  93:/home/paulo/Alexandria/STM32Cube_FW_F4_V1.23.0/Drivers/STM32F4xx_HAL_Driver/Src/stm32f4xx_ll_fmc.c **** /* Private variables ---------------------------------------------------------*/
  94:/home/paulo/Alexandria/STM32Cube_FW_F4_V1.23.0/Drivers/STM32F4xx_HAL_Driver/Src/stm32f4xx_ll_fmc.c **** /* Private function prototypes -----------------------------------------------*/
  95:/home/paulo/Alexandria/STM32Cube_FW_F4_V1.23.0/Drivers/STM32F4xx_HAL_Driver/Src/stm32f4xx_ll_fmc.c **** /* Private functions ---------------------------------------------------------*/
  96:/home/paulo/Alexandria/STM32Cube_FW_F4_V1.23.0/Drivers/STM32F4xx_HAL_Driver/Src/stm32f4xx_ll_fmc.c **** /** @addtogroup FMC_LL_Private_Functions
  97:/home/paulo/Alexandria/STM32Cube_FW_F4_V1.23.0/Drivers/STM32F4xx_HAL_Driver/Src/stm32f4xx_ll_fmc.c ****   * @{
  98:/home/paulo/Alexandria/STM32Cube_FW_F4_V1.23.0/Drivers/STM32F4xx_HAL_Driver/Src/stm32f4xx_ll_fmc.c ****   */
  99:/home/paulo/Alexandria/STM32Cube_FW_F4_V1.23.0/Drivers/STM32F4xx_HAL_Driver/Src/stm32f4xx_ll_fmc.c **** 
 100:/home/paulo/Alexandria/STM32Cube_FW_F4_V1.23.0/Drivers/STM32F4xx_HAL_Driver/Src/stm32f4xx_ll_fmc.c **** /** @addtogroup FMC_LL_NORSRAM
 101:/home/paulo/Alexandria/STM32Cube_FW_F4_V1.23.0/Drivers/STM32F4xx_HAL_Driver/Src/stm32f4xx_ll_fmc.c ****   * @brief  NORSRAM Controller functions 
 102:/home/paulo/Alexandria/STM32Cube_FW_F4_V1.23.0/Drivers/STM32F4xx_HAL_Driver/Src/stm32f4xx_ll_fmc.c ****   *
 103:/home/paulo/Alexandria/STM32Cube_FW_F4_V1.23.0/Drivers/STM32F4xx_HAL_Driver/Src/stm32f4xx_ll_fmc.c ****   @verbatim 
 104:/home/paulo/Alexandria/STM32Cube_FW_F4_V1.23.0/Drivers/STM32F4xx_HAL_Driver/Src/stm32f4xx_ll_fmc.c ****   ==============================================================================   
 105:/home/paulo/Alexandria/STM32Cube_FW_F4_V1.23.0/Drivers/STM32F4xx_HAL_Driver/Src/stm32f4xx_ll_fmc.c ****                    ##### How to use NORSRAM device driver #####
 106:/home/paulo/Alexandria/STM32Cube_FW_F4_V1.23.0/Drivers/STM32F4xx_HAL_Driver/Src/stm32f4xx_ll_fmc.c ****   ==============================================================================
 107:/home/paulo/Alexandria/STM32Cube_FW_F4_V1.23.0/Drivers/STM32F4xx_HAL_Driver/Src/stm32f4xx_ll_fmc.c ****  
 108:/home/paulo/Alexandria/STM32Cube_FW_F4_V1.23.0/Drivers/STM32F4xx_HAL_Driver/Src/stm32f4xx_ll_fmc.c ****   [..] 
 109:/home/paulo/Alexandria/STM32Cube_FW_F4_V1.23.0/Drivers/STM32F4xx_HAL_Driver/Src/stm32f4xx_ll_fmc.c ****     This driver contains a set of APIs to interface with the FMC NORSRAM banks in order
 110:/home/paulo/Alexandria/STM32Cube_FW_F4_V1.23.0/Drivers/STM32F4xx_HAL_Driver/Src/stm32f4xx_ll_fmc.c ****     to run the NORSRAM external devices.
 111:/home/paulo/Alexandria/STM32Cube_FW_F4_V1.23.0/Drivers/STM32F4xx_HAL_Driver/Src/stm32f4xx_ll_fmc.c ****       
 112:/home/paulo/Alexandria/STM32Cube_FW_F4_V1.23.0/Drivers/STM32F4xx_HAL_Driver/Src/stm32f4xx_ll_fmc.c ****     (+) FMC NORSRAM bank reset using the function FMC_NORSRAM_DeInit() 
 113:/home/paulo/Alexandria/STM32Cube_FW_F4_V1.23.0/Drivers/STM32F4xx_HAL_Driver/Src/stm32f4xx_ll_fmc.c ****     (+) FMC NORSRAM bank control configuration using the function FMC_NORSRAM_Init()
 114:/home/paulo/Alexandria/STM32Cube_FW_F4_V1.23.0/Drivers/STM32F4xx_HAL_Driver/Src/stm32f4xx_ll_fmc.c ****     (+) FMC NORSRAM bank timing configuration using the function FMC_NORSRAM_Timing_Init()
 115:/home/paulo/Alexandria/STM32Cube_FW_F4_V1.23.0/Drivers/STM32F4xx_HAL_Driver/Src/stm32f4xx_ll_fmc.c ****     (+) FMC NORSRAM bank extended timing configuration using the function 
 116:/home/paulo/Alexandria/STM32Cube_FW_F4_V1.23.0/Drivers/STM32F4xx_HAL_Driver/Src/stm32f4xx_ll_fmc.c ****         FMC_NORSRAM_Extended_Timing_Init()
 117:/home/paulo/Alexandria/STM32Cube_FW_F4_V1.23.0/Drivers/STM32F4xx_HAL_Driver/Src/stm32f4xx_ll_fmc.c ****     (+) FMC NORSRAM bank enable/disable write operation using the functions
 118:/home/paulo/Alexandria/STM32Cube_FW_F4_V1.23.0/Drivers/STM32F4xx_HAL_Driver/Src/stm32f4xx_ll_fmc.c ****         FMC_NORSRAM_WriteOperation_Enable()/FMC_NORSRAM_WriteOperation_Disable()
 119:/home/paulo/Alexandria/STM32Cube_FW_F4_V1.23.0/Drivers/STM32F4xx_HAL_Driver/Src/stm32f4xx_ll_fmc.c ****         
 120:/home/paulo/Alexandria/STM32Cube_FW_F4_V1.23.0/Drivers/STM32F4xx_HAL_Driver/Src/stm32f4xx_ll_fmc.c **** 
 121:/home/paulo/Alexandria/STM32Cube_FW_F4_V1.23.0/Drivers/STM32F4xx_HAL_Driver/Src/stm32f4xx_ll_fmc.c **** @endverbatim
 122:/home/paulo/Alexandria/STM32Cube_FW_F4_V1.23.0/Drivers/STM32F4xx_HAL_Driver/Src/stm32f4xx_ll_fmc.c ****   * @{
 123:/home/paulo/Alexandria/STM32Cube_FW_F4_V1.23.0/Drivers/STM32F4xx_HAL_Driver/Src/stm32f4xx_ll_fmc.c ****   */
 124:/home/paulo/Alexandria/STM32Cube_FW_F4_V1.23.0/Drivers/STM32F4xx_HAL_Driver/Src/stm32f4xx_ll_fmc.c ****        
 125:/home/paulo/Alexandria/STM32Cube_FW_F4_V1.23.0/Drivers/STM32F4xx_HAL_Driver/Src/stm32f4xx_ll_fmc.c **** /** @addtogroup FMC_LL_NORSRAM_Private_Functions_Group1
 126:/home/paulo/Alexandria/STM32Cube_FW_F4_V1.23.0/Drivers/STM32F4xx_HAL_Driver/Src/stm32f4xx_ll_fmc.c ****   * @brief    Initialization and Configuration functions 
 127:/home/paulo/Alexandria/STM32Cube_FW_F4_V1.23.0/Drivers/STM32F4xx_HAL_Driver/Src/stm32f4xx_ll_fmc.c ****   *
 128:/home/paulo/Alexandria/STM32Cube_FW_F4_V1.23.0/Drivers/STM32F4xx_HAL_Driver/Src/stm32f4xx_ll_fmc.c ****   @verbatim    
 129:/home/paulo/Alexandria/STM32Cube_FW_F4_V1.23.0/Drivers/STM32F4xx_HAL_Driver/Src/stm32f4xx_ll_fmc.c ****   ==============================================================================
 130:/home/paulo/Alexandria/STM32Cube_FW_F4_V1.23.0/Drivers/STM32F4xx_HAL_Driver/Src/stm32f4xx_ll_fmc.c ****               ##### Initialization and de_initialization functions #####
 131:/home/paulo/Alexandria/STM32Cube_FW_F4_V1.23.0/Drivers/STM32F4xx_HAL_Driver/Src/stm32f4xx_ll_fmc.c ****   ==============================================================================
 132:/home/paulo/Alexandria/STM32Cube_FW_F4_V1.23.0/Drivers/STM32F4xx_HAL_Driver/Src/stm32f4xx_ll_fmc.c ****   [..]  
 133:/home/paulo/Alexandria/STM32Cube_FW_F4_V1.23.0/Drivers/STM32F4xx_HAL_Driver/Src/stm32f4xx_ll_fmc.c ****     This section provides functions allowing to:
 134:/home/paulo/Alexandria/STM32Cube_FW_F4_V1.23.0/Drivers/STM32F4xx_HAL_Driver/Src/stm32f4xx_ll_fmc.c ****     (+) Initialize and configure the FMC NORSRAM interface
 135:/home/paulo/Alexandria/STM32Cube_FW_F4_V1.23.0/Drivers/STM32F4xx_HAL_Driver/Src/stm32f4xx_ll_fmc.c ****     (+) De-initialize the FMC NORSRAM interface 
 136:/home/paulo/Alexandria/STM32Cube_FW_F4_V1.23.0/Drivers/STM32F4xx_HAL_Driver/Src/stm32f4xx_ll_fmc.c ****     (+) Configure the FMC clock and associated GPIOs    
 137:/home/paulo/Alexandria/STM32Cube_FW_F4_V1.23.0/Drivers/STM32F4xx_HAL_Driver/Src/stm32f4xx_ll_fmc.c ****  
 138:/home/paulo/Alexandria/STM32Cube_FW_F4_V1.23.0/Drivers/STM32F4xx_HAL_Driver/Src/stm32f4xx_ll_fmc.c **** @endverbatim
 139:/home/paulo/Alexandria/STM32Cube_FW_F4_V1.23.0/Drivers/STM32F4xx_HAL_Driver/Src/stm32f4xx_ll_fmc.c ****   * @{
 140:/home/paulo/Alexandria/STM32Cube_FW_F4_V1.23.0/Drivers/STM32F4xx_HAL_Driver/Src/stm32f4xx_ll_fmc.c ****   */
 141:/home/paulo/Alexandria/STM32Cube_FW_F4_V1.23.0/Drivers/STM32F4xx_HAL_Driver/Src/stm32f4xx_ll_fmc.c ****   
 142:/home/paulo/Alexandria/STM32Cube_FW_F4_V1.23.0/Drivers/STM32F4xx_HAL_Driver/Src/stm32f4xx_ll_fmc.c **** /**
 143:/home/paulo/Alexandria/STM32Cube_FW_F4_V1.23.0/Drivers/STM32F4xx_HAL_Driver/Src/stm32f4xx_ll_fmc.c ****   * @brief  Initialize the FMC_NORSRAM device according to the specified
ARM GAS  /tmp/cc0gW0uU.s 			page 4


 144:/home/paulo/Alexandria/STM32Cube_FW_F4_V1.23.0/Drivers/STM32F4xx_HAL_Driver/Src/stm32f4xx_ll_fmc.c ****   *         control parameters in the FMC_NORSRAM_InitTypeDef
 145:/home/paulo/Alexandria/STM32Cube_FW_F4_V1.23.0/Drivers/STM32F4xx_HAL_Driver/Src/stm32f4xx_ll_fmc.c ****   * @param  Device Pointer to NORSRAM device instance
 146:/home/paulo/Alexandria/STM32Cube_FW_F4_V1.23.0/Drivers/STM32F4xx_HAL_Driver/Src/stm32f4xx_ll_fmc.c ****   * @param  Init Pointer to NORSRAM Initialization structure   
 147:/home/paulo/Alexandria/STM32Cube_FW_F4_V1.23.0/Drivers/STM32F4xx_HAL_Driver/Src/stm32f4xx_ll_fmc.c ****   * @retval HAL status
 148:/home/paulo/Alexandria/STM32Cube_FW_F4_V1.23.0/Drivers/STM32F4xx_HAL_Driver/Src/stm32f4xx_ll_fmc.c ****   */
 149:/home/paulo/Alexandria/STM32Cube_FW_F4_V1.23.0/Drivers/STM32F4xx_HAL_Driver/Src/stm32f4xx_ll_fmc.c **** HAL_StatusTypeDef  FMC_NORSRAM_Init(FMC_NORSRAM_TypeDef *Device, FMC_NORSRAM_InitTypeDef* Init)
 150:/home/paulo/Alexandria/STM32Cube_FW_F4_V1.23.0/Drivers/STM32F4xx_HAL_Driver/Src/stm32f4xx_ll_fmc.c **** { 
  30              		.loc 1 150 1 view -0
  31              		.cfi_startproc
  32              		@ args = 0, pretend = 0, frame = 0
  33              		@ frame_needed = 0, uses_anonymous_args = 0
  34              		@ link register save eliminated.
  35              		.loc 1 150 1 is_stmt 0 view .LVU1
  36 0000 70B4     		push	{r4, r5, r6}
  37              	.LCFI0:
  38              		.cfi_def_cfa_offset 12
  39              		.cfi_offset 4, -12
  40              		.cfi_offset 5, -8
  41              		.cfi_offset 6, -4
 151:/home/paulo/Alexandria/STM32Cube_FW_F4_V1.23.0/Drivers/STM32F4xx_HAL_Driver/Src/stm32f4xx_ll_fmc.c ****   uint32_t tmpr = 0U;
  42              		.loc 1 151 3 is_stmt 1 view .LVU2
  43              	.LVL1:
 152:/home/paulo/Alexandria/STM32Cube_FW_F4_V1.23.0/Drivers/STM32F4xx_HAL_Driver/Src/stm32f4xx_ll_fmc.c ****     
 153:/home/paulo/Alexandria/STM32Cube_FW_F4_V1.23.0/Drivers/STM32F4xx_HAL_Driver/Src/stm32f4xx_ll_fmc.c ****   /* Check the parameters */
 154:/home/paulo/Alexandria/STM32Cube_FW_F4_V1.23.0/Drivers/STM32F4xx_HAL_Driver/Src/stm32f4xx_ll_fmc.c ****   assert_param(IS_FMC_NORSRAM_DEVICE(Device));
  44              		.loc 1 154 3 view .LVU3
 155:/home/paulo/Alexandria/STM32Cube_FW_F4_V1.23.0/Drivers/STM32F4xx_HAL_Driver/Src/stm32f4xx_ll_fmc.c ****   assert_param(IS_FMC_NORSRAM_BANK(Init->NSBank));
  45              		.loc 1 155 3 view .LVU4
 156:/home/paulo/Alexandria/STM32Cube_FW_F4_V1.23.0/Drivers/STM32F4xx_HAL_Driver/Src/stm32f4xx_ll_fmc.c ****   assert_param(IS_FMC_MUX(Init->DataAddressMux));
  46              		.loc 1 156 3 view .LVU5
 157:/home/paulo/Alexandria/STM32Cube_FW_F4_V1.23.0/Drivers/STM32F4xx_HAL_Driver/Src/stm32f4xx_ll_fmc.c ****   assert_param(IS_FMC_MEMORY(Init->MemoryType));
  47              		.loc 1 157 3 view .LVU6
 158:/home/paulo/Alexandria/STM32Cube_FW_F4_V1.23.0/Drivers/STM32F4xx_HAL_Driver/Src/stm32f4xx_ll_fmc.c ****   assert_param(IS_FMC_NORSRAM_MEMORY_WIDTH(Init->MemoryDataWidth));
  48              		.loc 1 158 3 view .LVU7
 159:/home/paulo/Alexandria/STM32Cube_FW_F4_V1.23.0/Drivers/STM32F4xx_HAL_Driver/Src/stm32f4xx_ll_fmc.c ****   assert_param(IS_FMC_BURSTMODE(Init->BurstAccessMode));
  49              		.loc 1 159 3 view .LVU8
 160:/home/paulo/Alexandria/STM32Cube_FW_F4_V1.23.0/Drivers/STM32F4xx_HAL_Driver/Src/stm32f4xx_ll_fmc.c ****   assert_param(IS_FMC_WAIT_POLARITY(Init->WaitSignalPolarity));
  50              		.loc 1 160 3 view .LVU9
 161:/home/paulo/Alexandria/STM32Cube_FW_F4_V1.23.0/Drivers/STM32F4xx_HAL_Driver/Src/stm32f4xx_ll_fmc.c **** #if defined(STM32F427xx) || defined(STM32F437xx) || defined(STM32F429xx) || defined(STM32F439xx)
 162:/home/paulo/Alexandria/STM32Cube_FW_F4_V1.23.0/Drivers/STM32F4xx_HAL_Driver/Src/stm32f4xx_ll_fmc.c ****   assert_param(IS_FMC_WRAP_MODE(Init->WrapMode));
 163:/home/paulo/Alexandria/STM32Cube_FW_F4_V1.23.0/Drivers/STM32F4xx_HAL_Driver/Src/stm32f4xx_ll_fmc.c **** #endif /* STM32F427xx || STM32F437xx || STM32F429xx || STM32F439xx */
 164:/home/paulo/Alexandria/STM32Cube_FW_F4_V1.23.0/Drivers/STM32F4xx_HAL_Driver/Src/stm32f4xx_ll_fmc.c ****   assert_param(IS_FMC_WAIT_SIGNAL_ACTIVE(Init->WaitSignalActive));
  51              		.loc 1 164 3 view .LVU10
 165:/home/paulo/Alexandria/STM32Cube_FW_F4_V1.23.0/Drivers/STM32F4xx_HAL_Driver/Src/stm32f4xx_ll_fmc.c ****   assert_param(IS_FMC_WRITE_OPERATION(Init->WriteOperation));
  52              		.loc 1 165 3 view .LVU11
 166:/home/paulo/Alexandria/STM32Cube_FW_F4_V1.23.0/Drivers/STM32F4xx_HAL_Driver/Src/stm32f4xx_ll_fmc.c ****   assert_param(IS_FMC_WAITE_SIGNAL(Init->WaitSignal));
  53              		.loc 1 166 3 view .LVU12
 167:/home/paulo/Alexandria/STM32Cube_FW_F4_V1.23.0/Drivers/STM32F4xx_HAL_Driver/Src/stm32f4xx_ll_fmc.c ****   assert_param(IS_FMC_EXTENDED_MODE(Init->ExtendedMode));
  54              		.loc 1 167 3 view .LVU13
 168:/home/paulo/Alexandria/STM32Cube_FW_F4_V1.23.0/Drivers/STM32F4xx_HAL_Driver/Src/stm32f4xx_ll_fmc.c ****   assert_param(IS_FMC_ASYNWAIT(Init->AsynchronousWait));
  55              		.loc 1 168 3 view .LVU14
 169:/home/paulo/Alexandria/STM32Cube_FW_F4_V1.23.0/Drivers/STM32F4xx_HAL_Driver/Src/stm32f4xx_ll_fmc.c ****   assert_param(IS_FMC_WRITE_BURST(Init->WriteBurst));
  56              		.loc 1 169 3 view .LVU15
 170:/home/paulo/Alexandria/STM32Cube_FW_F4_V1.23.0/Drivers/STM32F4xx_HAL_Driver/Src/stm32f4xx_ll_fmc.c ****   assert_param(IS_FMC_CONTINOUS_CLOCK(Init->ContinuousClock));
  57              		.loc 1 170 3 view .LVU16
 171:/home/paulo/Alexandria/STM32Cube_FW_F4_V1.23.0/Drivers/STM32F4xx_HAL_Driver/Src/stm32f4xx_ll_fmc.c ****   assert_param(IS_FMC_PAGESIZE(Init->PageSize));
  58              		.loc 1 171 3 view .LVU17
ARM GAS  /tmp/cc0gW0uU.s 			page 5


 172:/home/paulo/Alexandria/STM32Cube_FW_F4_V1.23.0/Drivers/STM32F4xx_HAL_Driver/Src/stm32f4xx_ll_fmc.c **** #if defined (STM32F446xx) || defined(STM32F469xx) || defined(STM32F479xx)
 173:/home/paulo/Alexandria/STM32Cube_FW_F4_V1.23.0/Drivers/STM32F4xx_HAL_Driver/Src/stm32f4xx_ll_fmc.c ****   assert_param(IS_FMC_WRITE_FIFO(Init->WriteFifo));
  59              		.loc 1 173 3 view .LVU18
 174:/home/paulo/Alexandria/STM32Cube_FW_F4_V1.23.0/Drivers/STM32F4xx_HAL_Driver/Src/stm32f4xx_ll_fmc.c **** #endif /* STM32F446xx || STM32F469xx || STM32F479xx */
 175:/home/paulo/Alexandria/STM32Cube_FW_F4_V1.23.0/Drivers/STM32F4xx_HAL_Driver/Src/stm32f4xx_ll_fmc.c **** 
 176:/home/paulo/Alexandria/STM32Cube_FW_F4_V1.23.0/Drivers/STM32F4xx_HAL_Driver/Src/stm32f4xx_ll_fmc.c ****   /* Get the BTCR register value */
 177:/home/paulo/Alexandria/STM32Cube_FW_F4_V1.23.0/Drivers/STM32F4xx_HAL_Driver/Src/stm32f4xx_ll_fmc.c ****   tmpr = Device->BTCR[Init->NSBank];
  60              		.loc 1 177 3 view .LVU19
  61              		.loc 1 177 27 is_stmt 0 view .LVU20
  62 0002 0C68     		ldr	r4, [r1]
  63              		.loc 1 177 8 view .LVU21
  64 0004 50F82430 		ldr	r3, [r0, r4, lsl #2]
  65              	.LVL2:
 178:/home/paulo/Alexandria/STM32Cube_FW_F4_V1.23.0/Drivers/STM32F4xx_HAL_Driver/Src/stm32f4xx_ll_fmc.c **** 
 179:/home/paulo/Alexandria/STM32Cube_FW_F4_V1.23.0/Drivers/STM32F4xx_HAL_Driver/Src/stm32f4xx_ll_fmc.c **** #if defined(STM32F427xx) || defined(STM32F437xx) || defined(STM32F429xx) || defined(STM32F439xx)
 180:/home/paulo/Alexandria/STM32Cube_FW_F4_V1.23.0/Drivers/STM32F4xx_HAL_Driver/Src/stm32f4xx_ll_fmc.c ****   /* Clear MBKEN, MUXEN, MTYP, MWID, FACCEN, BURSTEN, WAITPOL, WRAPMOD, WAITCFG, WREN,
 181:/home/paulo/Alexandria/STM32Cube_FW_F4_V1.23.0/Drivers/STM32F4xx_HAL_Driver/Src/stm32f4xx_ll_fmc.c ****            WAITEN, EXTMOD, ASYNCWAIT, CPSIZE, CBURSTRW and CCLKEN bits */
 182:/home/paulo/Alexandria/STM32Cube_FW_F4_V1.23.0/Drivers/STM32F4xx_HAL_Driver/Src/stm32f4xx_ll_fmc.c ****   tmpr &= ((uint32_t)~(FMC_BCR1_MBKEN     | FMC_BCR1_MUXEN    | FMC_BCR1_MTYP     | \
 183:/home/paulo/Alexandria/STM32Cube_FW_F4_V1.23.0/Drivers/STM32F4xx_HAL_Driver/Src/stm32f4xx_ll_fmc.c ****                        FMC_BCR1_MWID      | FMC_BCR1_FACCEN   | FMC_BCR1_BURSTEN  | \
 184:/home/paulo/Alexandria/STM32Cube_FW_F4_V1.23.0/Drivers/STM32F4xx_HAL_Driver/Src/stm32f4xx_ll_fmc.c ****                        FMC_BCR1_WAITPOL   | FMC_BCR1_WRAPMOD  | FMC_BCR1_WAITCFG  | \
 185:/home/paulo/Alexandria/STM32Cube_FW_F4_V1.23.0/Drivers/STM32F4xx_HAL_Driver/Src/stm32f4xx_ll_fmc.c ****                        FMC_BCR1_WREN      | FMC_BCR1_WAITEN   | FMC_BCR1_EXTMOD   | \
 186:/home/paulo/Alexandria/STM32Cube_FW_F4_V1.23.0/Drivers/STM32F4xx_HAL_Driver/Src/stm32f4xx_ll_fmc.c ****                        FMC_BCR1_ASYNCWAIT | FMC_BCR1_CPSIZE   | FMC_BCR1_CBURSTRW | \
 187:/home/paulo/Alexandria/STM32Cube_FW_F4_V1.23.0/Drivers/STM32F4xx_HAL_Driver/Src/stm32f4xx_ll_fmc.c ****                        FMC_BCR1_CCLKEN));
 188:/home/paulo/Alexandria/STM32Cube_FW_F4_V1.23.0/Drivers/STM32F4xx_HAL_Driver/Src/stm32f4xx_ll_fmc.c ****   
 189:/home/paulo/Alexandria/STM32Cube_FW_F4_V1.23.0/Drivers/STM32F4xx_HAL_Driver/Src/stm32f4xx_ll_fmc.c ****   /* Set NORSRAM device control parameters */
 190:/home/paulo/Alexandria/STM32Cube_FW_F4_V1.23.0/Drivers/STM32F4xx_HAL_Driver/Src/stm32f4xx_ll_fmc.c ****   tmpr |= (uint32_t)(Init->DataAddressMux       |\
 191:/home/paulo/Alexandria/STM32Cube_FW_F4_V1.23.0/Drivers/STM32F4xx_HAL_Driver/Src/stm32f4xx_ll_fmc.c ****                     Init->MemoryType           |\
 192:/home/paulo/Alexandria/STM32Cube_FW_F4_V1.23.0/Drivers/STM32F4xx_HAL_Driver/Src/stm32f4xx_ll_fmc.c ****                     Init->MemoryDataWidth      |\
 193:/home/paulo/Alexandria/STM32Cube_FW_F4_V1.23.0/Drivers/STM32F4xx_HAL_Driver/Src/stm32f4xx_ll_fmc.c ****                     Init->BurstAccessMode      |\
 194:/home/paulo/Alexandria/STM32Cube_FW_F4_V1.23.0/Drivers/STM32F4xx_HAL_Driver/Src/stm32f4xx_ll_fmc.c ****                     Init->WaitSignalPolarity   |\
 195:/home/paulo/Alexandria/STM32Cube_FW_F4_V1.23.0/Drivers/STM32F4xx_HAL_Driver/Src/stm32f4xx_ll_fmc.c ****                     Init->WrapMode             |\
 196:/home/paulo/Alexandria/STM32Cube_FW_F4_V1.23.0/Drivers/STM32F4xx_HAL_Driver/Src/stm32f4xx_ll_fmc.c ****                     Init->WaitSignalActive     |\
 197:/home/paulo/Alexandria/STM32Cube_FW_F4_V1.23.0/Drivers/STM32F4xx_HAL_Driver/Src/stm32f4xx_ll_fmc.c ****                     Init->WriteOperation       |\
 198:/home/paulo/Alexandria/STM32Cube_FW_F4_V1.23.0/Drivers/STM32F4xx_HAL_Driver/Src/stm32f4xx_ll_fmc.c ****                     Init->WaitSignal           |\
 199:/home/paulo/Alexandria/STM32Cube_FW_F4_V1.23.0/Drivers/STM32F4xx_HAL_Driver/Src/stm32f4xx_ll_fmc.c ****                     Init->ExtendedMode         |\
 200:/home/paulo/Alexandria/STM32Cube_FW_F4_V1.23.0/Drivers/STM32F4xx_HAL_Driver/Src/stm32f4xx_ll_fmc.c ****                     Init->AsynchronousWait     |\
 201:/home/paulo/Alexandria/STM32Cube_FW_F4_V1.23.0/Drivers/STM32F4xx_HAL_Driver/Src/stm32f4xx_ll_fmc.c ****                     Init->PageSize             |\
 202:/home/paulo/Alexandria/STM32Cube_FW_F4_V1.23.0/Drivers/STM32F4xx_HAL_Driver/Src/stm32f4xx_ll_fmc.c ****                     Init->WriteBurst           |\
 203:/home/paulo/Alexandria/STM32Cube_FW_F4_V1.23.0/Drivers/STM32F4xx_HAL_Driver/Src/stm32f4xx_ll_fmc.c ****                     Init->ContinuousClock);
 204:/home/paulo/Alexandria/STM32Cube_FW_F4_V1.23.0/Drivers/STM32F4xx_HAL_Driver/Src/stm32f4xx_ll_fmc.c **** #else /* defined(STM32F446xx) || defined(STM32F469xx) || defined(STM32F479xx) */
 205:/home/paulo/Alexandria/STM32Cube_FW_F4_V1.23.0/Drivers/STM32F4xx_HAL_Driver/Src/stm32f4xx_ll_fmc.c ****   /* Clear MBKEN, MUXEN, MTYP, MWID, FACCEN, BURSTEN, WAITPOL, CPSIZE, WAITCFG, WREN,
 206:/home/paulo/Alexandria/STM32Cube_FW_F4_V1.23.0/Drivers/STM32F4xx_HAL_Driver/Src/stm32f4xx_ll_fmc.c ****            WAITEN, EXTMOD, ASYNCWAIT, CBURSTRW, CCLKEN and WFDIS bits */
 207:/home/paulo/Alexandria/STM32Cube_FW_F4_V1.23.0/Drivers/STM32F4xx_HAL_Driver/Src/stm32f4xx_ll_fmc.c ****   tmpr &= ((uint32_t)~(FMC_BCR1_MBKEN     | FMC_BCR1_MUXEN    | FMC_BCR1_MTYP     | \
  66              		.loc 1 207 3 is_stmt 1 view .LVU22
  67              		.loc 1 207 8 is_stmt 0 view .LVU23
  68 0008 1C4E     		ldr	r6, .L8
  69 000a 1E40     		ands	r6, r6, r3
  70              	.LVL3:
 208:/home/paulo/Alexandria/STM32Cube_FW_F4_V1.23.0/Drivers/STM32F4xx_HAL_Driver/Src/stm32f4xx_ll_fmc.c ****                        FMC_BCR1_MWID      | FMC_BCR1_FACCEN   | FMC_BCR1_BURSTEN  | \
 209:/home/paulo/Alexandria/STM32Cube_FW_F4_V1.23.0/Drivers/STM32F4xx_HAL_Driver/Src/stm32f4xx_ll_fmc.c ****                        FMC_BCR1_WAITPOL   | FMC_BCR1_WAITCFG  | FMC_BCR1_CPSIZE   | \
 210:/home/paulo/Alexandria/STM32Cube_FW_F4_V1.23.0/Drivers/STM32F4xx_HAL_Driver/Src/stm32f4xx_ll_fmc.c ****                        FMC_BCR1_WREN      | FMC_BCR1_WAITEN   | FMC_BCR1_EXTMOD   | \
 211:/home/paulo/Alexandria/STM32Cube_FW_F4_V1.23.0/Drivers/STM32F4xx_HAL_Driver/Src/stm32f4xx_ll_fmc.c ****                        FMC_BCR1_ASYNCWAIT | FMC_BCR1_CBURSTRW | FMC_BCR1_CCLKEN   | \
 212:/home/paulo/Alexandria/STM32Cube_FW_F4_V1.23.0/Drivers/STM32F4xx_HAL_Driver/Src/stm32f4xx_ll_fmc.c ****                        FMC_BCR1_WFDIS));
 213:/home/paulo/Alexandria/STM32Cube_FW_F4_V1.23.0/Drivers/STM32F4xx_HAL_Driver/Src/stm32f4xx_ll_fmc.c ****   
 214:/home/paulo/Alexandria/STM32Cube_FW_F4_V1.23.0/Drivers/STM32F4xx_HAL_Driver/Src/stm32f4xx_ll_fmc.c ****   /* Set NORSRAM device control parameters */
 215:/home/paulo/Alexandria/STM32Cube_FW_F4_V1.23.0/Drivers/STM32F4xx_HAL_Driver/Src/stm32f4xx_ll_fmc.c ****   tmpr |= (uint32_t)(Init->DataAddressMux       |\
  71              		.loc 1 215 3 is_stmt 1 view .LVU24
ARM GAS  /tmp/cc0gW0uU.s 			page 6


  72              		.loc 1 215 26 is_stmt 0 view .LVU25
  73 000c 4A68     		ldr	r2, [r1, #4]
 216:/home/paulo/Alexandria/STM32Cube_FW_F4_V1.23.0/Drivers/STM32F4xx_HAL_Driver/Src/stm32f4xx_ll_fmc.c ****                     Init->MemoryType           |\
  74              		.loc 1 216 25 view .LVU26
  75 000e 8D68     		ldr	r5, [r1, #8]
 215:/home/paulo/Alexandria/STM32Cube_FW_F4_V1.23.0/Drivers/STM32F4xx_HAL_Driver/Src/stm32f4xx_ll_fmc.c ****                     Init->MemoryType           |\
  76              		.loc 1 215 49 view .LVU27
  77 0010 42EA0503 		orr	r3, r2, r5
 217:/home/paulo/Alexandria/STM32Cube_FW_F4_V1.23.0/Drivers/STM32F4xx_HAL_Driver/Src/stm32f4xx_ll_fmc.c ****                     Init->MemoryDataWidth      |\
  78              		.loc 1 217 25 view .LVU28
  79 0014 CA68     		ldr	r2, [r1, #12]
 216:/home/paulo/Alexandria/STM32Cube_FW_F4_V1.23.0/Drivers/STM32F4xx_HAL_Driver/Src/stm32f4xx_ll_fmc.c ****                     Init->MemoryType           |\
  80              		.loc 1 216 48 view .LVU29
  81 0016 1343     		orrs	r3, r3, r2
 218:/home/paulo/Alexandria/STM32Cube_FW_F4_V1.23.0/Drivers/STM32F4xx_HAL_Driver/Src/stm32f4xx_ll_fmc.c ****                     Init->BurstAccessMode      |\
  82              		.loc 1 218 25 view .LVU30
  83 0018 0A69     		ldr	r2, [r1, #16]
 217:/home/paulo/Alexandria/STM32Cube_FW_F4_V1.23.0/Drivers/STM32F4xx_HAL_Driver/Src/stm32f4xx_ll_fmc.c ****                     Init->MemoryDataWidth      |\
  84              		.loc 1 217 48 view .LVU31
  85 001a 1343     		orrs	r3, r3, r2
 219:/home/paulo/Alexandria/STM32Cube_FW_F4_V1.23.0/Drivers/STM32F4xx_HAL_Driver/Src/stm32f4xx_ll_fmc.c ****                     Init->WaitSignalPolarity   |\
  86              		.loc 1 219 25 view .LVU32
  87 001c 4A69     		ldr	r2, [r1, #20]
 218:/home/paulo/Alexandria/STM32Cube_FW_F4_V1.23.0/Drivers/STM32F4xx_HAL_Driver/Src/stm32f4xx_ll_fmc.c ****                     Init->BurstAccessMode      |\
  88              		.loc 1 218 48 view .LVU33
  89 001e 1343     		orrs	r3, r3, r2
 220:/home/paulo/Alexandria/STM32Cube_FW_F4_V1.23.0/Drivers/STM32F4xx_HAL_Driver/Src/stm32f4xx_ll_fmc.c ****                     Init->WaitSignalActive     |\
  90              		.loc 1 220 25 view .LVU34
  91 0020 CA69     		ldr	r2, [r1, #28]
 219:/home/paulo/Alexandria/STM32Cube_FW_F4_V1.23.0/Drivers/STM32F4xx_HAL_Driver/Src/stm32f4xx_ll_fmc.c ****                     Init->WaitSignalPolarity   |\
  92              		.loc 1 219 48 view .LVU35
  93 0022 1343     		orrs	r3, r3, r2
 221:/home/paulo/Alexandria/STM32Cube_FW_F4_V1.23.0/Drivers/STM32F4xx_HAL_Driver/Src/stm32f4xx_ll_fmc.c ****                     Init->WriteOperation       |\
  94              		.loc 1 221 25 view .LVU36
  95 0024 0A6A     		ldr	r2, [r1, #32]
 220:/home/paulo/Alexandria/STM32Cube_FW_F4_V1.23.0/Drivers/STM32F4xx_HAL_Driver/Src/stm32f4xx_ll_fmc.c ****                     Init->WaitSignalActive     |\
  96              		.loc 1 220 48 view .LVU37
  97 0026 1343     		orrs	r3, r3, r2
 222:/home/paulo/Alexandria/STM32Cube_FW_F4_V1.23.0/Drivers/STM32F4xx_HAL_Driver/Src/stm32f4xx_ll_fmc.c ****                     Init->WaitSignal           |\
  98              		.loc 1 222 25 view .LVU38
  99 0028 4A6A     		ldr	r2, [r1, #36]
 221:/home/paulo/Alexandria/STM32Cube_FW_F4_V1.23.0/Drivers/STM32F4xx_HAL_Driver/Src/stm32f4xx_ll_fmc.c ****                     Init->WriteOperation       |\
 100              		.loc 1 221 48 view .LVU39
 101 002a 1343     		orrs	r3, r3, r2
 223:/home/paulo/Alexandria/STM32Cube_FW_F4_V1.23.0/Drivers/STM32F4xx_HAL_Driver/Src/stm32f4xx_ll_fmc.c ****                     Init->ExtendedMode         |\
 102              		.loc 1 223 25 view .LVU40
 103 002c 8A6A     		ldr	r2, [r1, #40]
 222:/home/paulo/Alexandria/STM32Cube_FW_F4_V1.23.0/Drivers/STM32F4xx_HAL_Driver/Src/stm32f4xx_ll_fmc.c ****                     Init->WaitSignal           |\
 104              		.loc 1 222 48 view .LVU41
 105 002e 1343     		orrs	r3, r3, r2
 224:/home/paulo/Alexandria/STM32Cube_FW_F4_V1.23.0/Drivers/STM32F4xx_HAL_Driver/Src/stm32f4xx_ll_fmc.c ****                     Init->AsynchronousWait     |\
 106              		.loc 1 224 25 view .LVU42
 107 0030 CA6A     		ldr	r2, [r1, #44]
 223:/home/paulo/Alexandria/STM32Cube_FW_F4_V1.23.0/Drivers/STM32F4xx_HAL_Driver/Src/stm32f4xx_ll_fmc.c ****                     Init->ExtendedMode         |\
 108              		.loc 1 223 48 view .LVU43
 109 0032 1343     		orrs	r3, r3, r2
 225:/home/paulo/Alexandria/STM32Cube_FW_F4_V1.23.0/Drivers/STM32F4xx_HAL_Driver/Src/stm32f4xx_ll_fmc.c ****                     Init->WriteBurst           |\
ARM GAS  /tmp/cc0gW0uU.s 			page 7


 110              		.loc 1 225 25 view .LVU44
 111 0034 0A6B     		ldr	r2, [r1, #48]
 224:/home/paulo/Alexandria/STM32Cube_FW_F4_V1.23.0/Drivers/STM32F4xx_HAL_Driver/Src/stm32f4xx_ll_fmc.c ****                     Init->AsynchronousWait     |\
 112              		.loc 1 224 48 view .LVU45
 113 0036 1343     		orrs	r3, r3, r2
 226:/home/paulo/Alexandria/STM32Cube_FW_F4_V1.23.0/Drivers/STM32F4xx_HAL_Driver/Src/stm32f4xx_ll_fmc.c ****                     Init->ContinuousClock      |\
 114              		.loc 1 226 25 view .LVU46
 115 0038 4A6B     		ldr	r2, [r1, #52]
 225:/home/paulo/Alexandria/STM32Cube_FW_F4_V1.23.0/Drivers/STM32F4xx_HAL_Driver/Src/stm32f4xx_ll_fmc.c ****                     Init->WriteBurst           |\
 116              		.loc 1 225 48 view .LVU47
 117 003a 1343     		orrs	r3, r3, r2
 227:/home/paulo/Alexandria/STM32Cube_FW_F4_V1.23.0/Drivers/STM32F4xx_HAL_Driver/Src/stm32f4xx_ll_fmc.c ****                     Init->PageSize             |\
 118              		.loc 1 227 25 view .LVU48
 119 003c CA6B     		ldr	r2, [r1, #60]
 226:/home/paulo/Alexandria/STM32Cube_FW_F4_V1.23.0/Drivers/STM32F4xx_HAL_Driver/Src/stm32f4xx_ll_fmc.c ****                     Init->ContinuousClock      |\
 120              		.loc 1 226 48 view .LVU49
 121 003e 1343     		orrs	r3, r3, r2
 228:/home/paulo/Alexandria/STM32Cube_FW_F4_V1.23.0/Drivers/STM32F4xx_HAL_Driver/Src/stm32f4xx_ll_fmc.c ****                     Init->WriteFifo);
 122              		.loc 1 228 25 view .LVU50
 123 0040 8A6B     		ldr	r2, [r1, #56]
 227:/home/paulo/Alexandria/STM32Cube_FW_F4_V1.23.0/Drivers/STM32F4xx_HAL_Driver/Src/stm32f4xx_ll_fmc.c ****                     Init->PageSize             |\
 124              		.loc 1 227 48 view .LVU51
 125 0042 1343     		orrs	r3, r3, r2
 215:/home/paulo/Alexandria/STM32Cube_FW_F4_V1.23.0/Drivers/STM32F4xx_HAL_Driver/Src/stm32f4xx_ll_fmc.c ****                     Init->MemoryType           |\
 126              		.loc 1 215 8 view .LVU52
 127 0044 3343     		orrs	r3, r3, r6
 128              	.LVL4:
 229:/home/paulo/Alexandria/STM32Cube_FW_F4_V1.23.0/Drivers/STM32F4xx_HAL_Driver/Src/stm32f4xx_ll_fmc.c **** #endif /*  defined(STM32F427xx) || defined(STM32F437xx) || defined(STM32F429xx) || defined(STM32F43
 230:/home/paulo/Alexandria/STM32Cube_FW_F4_V1.23.0/Drivers/STM32F4xx_HAL_Driver/Src/stm32f4xx_ll_fmc.c ****                     
 231:/home/paulo/Alexandria/STM32Cube_FW_F4_V1.23.0/Drivers/STM32F4xx_HAL_Driver/Src/stm32f4xx_ll_fmc.c ****   if(Init->MemoryType == FMC_MEMORY_TYPE_NOR)
 129              		.loc 1 231 3 is_stmt 1 view .LVU53
 130              		.loc 1 231 5 is_stmt 0 view .LVU54
 131 0046 082D     		cmp	r5, #8
 132 0048 0ED0     		beq	.L6
 133              	.L2:
 232:/home/paulo/Alexandria/STM32Cube_FW_F4_V1.23.0/Drivers/STM32F4xx_HAL_Driver/Src/stm32f4xx_ll_fmc.c ****   {
 233:/home/paulo/Alexandria/STM32Cube_FW_F4_V1.23.0/Drivers/STM32F4xx_HAL_Driver/Src/stm32f4xx_ll_fmc.c ****     tmpr |= (uint32_t)FMC_NORSRAM_FLASH_ACCESS_ENABLE;
 234:/home/paulo/Alexandria/STM32Cube_FW_F4_V1.23.0/Drivers/STM32F4xx_HAL_Driver/Src/stm32f4xx_ll_fmc.c ****   }
 235:/home/paulo/Alexandria/STM32Cube_FW_F4_V1.23.0/Drivers/STM32F4xx_HAL_Driver/Src/stm32f4xx_ll_fmc.c ****   
 236:/home/paulo/Alexandria/STM32Cube_FW_F4_V1.23.0/Drivers/STM32F4xx_HAL_Driver/Src/stm32f4xx_ll_fmc.c ****   Device->BTCR[Init->NSBank] = tmpr;
 134              		.loc 1 236 3 is_stmt 1 view .LVU55
 135              		.loc 1 236 30 is_stmt 0 view .LVU56
 136 004a 40F82430 		str	r3, [r0, r4, lsl #2]
 237:/home/paulo/Alexandria/STM32Cube_FW_F4_V1.23.0/Drivers/STM32F4xx_HAL_Driver/Src/stm32f4xx_ll_fmc.c **** 
 238:/home/paulo/Alexandria/STM32Cube_FW_F4_V1.23.0/Drivers/STM32F4xx_HAL_Driver/Src/stm32f4xx_ll_fmc.c ****   /* Configure synchronous mode when Continuous clock is enabled for bank2..4 */
 239:/home/paulo/Alexandria/STM32Cube_FW_F4_V1.23.0/Drivers/STM32F4xx_HAL_Driver/Src/stm32f4xx_ll_fmc.c ****   if((Init->ContinuousClock == FMC_CONTINUOUS_CLOCK_SYNC_ASYNC) && (Init->NSBank != FMC_NORSRAM_BAN
 137              		.loc 1 239 3 is_stmt 1 view .LVU57
 138              		.loc 1 239 11 is_stmt 0 view .LVU58
 139 004e 4B6B     		ldr	r3, [r1, #52]
 140              	.LVL5:
 141              		.loc 1 239 5 view .LVU59
 142 0050 B3F5801F 		cmp	r3, #1048576
 143 0054 0BD0     		beq	.L7
 144              	.LVL6:
 145              	.L3:
 240:/home/paulo/Alexandria/STM32Cube_FW_F4_V1.23.0/Drivers/STM32F4xx_HAL_Driver/Src/stm32f4xx_ll_fmc.c ****   { 
 241:/home/paulo/Alexandria/STM32Cube_FW_F4_V1.23.0/Drivers/STM32F4xx_HAL_Driver/Src/stm32f4xx_ll_fmc.c ****     Device->BTCR[FMC_NORSRAM_BANK1] |= (uint32_t)(Init->ContinuousClock);
ARM GAS  /tmp/cc0gW0uU.s 			page 8


 242:/home/paulo/Alexandria/STM32Cube_FW_F4_V1.23.0/Drivers/STM32F4xx_HAL_Driver/Src/stm32f4xx_ll_fmc.c ****   }
 243:/home/paulo/Alexandria/STM32Cube_FW_F4_V1.23.0/Drivers/STM32F4xx_HAL_Driver/Src/stm32f4xx_ll_fmc.c **** 
 244:/home/paulo/Alexandria/STM32Cube_FW_F4_V1.23.0/Drivers/STM32F4xx_HAL_Driver/Src/stm32f4xx_ll_fmc.c **** #if defined(STM32F446xx) || defined(STM32F469xx) || defined(STM32F479xx)
 245:/home/paulo/Alexandria/STM32Cube_FW_F4_V1.23.0/Drivers/STM32F4xx_HAL_Driver/Src/stm32f4xx_ll_fmc.c ****   if(Init->NSBank != FMC_NORSRAM_BANK1)
 146              		.loc 1 245 3 is_stmt 1 view .LVU60
 147              		.loc 1 245 10 is_stmt 0 view .LVU61
 148 0056 0B68     		ldr	r3, [r1]
 149              		.loc 1 245 5 view .LVU62
 150 0058 1BB1     		cbz	r3, .L4
 246:/home/paulo/Alexandria/STM32Cube_FW_F4_V1.23.0/Drivers/STM32F4xx_HAL_Driver/Src/stm32f4xx_ll_fmc.c ****   {
 247:/home/paulo/Alexandria/STM32Cube_FW_F4_V1.23.0/Drivers/STM32F4xx_HAL_Driver/Src/stm32f4xx_ll_fmc.c ****     Device->BTCR[FMC_NORSRAM_BANK1] |= (uint32_t)(Init->WriteFifo);              
 151              		.loc 1 247 5 is_stmt 1 view .LVU63
 152              		.loc 1 247 37 is_stmt 0 view .LVU64
 153 005a 0368     		ldr	r3, [r0]
 154              		.loc 1 247 55 view .LVU65
 155 005c 8A6B     		ldr	r2, [r1, #56]
 156              		.loc 1 247 37 view .LVU66
 157 005e 1343     		orrs	r3, r3, r2
 158 0060 0360     		str	r3, [r0]
 159              	.L4:
 248:/home/paulo/Alexandria/STM32Cube_FW_F4_V1.23.0/Drivers/STM32F4xx_HAL_Driver/Src/stm32f4xx_ll_fmc.c ****   }
 249:/home/paulo/Alexandria/STM32Cube_FW_F4_V1.23.0/Drivers/STM32F4xx_HAL_Driver/Src/stm32f4xx_ll_fmc.c **** #endif /* STM32F446xx || STM32F469xx || STM32F479xx */
 250:/home/paulo/Alexandria/STM32Cube_FW_F4_V1.23.0/Drivers/STM32F4xx_HAL_Driver/Src/stm32f4xx_ll_fmc.c ****   
 251:/home/paulo/Alexandria/STM32Cube_FW_F4_V1.23.0/Drivers/STM32F4xx_HAL_Driver/Src/stm32f4xx_ll_fmc.c ****   return HAL_OK;
 160              		.loc 1 251 3 is_stmt 1 view .LVU67
 252:/home/paulo/Alexandria/STM32Cube_FW_F4_V1.23.0/Drivers/STM32F4xx_HAL_Driver/Src/stm32f4xx_ll_fmc.c **** }
 161              		.loc 1 252 1 is_stmt 0 view .LVU68
 162 0062 0020     		movs	r0, #0
 163              	.LVL7:
 164              		.loc 1 252 1 view .LVU69
 165 0064 70BC     		pop	{r4, r5, r6}
 166              	.LCFI1:
 167              		.cfi_remember_state
 168              		.cfi_restore 6
 169              		.cfi_restore 5
 170              		.cfi_restore 4
 171              		.cfi_def_cfa_offset 0
 172 0066 7047     		bx	lr
 173              	.LVL8:
 174              	.L6:
 175              	.LCFI2:
 176              		.cfi_restore_state
 233:/home/paulo/Alexandria/STM32Cube_FW_F4_V1.23.0/Drivers/STM32F4xx_HAL_Driver/Src/stm32f4xx_ll_fmc.c ****   }
 177              		.loc 1 233 5 is_stmt 1 view .LVU70
 233:/home/paulo/Alexandria/STM32Cube_FW_F4_V1.23.0/Drivers/STM32F4xx_HAL_Driver/Src/stm32f4xx_ll_fmc.c ****   }
 178              		.loc 1 233 10 is_stmt 0 view .LVU71
 179 0068 43F04003 		orr	r3, r3, #64
 180              	.LVL9:
 233:/home/paulo/Alexandria/STM32Cube_FW_F4_V1.23.0/Drivers/STM32F4xx_HAL_Driver/Src/stm32f4xx_ll_fmc.c ****   }
 181              		.loc 1 233 10 view .LVU72
 182 006c EDE7     		b	.L2
 183              	.LVL10:
 184              	.L7:
 239:/home/paulo/Alexandria/STM32Cube_FW_F4_V1.23.0/Drivers/STM32F4xx_HAL_Driver/Src/stm32f4xx_ll_fmc.c ****   { 
 185              		.loc 1 239 73 discriminator 1 view .LVU73
 186 006e 0A68     		ldr	r2, [r1]
 239:/home/paulo/Alexandria/STM32Cube_FW_F4_V1.23.0/Drivers/STM32F4xx_HAL_Driver/Src/stm32f4xx_ll_fmc.c ****   { 
ARM GAS  /tmp/cc0gW0uU.s 			page 9


 187              		.loc 1 239 65 discriminator 1 view .LVU74
 188 0070 002A     		cmp	r2, #0
 189 0072 F0D0     		beq	.L3
 241:/home/paulo/Alexandria/STM32Cube_FW_F4_V1.23.0/Drivers/STM32F4xx_HAL_Driver/Src/stm32f4xx_ll_fmc.c ****   }
 190              		.loc 1 241 5 is_stmt 1 view .LVU75
 241:/home/paulo/Alexandria/STM32Cube_FW_F4_V1.23.0/Drivers/STM32F4xx_HAL_Driver/Src/stm32f4xx_ll_fmc.c ****   }
 191              		.loc 1 241 37 is_stmt 0 view .LVU76
 192 0074 0268     		ldr	r2, [r0]
 193 0076 1343     		orrs	r3, r3, r2
 194 0078 0360     		str	r3, [r0]
 195              	.LVL11:
 241:/home/paulo/Alexandria/STM32Cube_FW_F4_V1.23.0/Drivers/STM32F4xx_HAL_Driver/Src/stm32f4xx_ll_fmc.c ****   }
 196              		.loc 1 241 37 view .LVU77
 197 007a ECE7     		b	.L3
 198              	.L9:
 199              		.align	2
 200              	.L8:
 201 007c 8004C0FF 		.word	-4193152
 202              		.cfi_endproc
 203              	.LFE126:
 205              		.section	.text.FMC_NORSRAM_DeInit,"ax",%progbits
 206              		.align	1
 207              		.global	FMC_NORSRAM_DeInit
 208              		.syntax unified
 209              		.thumb
 210              		.thumb_func
 211              		.fpu fpv4-sp-d16
 213              	FMC_NORSRAM_DeInit:
 214              	.LVL12:
 215              	.LFB127:
 253:/home/paulo/Alexandria/STM32Cube_FW_F4_V1.23.0/Drivers/STM32F4xx_HAL_Driver/Src/stm32f4xx_ll_fmc.c **** 
 254:/home/paulo/Alexandria/STM32Cube_FW_F4_V1.23.0/Drivers/STM32F4xx_HAL_Driver/Src/stm32f4xx_ll_fmc.c **** /**
 255:/home/paulo/Alexandria/STM32Cube_FW_F4_V1.23.0/Drivers/STM32F4xx_HAL_Driver/Src/stm32f4xx_ll_fmc.c ****   * @brief  DeInitialize the FMC_NORSRAM peripheral 
 256:/home/paulo/Alexandria/STM32Cube_FW_F4_V1.23.0/Drivers/STM32F4xx_HAL_Driver/Src/stm32f4xx_ll_fmc.c ****   * @param  Device Pointer to NORSRAM device instance
 257:/home/paulo/Alexandria/STM32Cube_FW_F4_V1.23.0/Drivers/STM32F4xx_HAL_Driver/Src/stm32f4xx_ll_fmc.c ****   * @param  ExDevice Pointer to NORSRAM extended mode device instance  
 258:/home/paulo/Alexandria/STM32Cube_FW_F4_V1.23.0/Drivers/STM32F4xx_HAL_Driver/Src/stm32f4xx_ll_fmc.c ****   * @param  Bank NORSRAM bank number  
 259:/home/paulo/Alexandria/STM32Cube_FW_F4_V1.23.0/Drivers/STM32F4xx_HAL_Driver/Src/stm32f4xx_ll_fmc.c ****   * @retval HAL status
 260:/home/paulo/Alexandria/STM32Cube_FW_F4_V1.23.0/Drivers/STM32F4xx_HAL_Driver/Src/stm32f4xx_ll_fmc.c ****   */
 261:/home/paulo/Alexandria/STM32Cube_FW_F4_V1.23.0/Drivers/STM32F4xx_HAL_Driver/Src/stm32f4xx_ll_fmc.c **** HAL_StatusTypeDef FMC_NORSRAM_DeInit(FMC_NORSRAM_TypeDef *Device, FMC_NORSRAM_EXTENDED_TypeDef *ExD
 262:/home/paulo/Alexandria/STM32Cube_FW_F4_V1.23.0/Drivers/STM32F4xx_HAL_Driver/Src/stm32f4xx_ll_fmc.c **** {
 216              		.loc 1 262 1 is_stmt 1 view -0
 217              		.cfi_startproc
 218              		@ args = 0, pretend = 0, frame = 0
 219              		@ frame_needed = 0, uses_anonymous_args = 0
 220              		@ link register save eliminated.
 221              		.loc 1 262 1 is_stmt 0 view .LVU79
 222 0000 10B4     		push	{r4}
 223              	.LCFI3:
 224              		.cfi_def_cfa_offset 4
 225              		.cfi_offset 4, -4
 263:/home/paulo/Alexandria/STM32Cube_FW_F4_V1.23.0/Drivers/STM32F4xx_HAL_Driver/Src/stm32f4xx_ll_fmc.c ****   /* Check the parameters */
 264:/home/paulo/Alexandria/STM32Cube_FW_F4_V1.23.0/Drivers/STM32F4xx_HAL_Driver/Src/stm32f4xx_ll_fmc.c ****   assert_param(IS_FMC_NORSRAM_DEVICE(Device));
 226              		.loc 1 264 3 is_stmt 1 view .LVU80
 265:/home/paulo/Alexandria/STM32Cube_FW_F4_V1.23.0/Drivers/STM32F4xx_HAL_Driver/Src/stm32f4xx_ll_fmc.c ****   assert_param(IS_FMC_NORSRAM_EXTENDED_DEVICE(ExDevice));
 227              		.loc 1 265 3 view .LVU81
 266:/home/paulo/Alexandria/STM32Cube_FW_F4_V1.23.0/Drivers/STM32F4xx_HAL_Driver/Src/stm32f4xx_ll_fmc.c ****   assert_param(IS_FMC_NORSRAM_BANK(Bank));
 228              		.loc 1 266 3 view .LVU82
ARM GAS  /tmp/cc0gW0uU.s 			page 10


 267:/home/paulo/Alexandria/STM32Cube_FW_F4_V1.23.0/Drivers/STM32F4xx_HAL_Driver/Src/stm32f4xx_ll_fmc.c ****   
 268:/home/paulo/Alexandria/STM32Cube_FW_F4_V1.23.0/Drivers/STM32F4xx_HAL_Driver/Src/stm32f4xx_ll_fmc.c ****   /* Disable the FMC_NORSRAM device */
 269:/home/paulo/Alexandria/STM32Cube_FW_F4_V1.23.0/Drivers/STM32F4xx_HAL_Driver/Src/stm32f4xx_ll_fmc.c ****   __FMC_NORSRAM_DISABLE(Device, Bank);
 229              		.loc 1 269 3 view .LVU83
 230 0002 50F82230 		ldr	r3, [r0, r2, lsl #2]
 231 0006 23F00103 		bic	r3, r3, #1
 232 000a 40F82230 		str	r3, [r0, r2, lsl #2]
 270:/home/paulo/Alexandria/STM32Cube_FW_F4_V1.23.0/Drivers/STM32F4xx_HAL_Driver/Src/stm32f4xx_ll_fmc.c ****   
 271:/home/paulo/Alexandria/STM32Cube_FW_F4_V1.23.0/Drivers/STM32F4xx_HAL_Driver/Src/stm32f4xx_ll_fmc.c ****   /* De-initialize the FMC_NORSRAM device */
 272:/home/paulo/Alexandria/STM32Cube_FW_F4_V1.23.0/Drivers/STM32F4xx_HAL_Driver/Src/stm32f4xx_ll_fmc.c ****   /* FMC_NORSRAM_BANK1 */
 273:/home/paulo/Alexandria/STM32Cube_FW_F4_V1.23.0/Drivers/STM32F4xx_HAL_Driver/Src/stm32f4xx_ll_fmc.c ****   if(Bank == FMC_NORSRAM_BANK1)
 233              		.loc 1 273 3 view .LVU84
 234              		.loc 1 273 5 is_stmt 0 view .LVU85
 235 000e 72B9     		cbnz	r2, .L11
 274:/home/paulo/Alexandria/STM32Cube_FW_F4_V1.23.0/Drivers/STM32F4xx_HAL_Driver/Src/stm32f4xx_ll_fmc.c ****   {
 275:/home/paulo/Alexandria/STM32Cube_FW_F4_V1.23.0/Drivers/STM32F4xx_HAL_Driver/Src/stm32f4xx_ll_fmc.c ****     Device->BTCR[Bank] = 0x000030DBU;
 236              		.loc 1 275 5 is_stmt 1 view .LVU86
 237              		.loc 1 275 24 is_stmt 0 view .LVU87
 238 0010 43F2DB03 		movw	r3, #12507
 239 0014 40F82230 		str	r3, [r0, r2, lsl #2]
 240              	.L12:
 276:/home/paulo/Alexandria/STM32Cube_FW_F4_V1.23.0/Drivers/STM32F4xx_HAL_Driver/Src/stm32f4xx_ll_fmc.c ****   }
 277:/home/paulo/Alexandria/STM32Cube_FW_F4_V1.23.0/Drivers/STM32F4xx_HAL_Driver/Src/stm32f4xx_ll_fmc.c ****   /* FMC_NORSRAM_BANK2, FMC_NORSRAM_BANK3 or FMC_NORSRAM_BANK4 */
 278:/home/paulo/Alexandria/STM32Cube_FW_F4_V1.23.0/Drivers/STM32F4xx_HAL_Driver/Src/stm32f4xx_ll_fmc.c ****   else
 279:/home/paulo/Alexandria/STM32Cube_FW_F4_V1.23.0/Drivers/STM32F4xx_HAL_Driver/Src/stm32f4xx_ll_fmc.c ****   {   
 280:/home/paulo/Alexandria/STM32Cube_FW_F4_V1.23.0/Drivers/STM32F4xx_HAL_Driver/Src/stm32f4xx_ll_fmc.c ****     Device->BTCR[Bank] = 0x000030D2U;
 281:/home/paulo/Alexandria/STM32Cube_FW_F4_V1.23.0/Drivers/STM32F4xx_HAL_Driver/Src/stm32f4xx_ll_fmc.c ****   }
 282:/home/paulo/Alexandria/STM32Cube_FW_F4_V1.23.0/Drivers/STM32F4xx_HAL_Driver/Src/stm32f4xx_ll_fmc.c ****   
 283:/home/paulo/Alexandria/STM32Cube_FW_F4_V1.23.0/Drivers/STM32F4xx_HAL_Driver/Src/stm32f4xx_ll_fmc.c ****   Device->BTCR[Bank + 1U] = 0x0FFFFFFFU;
 241              		.loc 1 283 3 is_stmt 1 view .LVU88
 242              		.loc 1 283 21 is_stmt 0 view .LVU89
 243 0018 541C     		adds	r4, r2, #1
 244              		.loc 1 283 27 view .LVU90
 245 001a 6FF07043 		mvn	r3, #-268435456
 246 001e 40F82430 		str	r3, [r0, r4, lsl #2]
 284:/home/paulo/Alexandria/STM32Cube_FW_F4_V1.23.0/Drivers/STM32F4xx_HAL_Driver/Src/stm32f4xx_ll_fmc.c ****   ExDevice->BWTR[Bank]    = 0x0FFFFFFFU;
 247              		.loc 1 284 3 is_stmt 1 view .LVU91
 248              		.loc 1 284 27 is_stmt 0 view .LVU92
 249 0022 41F82230 		str	r3, [r1, r2, lsl #2]
 285:/home/paulo/Alexandria/STM32Cube_FW_F4_V1.23.0/Drivers/STM32F4xx_HAL_Driver/Src/stm32f4xx_ll_fmc.c ****    
 286:/home/paulo/Alexandria/STM32Cube_FW_F4_V1.23.0/Drivers/STM32F4xx_HAL_Driver/Src/stm32f4xx_ll_fmc.c ****   return HAL_OK;
 250              		.loc 1 286 3 is_stmt 1 view .LVU93
 287:/home/paulo/Alexandria/STM32Cube_FW_F4_V1.23.0/Drivers/STM32F4xx_HAL_Driver/Src/stm32f4xx_ll_fmc.c **** }
 251              		.loc 1 287 1 is_stmt 0 view .LVU94
 252 0026 0020     		movs	r0, #0
 253              	.LVL13:
 254              		.loc 1 287 1 view .LVU95
 255 0028 5DF8044B 		ldr	r4, [sp], #4
 256              	.LCFI4:
 257              		.cfi_remember_state
 258              		.cfi_restore 4
 259              		.cfi_def_cfa_offset 0
 260 002c 7047     		bx	lr
 261              	.LVL14:
 262              	.L11:
 263              	.LCFI5:
 264              		.cfi_restore_state
ARM GAS  /tmp/cc0gW0uU.s 			page 11


 280:/home/paulo/Alexandria/STM32Cube_FW_F4_V1.23.0/Drivers/STM32F4xx_HAL_Driver/Src/stm32f4xx_ll_fmc.c ****   }
 265              		.loc 1 280 5 is_stmt 1 view .LVU96
 280:/home/paulo/Alexandria/STM32Cube_FW_F4_V1.23.0/Drivers/STM32F4xx_HAL_Driver/Src/stm32f4xx_ll_fmc.c ****   }
 266              		.loc 1 280 24 is_stmt 0 view .LVU97
 267 002e 43F2D203 		movw	r3, #12498
 268 0032 40F82230 		str	r3, [r0, r2, lsl #2]
 269 0036 EFE7     		b	.L12
 270              		.cfi_endproc
 271              	.LFE127:
 273              		.section	.text.FMC_NORSRAM_Timing_Init,"ax",%progbits
 274              		.align	1
 275              		.global	FMC_NORSRAM_Timing_Init
 276              		.syntax unified
 277              		.thumb
 278              		.thumb_func
 279              		.fpu fpv4-sp-d16
 281              	FMC_NORSRAM_Timing_Init:
 282              	.LVL15:
 283              	.LFB128:
 288:/home/paulo/Alexandria/STM32Cube_FW_F4_V1.23.0/Drivers/STM32F4xx_HAL_Driver/Src/stm32f4xx_ll_fmc.c **** 
 289:/home/paulo/Alexandria/STM32Cube_FW_F4_V1.23.0/Drivers/STM32F4xx_HAL_Driver/Src/stm32f4xx_ll_fmc.c **** /**
 290:/home/paulo/Alexandria/STM32Cube_FW_F4_V1.23.0/Drivers/STM32F4xx_HAL_Driver/Src/stm32f4xx_ll_fmc.c ****   * @brief  Initialize the FMC_NORSRAM Timing according to the specified
 291:/home/paulo/Alexandria/STM32Cube_FW_F4_V1.23.0/Drivers/STM32F4xx_HAL_Driver/Src/stm32f4xx_ll_fmc.c ****   *         parameters in the FMC_NORSRAM_TimingTypeDef
 292:/home/paulo/Alexandria/STM32Cube_FW_F4_V1.23.0/Drivers/STM32F4xx_HAL_Driver/Src/stm32f4xx_ll_fmc.c ****   * @param  Device Pointer to NORSRAM device instance
 293:/home/paulo/Alexandria/STM32Cube_FW_F4_V1.23.0/Drivers/STM32F4xx_HAL_Driver/Src/stm32f4xx_ll_fmc.c ****   * @param  Timing Pointer to NORSRAM Timing structure
 294:/home/paulo/Alexandria/STM32Cube_FW_F4_V1.23.0/Drivers/STM32F4xx_HAL_Driver/Src/stm32f4xx_ll_fmc.c ****   * @param  Bank NORSRAM bank number  
 295:/home/paulo/Alexandria/STM32Cube_FW_F4_V1.23.0/Drivers/STM32F4xx_HAL_Driver/Src/stm32f4xx_ll_fmc.c ****   * @retval HAL status
 296:/home/paulo/Alexandria/STM32Cube_FW_F4_V1.23.0/Drivers/STM32F4xx_HAL_Driver/Src/stm32f4xx_ll_fmc.c ****   */
 297:/home/paulo/Alexandria/STM32Cube_FW_F4_V1.23.0/Drivers/STM32F4xx_HAL_Driver/Src/stm32f4xx_ll_fmc.c **** HAL_StatusTypeDef FMC_NORSRAM_Timing_Init(FMC_NORSRAM_TypeDef *Device, FMC_NORSRAM_TimingTypeDef *T
 298:/home/paulo/Alexandria/STM32Cube_FW_F4_V1.23.0/Drivers/STM32F4xx_HAL_Driver/Src/stm32f4xx_ll_fmc.c **** {
 284              		.loc 1 298 1 is_stmt 1 view -0
 285              		.cfi_startproc
 286              		@ args = 0, pretend = 0, frame = 0
 287              		@ frame_needed = 0, uses_anonymous_args = 0
 288              		@ link register save eliminated.
 289              		.loc 1 298 1 is_stmt 0 view .LVU99
 290 0000 30B4     		push	{r4, r5}
 291              	.LCFI6:
 292              		.cfi_def_cfa_offset 8
 293              		.cfi_offset 4, -8
 294              		.cfi_offset 5, -4
 299:/home/paulo/Alexandria/STM32Cube_FW_F4_V1.23.0/Drivers/STM32F4xx_HAL_Driver/Src/stm32f4xx_ll_fmc.c ****   uint32_t tmpr = 0U;
 295              		.loc 1 299 3 is_stmt 1 view .LVU100
 296              	.LVL16:
 300:/home/paulo/Alexandria/STM32Cube_FW_F4_V1.23.0/Drivers/STM32F4xx_HAL_Driver/Src/stm32f4xx_ll_fmc.c ****   
 301:/home/paulo/Alexandria/STM32Cube_FW_F4_V1.23.0/Drivers/STM32F4xx_HAL_Driver/Src/stm32f4xx_ll_fmc.c ****   /* Check the parameters */
 302:/home/paulo/Alexandria/STM32Cube_FW_F4_V1.23.0/Drivers/STM32F4xx_HAL_Driver/Src/stm32f4xx_ll_fmc.c ****   assert_param(IS_FMC_NORSRAM_DEVICE(Device));
 297              		.loc 1 302 3 view .LVU101
 303:/home/paulo/Alexandria/STM32Cube_FW_F4_V1.23.0/Drivers/STM32F4xx_HAL_Driver/Src/stm32f4xx_ll_fmc.c ****   assert_param(IS_FMC_ADDRESS_SETUP_TIME(Timing->AddressSetupTime));
 298              		.loc 1 303 3 view .LVU102
 304:/home/paulo/Alexandria/STM32Cube_FW_F4_V1.23.0/Drivers/STM32F4xx_HAL_Driver/Src/stm32f4xx_ll_fmc.c ****   assert_param(IS_FMC_ADDRESS_HOLD_TIME(Timing->AddressHoldTime));
 299              		.loc 1 304 3 view .LVU103
 305:/home/paulo/Alexandria/STM32Cube_FW_F4_V1.23.0/Drivers/STM32F4xx_HAL_Driver/Src/stm32f4xx_ll_fmc.c ****   assert_param(IS_FMC_DATASETUP_TIME(Timing->DataSetupTime));
 300              		.loc 1 305 3 view .LVU104
 306:/home/paulo/Alexandria/STM32Cube_FW_F4_V1.23.0/Drivers/STM32F4xx_HAL_Driver/Src/stm32f4xx_ll_fmc.c ****   assert_param(IS_FMC_TURNAROUND_TIME(Timing->BusTurnAroundDuration));
 301              		.loc 1 306 3 view .LVU105
 307:/home/paulo/Alexandria/STM32Cube_FW_F4_V1.23.0/Drivers/STM32F4xx_HAL_Driver/Src/stm32f4xx_ll_fmc.c ****   assert_param(IS_FMC_CLK_DIV(Timing->CLKDivision));
ARM GAS  /tmp/cc0gW0uU.s 			page 12


 302              		.loc 1 307 3 view .LVU106
 308:/home/paulo/Alexandria/STM32Cube_FW_F4_V1.23.0/Drivers/STM32F4xx_HAL_Driver/Src/stm32f4xx_ll_fmc.c ****   assert_param(IS_FMC_DATA_LATENCY(Timing->DataLatency));
 303              		.loc 1 308 3 view .LVU107
 309:/home/paulo/Alexandria/STM32Cube_FW_F4_V1.23.0/Drivers/STM32F4xx_HAL_Driver/Src/stm32f4xx_ll_fmc.c ****   assert_param(IS_FMC_ACCESS_MODE(Timing->AccessMode));
 304              		.loc 1 309 3 view .LVU108
 310:/home/paulo/Alexandria/STM32Cube_FW_F4_V1.23.0/Drivers/STM32F4xx_HAL_Driver/Src/stm32f4xx_ll_fmc.c ****   assert_param(IS_FMC_NORSRAM_BANK(Bank));
 305              		.loc 1 310 3 view .LVU109
 311:/home/paulo/Alexandria/STM32Cube_FW_F4_V1.23.0/Drivers/STM32F4xx_HAL_Driver/Src/stm32f4xx_ll_fmc.c ****   
 312:/home/paulo/Alexandria/STM32Cube_FW_F4_V1.23.0/Drivers/STM32F4xx_HAL_Driver/Src/stm32f4xx_ll_fmc.c ****   /* Get the BTCR register value */
 313:/home/paulo/Alexandria/STM32Cube_FW_F4_V1.23.0/Drivers/STM32F4xx_HAL_Driver/Src/stm32f4xx_ll_fmc.c ****   tmpr = Device->BTCR[Bank + 1U];
 306              		.loc 1 313 3 view .LVU110
 307              		.loc 1 313 28 is_stmt 0 view .LVU111
 308 0002 0132     		adds	r2, r2, #1
 309              	.LVL17:
 310              		.loc 1 313 8 view .LVU112
 311 0004 50F82240 		ldr	r4, [r0, r2, lsl #2]
 312              	.LVL18:
 314:/home/paulo/Alexandria/STM32Cube_FW_F4_V1.23.0/Drivers/STM32F4xx_HAL_Driver/Src/stm32f4xx_ll_fmc.c **** 
 315:/home/paulo/Alexandria/STM32Cube_FW_F4_V1.23.0/Drivers/STM32F4xx_HAL_Driver/Src/stm32f4xx_ll_fmc.c ****   /* Clear ADDSET, ADDHLD, DATAST, BUSTURN, CLKDIV, DATLAT and ACCMOD bits */
 316:/home/paulo/Alexandria/STM32Cube_FW_F4_V1.23.0/Drivers/STM32F4xx_HAL_Driver/Src/stm32f4xx_ll_fmc.c ****   tmpr &= ((uint32_t)~(FMC_BTR1_ADDSET  | FMC_BTR1_ADDHLD | FMC_BTR1_DATAST | \
 313              		.loc 1 316 3 is_stmt 1 view .LVU113
 314              		.loc 1 316 8 is_stmt 0 view .LVU114
 315 0008 04F04044 		and	r4, r4, #-1073741824
 316              	.LVL19:
 317:/home/paulo/Alexandria/STM32Cube_FW_F4_V1.23.0/Drivers/STM32F4xx_HAL_Driver/Src/stm32f4xx_ll_fmc.c ****                        FMC_BTR1_BUSTURN | FMC_BTR1_CLKDIV | FMC_BTR1_DATLAT | \
 318:/home/paulo/Alexandria/STM32Cube_FW_F4_V1.23.0/Drivers/STM32F4xx_HAL_Driver/Src/stm32f4xx_ll_fmc.c ****                        FMC_BTR1_ACCMOD));
 319:/home/paulo/Alexandria/STM32Cube_FW_F4_V1.23.0/Drivers/STM32F4xx_HAL_Driver/Src/stm32f4xx_ll_fmc.c ****   
 320:/home/paulo/Alexandria/STM32Cube_FW_F4_V1.23.0/Drivers/STM32F4xx_HAL_Driver/Src/stm32f4xx_ll_fmc.c ****   /* Set FMC_NORSRAM device timing parameters */  
 321:/home/paulo/Alexandria/STM32Cube_FW_F4_V1.23.0/Drivers/STM32F4xx_HAL_Driver/Src/stm32f4xx_ll_fmc.c ****   tmpr |= (uint32_t)(Timing->AddressSetupTime                   |\
 317              		.loc 1 321 3 is_stmt 1 view .LVU115
 318              		.loc 1 321 28 is_stmt 0 view .LVU116
 319 000c 0B68     		ldr	r3, [r1]
 322:/home/paulo/Alexandria/STM32Cube_FW_F4_V1.23.0/Drivers/STM32F4xx_HAL_Driver/Src/stm32f4xx_ll_fmc.c ****                     ((Timing->AddressHoldTime) << 4U)           |\
 320              		.loc 1 322 29 view .LVU117
 321 000e 4D68     		ldr	r5, [r1, #4]
 321:/home/paulo/Alexandria/STM32Cube_FW_F4_V1.23.0/Drivers/STM32F4xx_HAL_Driver/Src/stm32f4xx_ll_fmc.c ****                     ((Timing->AddressHoldTime) << 4U)           |\
 322              		.loc 1 321 65 view .LVU118
 323 0010 43EA0513 		orr	r3, r3, r5, lsl #4
 323:/home/paulo/Alexandria/STM32Cube_FW_F4_V1.23.0/Drivers/STM32F4xx_HAL_Driver/Src/stm32f4xx_ll_fmc.c ****                     ((Timing->DataSetupTime) << 8U)             |\
 324              		.loc 1 323 29 view .LVU119
 325 0014 8D68     		ldr	r5, [r1, #8]
 322:/home/paulo/Alexandria/STM32Cube_FW_F4_V1.23.0/Drivers/STM32F4xx_HAL_Driver/Src/stm32f4xx_ll_fmc.c ****                     ((Timing->AddressHoldTime) << 4U)           |\
 326              		.loc 1 322 65 view .LVU120
 327 0016 43EA0523 		orr	r3, r3, r5, lsl #8
 324:/home/paulo/Alexandria/STM32Cube_FW_F4_V1.23.0/Drivers/STM32F4xx_HAL_Driver/Src/stm32f4xx_ll_fmc.c ****                     ((Timing->BusTurnAroundDuration) << 16U)    |\
 328              		.loc 1 324 29 view .LVU121
 329 001a CD68     		ldr	r5, [r1, #12]
 323:/home/paulo/Alexandria/STM32Cube_FW_F4_V1.23.0/Drivers/STM32F4xx_HAL_Driver/Src/stm32f4xx_ll_fmc.c ****                     ((Timing->DataSetupTime) << 8U)             |\
 330              		.loc 1 323 65 view .LVU122
 331 001c 43EA0543 		orr	r3, r3, r5, lsl #16
 325:/home/paulo/Alexandria/STM32Cube_FW_F4_V1.23.0/Drivers/STM32F4xx_HAL_Driver/Src/stm32f4xx_ll_fmc.c ****                     (((Timing->CLKDivision) - 1U) << 20U)         |\
 332              		.loc 1 325 30 view .LVU123
 333 0020 0D69     		ldr	r5, [r1, #16]
 334              		.loc 1 325 45 view .LVU124
 335 0022 013D     		subs	r5, r5, #1
 324:/home/paulo/Alexandria/STM32Cube_FW_F4_V1.23.0/Drivers/STM32F4xx_HAL_Driver/Src/stm32f4xx_ll_fmc.c ****                     ((Timing->BusTurnAroundDuration) << 16U)    |\
 336              		.loc 1 324 65 view .LVU125
ARM GAS  /tmp/cc0gW0uU.s 			page 13


 337 0024 43EA0553 		orr	r3, r3, r5, lsl #20
 326:/home/paulo/Alexandria/STM32Cube_FW_F4_V1.23.0/Drivers/STM32F4xx_HAL_Driver/Src/stm32f4xx_ll_fmc.c ****                     (((Timing->DataLatency) - 2U) << 24U)         |\
 338              		.loc 1 326 30 view .LVU126
 339 0028 4D69     		ldr	r5, [r1, #20]
 340              		.loc 1 326 45 view .LVU127
 341 002a 023D     		subs	r5, r5, #2
 325:/home/paulo/Alexandria/STM32Cube_FW_F4_V1.23.0/Drivers/STM32F4xx_HAL_Driver/Src/stm32f4xx_ll_fmc.c ****                     (((Timing->CLKDivision) - 1U) << 20U)         |\
 342              		.loc 1 325 67 view .LVU128
 343 002c 43EA0563 		orr	r3, r3, r5, lsl #24
 327:/home/paulo/Alexandria/STM32Cube_FW_F4_V1.23.0/Drivers/STM32F4xx_HAL_Driver/Src/stm32f4xx_ll_fmc.c ****                     (Timing->AccessMode));
 344              		.loc 1 327 28 view .LVU129
 345 0030 8D69     		ldr	r5, [r1, #24]
 321:/home/paulo/Alexandria/STM32Cube_FW_F4_V1.23.0/Drivers/STM32F4xx_HAL_Driver/Src/stm32f4xx_ll_fmc.c ****                     ((Timing->AddressHoldTime) << 4U)           |\
 346              		.loc 1 321 11 view .LVU130
 347 0032 2B43     		orrs	r3, r3, r5
 321:/home/paulo/Alexandria/STM32Cube_FW_F4_V1.23.0/Drivers/STM32F4xx_HAL_Driver/Src/stm32f4xx_ll_fmc.c ****                     ((Timing->AddressHoldTime) << 4U)           |\
 348              		.loc 1 321 8 view .LVU131
 349 0034 2343     		orrs	r3, r3, r4
 350              	.LVL20:
 328:/home/paulo/Alexandria/STM32Cube_FW_F4_V1.23.0/Drivers/STM32F4xx_HAL_Driver/Src/stm32f4xx_ll_fmc.c ****   
 329:/home/paulo/Alexandria/STM32Cube_FW_F4_V1.23.0/Drivers/STM32F4xx_HAL_Driver/Src/stm32f4xx_ll_fmc.c ****   Device->BTCR[Bank + 1U] = tmpr;
 351              		.loc 1 329 3 is_stmt 1 view .LVU132
 352              		.loc 1 329 27 is_stmt 0 view .LVU133
 353 0036 40F82230 		str	r3, [r0, r2, lsl #2]
 330:/home/paulo/Alexandria/STM32Cube_FW_F4_V1.23.0/Drivers/STM32F4xx_HAL_Driver/Src/stm32f4xx_ll_fmc.c ****   
 331:/home/paulo/Alexandria/STM32Cube_FW_F4_V1.23.0/Drivers/STM32F4xx_HAL_Driver/Src/stm32f4xx_ll_fmc.c ****   /* Configure Clock division value (in NORSRAM bank 1) when continuous clock is enabled */
 332:/home/paulo/Alexandria/STM32Cube_FW_F4_V1.23.0/Drivers/STM32F4xx_HAL_Driver/Src/stm32f4xx_ll_fmc.c ****   if(HAL_IS_BIT_SET(Device->BTCR[FMC_NORSRAM_BANK1], FMC_BCR1_CCLKEN))
 354              		.loc 1 332 3 is_stmt 1 view .LVU134
 355              		.loc 1 332 6 is_stmt 0 view .LVU135
 356 003a 0368     		ldr	r3, [r0]
 357              	.LVL21:
 358              		.loc 1 332 5 view .LVU136
 359 003c 13F4801F 		tst	r3, #1048576
 360 0040 07D0     		beq	.L15
 333:/home/paulo/Alexandria/STM32Cube_FW_F4_V1.23.0/Drivers/STM32F4xx_HAL_Driver/Src/stm32f4xx_ll_fmc.c ****   {
 334:/home/paulo/Alexandria/STM32Cube_FW_F4_V1.23.0/Drivers/STM32F4xx_HAL_Driver/Src/stm32f4xx_ll_fmc.c ****     tmpr = (uint32_t)(Device->BTCR[FMC_NORSRAM_BANK1 + 1U] & ~(0x0FU << 20U)); 
 361              		.loc 1 334 5 is_stmt 1 view .LVU137
 362              		.loc 1 334 35 is_stmt 0 view .LVU138
 363 0042 4368     		ldr	r3, [r0, #4]
 364              		.loc 1 334 10 view .LVU139
 365 0044 23F47003 		bic	r3, r3, #15728640
 366              	.LVL22:
 335:/home/paulo/Alexandria/STM32Cube_FW_F4_V1.23.0/Drivers/STM32F4xx_HAL_Driver/Src/stm32f4xx_ll_fmc.c ****     tmpr |= (uint32_t)(((Timing->CLKDivision) - 1U) << 20U);
 367              		.loc 1 335 5 is_stmt 1 view .LVU140
 368              		.loc 1 335 32 is_stmt 0 view .LVU141
 369 0048 0A69     		ldr	r2, [r1, #16]
 370              	.LVL23:
 371              		.loc 1 335 47 view .LVU142
 372 004a 013A     		subs	r2, r2, #1
 373              		.loc 1 335 10 view .LVU143
 374 004c 43EA0253 		orr	r3, r3, r2, lsl #20
 375              	.LVL24:
 336:/home/paulo/Alexandria/STM32Cube_FW_F4_V1.23.0/Drivers/STM32F4xx_HAL_Driver/Src/stm32f4xx_ll_fmc.c ****     Device->BTCR[FMC_NORSRAM_BANK1 + 1U] = tmpr;
 376              		.loc 1 336 5 is_stmt 1 view .LVU144
 377              		.loc 1 336 42 is_stmt 0 view .LVU145
 378 0050 4360     		str	r3, [r0, #4]
 379              	.LVL25:
ARM GAS  /tmp/cc0gW0uU.s 			page 14


 380              	.L15:
 337:/home/paulo/Alexandria/STM32Cube_FW_F4_V1.23.0/Drivers/STM32F4xx_HAL_Driver/Src/stm32f4xx_ll_fmc.c ****   }  
 338:/home/paulo/Alexandria/STM32Cube_FW_F4_V1.23.0/Drivers/STM32F4xx_HAL_Driver/Src/stm32f4xx_ll_fmc.c ****   
 339:/home/paulo/Alexandria/STM32Cube_FW_F4_V1.23.0/Drivers/STM32F4xx_HAL_Driver/Src/stm32f4xx_ll_fmc.c ****   return HAL_OK;   
 381              		.loc 1 339 3 is_stmt 1 view .LVU146
 340:/home/paulo/Alexandria/STM32Cube_FW_F4_V1.23.0/Drivers/STM32F4xx_HAL_Driver/Src/stm32f4xx_ll_fmc.c **** }
 382              		.loc 1 340 1 is_stmt 0 view .LVU147
 383 0052 0020     		movs	r0, #0
 384              	.LVL26:
 385              		.loc 1 340 1 view .LVU148
 386 0054 30BC     		pop	{r4, r5}
 387              	.LCFI7:
 388              		.cfi_restore 5
 389              		.cfi_restore 4
 390              		.cfi_def_cfa_offset 0
 391 0056 7047     		bx	lr
 392              		.cfi_endproc
 393              	.LFE128:
 395              		.section	.text.FMC_NORSRAM_Extended_Timing_Init,"ax",%progbits
 396              		.align	1
 397              		.global	FMC_NORSRAM_Extended_Timing_Init
 398              		.syntax unified
 399              		.thumb
 400              		.thumb_func
 401              		.fpu fpv4-sp-d16
 403              	FMC_NORSRAM_Extended_Timing_Init:
 404              	.LVL27:
 405              	.LFB129:
 341:/home/paulo/Alexandria/STM32Cube_FW_F4_V1.23.0/Drivers/STM32F4xx_HAL_Driver/Src/stm32f4xx_ll_fmc.c **** 
 342:/home/paulo/Alexandria/STM32Cube_FW_F4_V1.23.0/Drivers/STM32F4xx_HAL_Driver/Src/stm32f4xx_ll_fmc.c **** /**
 343:/home/paulo/Alexandria/STM32Cube_FW_F4_V1.23.0/Drivers/STM32F4xx_HAL_Driver/Src/stm32f4xx_ll_fmc.c ****   * @brief  Initialize the FMC_NORSRAM Extended mode Timing according to the specified
 344:/home/paulo/Alexandria/STM32Cube_FW_F4_V1.23.0/Drivers/STM32F4xx_HAL_Driver/Src/stm32f4xx_ll_fmc.c ****   *         parameters in the FMC_NORSRAM_TimingTypeDef
 345:/home/paulo/Alexandria/STM32Cube_FW_F4_V1.23.0/Drivers/STM32F4xx_HAL_Driver/Src/stm32f4xx_ll_fmc.c ****   * @param  Device Pointer to NORSRAM device instance
 346:/home/paulo/Alexandria/STM32Cube_FW_F4_V1.23.0/Drivers/STM32F4xx_HAL_Driver/Src/stm32f4xx_ll_fmc.c ****   * @param  Timing Pointer to NORSRAM Timing structure
 347:/home/paulo/Alexandria/STM32Cube_FW_F4_V1.23.0/Drivers/STM32F4xx_HAL_Driver/Src/stm32f4xx_ll_fmc.c ****   * @param  Bank NORSRAM bank number  
 348:/home/paulo/Alexandria/STM32Cube_FW_F4_V1.23.0/Drivers/STM32F4xx_HAL_Driver/Src/stm32f4xx_ll_fmc.c ****   * @retval HAL status
 349:/home/paulo/Alexandria/STM32Cube_FW_F4_V1.23.0/Drivers/STM32F4xx_HAL_Driver/Src/stm32f4xx_ll_fmc.c ****   */
 350:/home/paulo/Alexandria/STM32Cube_FW_F4_V1.23.0/Drivers/STM32F4xx_HAL_Driver/Src/stm32f4xx_ll_fmc.c **** HAL_StatusTypeDef  FMC_NORSRAM_Extended_Timing_Init(FMC_NORSRAM_EXTENDED_TypeDef *Device, FMC_NORSR
 351:/home/paulo/Alexandria/STM32Cube_FW_F4_V1.23.0/Drivers/STM32F4xx_HAL_Driver/Src/stm32f4xx_ll_fmc.c **** {  
 406              		.loc 1 351 1 is_stmt 1 view -0
 407              		.cfi_startproc
 408              		@ args = 0, pretend = 0, frame = 0
 409              		@ frame_needed = 0, uses_anonymous_args = 0
 410              		@ link register save eliminated.
 352:/home/paulo/Alexandria/STM32Cube_FW_F4_V1.23.0/Drivers/STM32F4xx_HAL_Driver/Src/stm32f4xx_ll_fmc.c ****   uint32_t tmpr = 0U;
 411              		.loc 1 352 3 view .LVU150
 353:/home/paulo/Alexandria/STM32Cube_FW_F4_V1.23.0/Drivers/STM32F4xx_HAL_Driver/Src/stm32f4xx_ll_fmc.c ****  
 354:/home/paulo/Alexandria/STM32Cube_FW_F4_V1.23.0/Drivers/STM32F4xx_HAL_Driver/Src/stm32f4xx_ll_fmc.c ****   /* Check the parameters */
 355:/home/paulo/Alexandria/STM32Cube_FW_F4_V1.23.0/Drivers/STM32F4xx_HAL_Driver/Src/stm32f4xx_ll_fmc.c ****   assert_param(IS_FMC_EXTENDED_MODE(ExtendedMode));
 412              		.loc 1 355 3 view .LVU151
 356:/home/paulo/Alexandria/STM32Cube_FW_F4_V1.23.0/Drivers/STM32F4xx_HAL_Driver/Src/stm32f4xx_ll_fmc.c ****   
 357:/home/paulo/Alexandria/STM32Cube_FW_F4_V1.23.0/Drivers/STM32F4xx_HAL_Driver/Src/stm32f4xx_ll_fmc.c ****   /* Set NORSRAM device timing register for write configuration, if extended mode is used */
 358:/home/paulo/Alexandria/STM32Cube_FW_F4_V1.23.0/Drivers/STM32F4xx_HAL_Driver/Src/stm32f4xx_ll_fmc.c ****   if(ExtendedMode == FMC_EXTENDED_MODE_ENABLE)
 413              		.loc 1 358 3 view .LVU152
 414              		.loc 1 358 5 is_stmt 0 view .LVU153
 415 0000 B3F5804F 		cmp	r3, #16384
 416 0004 05D0     		beq	.L24
ARM GAS  /tmp/cc0gW0uU.s 			page 15


 359:/home/paulo/Alexandria/STM32Cube_FW_F4_V1.23.0/Drivers/STM32F4xx_HAL_Driver/Src/stm32f4xx_ll_fmc.c ****   {
 360:/home/paulo/Alexandria/STM32Cube_FW_F4_V1.23.0/Drivers/STM32F4xx_HAL_Driver/Src/stm32f4xx_ll_fmc.c ****     /* Check the parameters */
 361:/home/paulo/Alexandria/STM32Cube_FW_F4_V1.23.0/Drivers/STM32F4xx_HAL_Driver/Src/stm32f4xx_ll_fmc.c ****     assert_param(IS_FMC_NORSRAM_EXTENDED_DEVICE(Device));  
 362:/home/paulo/Alexandria/STM32Cube_FW_F4_V1.23.0/Drivers/STM32F4xx_HAL_Driver/Src/stm32f4xx_ll_fmc.c ****     assert_param(IS_FMC_ADDRESS_SETUP_TIME(Timing->AddressSetupTime));
 363:/home/paulo/Alexandria/STM32Cube_FW_F4_V1.23.0/Drivers/STM32F4xx_HAL_Driver/Src/stm32f4xx_ll_fmc.c ****     assert_param(IS_FMC_ADDRESS_HOLD_TIME(Timing->AddressHoldTime));
 364:/home/paulo/Alexandria/STM32Cube_FW_F4_V1.23.0/Drivers/STM32F4xx_HAL_Driver/Src/stm32f4xx_ll_fmc.c ****     assert_param(IS_FMC_DATASETUP_TIME(Timing->DataSetupTime));
 365:/home/paulo/Alexandria/STM32Cube_FW_F4_V1.23.0/Drivers/STM32F4xx_HAL_Driver/Src/stm32f4xx_ll_fmc.c ****     assert_param(IS_FMC_TURNAROUND_TIME(Timing->BusTurnAroundDuration));
 366:/home/paulo/Alexandria/STM32Cube_FW_F4_V1.23.0/Drivers/STM32F4xx_HAL_Driver/Src/stm32f4xx_ll_fmc.c ****     assert_param(IS_FMC_ACCESS_MODE(Timing->AccessMode));
 367:/home/paulo/Alexandria/STM32Cube_FW_F4_V1.23.0/Drivers/STM32F4xx_HAL_Driver/Src/stm32f4xx_ll_fmc.c ****     assert_param(IS_FMC_NORSRAM_BANK(Bank));  
 368:/home/paulo/Alexandria/STM32Cube_FW_F4_V1.23.0/Drivers/STM32F4xx_HAL_Driver/Src/stm32f4xx_ll_fmc.c ****     
 369:/home/paulo/Alexandria/STM32Cube_FW_F4_V1.23.0/Drivers/STM32F4xx_HAL_Driver/Src/stm32f4xx_ll_fmc.c ****     /* Get the BWTR register value */
 370:/home/paulo/Alexandria/STM32Cube_FW_F4_V1.23.0/Drivers/STM32F4xx_HAL_Driver/Src/stm32f4xx_ll_fmc.c ****     tmpr = Device->BWTR[Bank];
 371:/home/paulo/Alexandria/STM32Cube_FW_F4_V1.23.0/Drivers/STM32F4xx_HAL_Driver/Src/stm32f4xx_ll_fmc.c **** 
 372:/home/paulo/Alexandria/STM32Cube_FW_F4_V1.23.0/Drivers/STM32F4xx_HAL_Driver/Src/stm32f4xx_ll_fmc.c ****     /* Clear ADDSET, ADDHLD, DATAST, BUSTURN and ACCMOD bits */
 373:/home/paulo/Alexandria/STM32Cube_FW_F4_V1.23.0/Drivers/STM32F4xx_HAL_Driver/Src/stm32f4xx_ll_fmc.c ****     tmpr &= ((uint32_t)~(FMC_BWTR1_ADDSET  | FMC_BWTR1_ADDHLD | FMC_BWTR1_DATAST | \
 374:/home/paulo/Alexandria/STM32Cube_FW_F4_V1.23.0/Drivers/STM32F4xx_HAL_Driver/Src/stm32f4xx_ll_fmc.c ****                          FMC_BWTR1_BUSTURN | FMC_BWTR1_ACCMOD));
 375:/home/paulo/Alexandria/STM32Cube_FW_F4_V1.23.0/Drivers/STM32F4xx_HAL_Driver/Src/stm32f4xx_ll_fmc.c ****     
 376:/home/paulo/Alexandria/STM32Cube_FW_F4_V1.23.0/Drivers/STM32F4xx_HAL_Driver/Src/stm32f4xx_ll_fmc.c ****     tmpr |= (uint32_t)(Timing->AddressSetupTime                  |\
 377:/home/paulo/Alexandria/STM32Cube_FW_F4_V1.23.0/Drivers/STM32F4xx_HAL_Driver/Src/stm32f4xx_ll_fmc.c ****                       ((Timing->AddressHoldTime) << 4U)          |\
 378:/home/paulo/Alexandria/STM32Cube_FW_F4_V1.23.0/Drivers/STM32F4xx_HAL_Driver/Src/stm32f4xx_ll_fmc.c ****                       ((Timing->DataSetupTime) << 8U)            |\
 379:/home/paulo/Alexandria/STM32Cube_FW_F4_V1.23.0/Drivers/STM32F4xx_HAL_Driver/Src/stm32f4xx_ll_fmc.c ****                       ((Timing->BusTurnAroundDuration) << 16U)   |\
 380:/home/paulo/Alexandria/STM32Cube_FW_F4_V1.23.0/Drivers/STM32F4xx_HAL_Driver/Src/stm32f4xx_ll_fmc.c ****                       (Timing->AccessMode));
 381:/home/paulo/Alexandria/STM32Cube_FW_F4_V1.23.0/Drivers/STM32F4xx_HAL_Driver/Src/stm32f4xx_ll_fmc.c **** 
 382:/home/paulo/Alexandria/STM32Cube_FW_F4_V1.23.0/Drivers/STM32F4xx_HAL_Driver/Src/stm32f4xx_ll_fmc.c ****     Device->BWTR[Bank] = tmpr;
 383:/home/paulo/Alexandria/STM32Cube_FW_F4_V1.23.0/Drivers/STM32F4xx_HAL_Driver/Src/stm32f4xx_ll_fmc.c ****   }
 384:/home/paulo/Alexandria/STM32Cube_FW_F4_V1.23.0/Drivers/STM32F4xx_HAL_Driver/Src/stm32f4xx_ll_fmc.c ****   else
 385:/home/paulo/Alexandria/STM32Cube_FW_F4_V1.23.0/Drivers/STM32F4xx_HAL_Driver/Src/stm32f4xx_ll_fmc.c ****   {
 386:/home/paulo/Alexandria/STM32Cube_FW_F4_V1.23.0/Drivers/STM32F4xx_HAL_Driver/Src/stm32f4xx_ll_fmc.c ****     Device->BWTR[Bank] = 0x0FFFFFFFU;
 417              		.loc 1 386 5 is_stmt 1 view .LVU154
 418              		.loc 1 386 24 is_stmt 0 view .LVU155
 419 0006 6FF07043 		mvn	r3, #-268435456
 420              	.LVL28:
 421              		.loc 1 386 24 view .LVU156
 422 000a 40F82230 		str	r3, [r0, r2, lsl #2]
 387:/home/paulo/Alexandria/STM32Cube_FW_F4_V1.23.0/Drivers/STM32F4xx_HAL_Driver/Src/stm32f4xx_ll_fmc.c ****   }   
 388:/home/paulo/Alexandria/STM32Cube_FW_F4_V1.23.0/Drivers/STM32F4xx_HAL_Driver/Src/stm32f4xx_ll_fmc.c ****   
 389:/home/paulo/Alexandria/STM32Cube_FW_F4_V1.23.0/Drivers/STM32F4xx_HAL_Driver/Src/stm32f4xx_ll_fmc.c ****   return HAL_OK;  
 423              		.loc 1 389 3 is_stmt 1 view .LVU157
 390:/home/paulo/Alexandria/STM32Cube_FW_F4_V1.23.0/Drivers/STM32F4xx_HAL_Driver/Src/stm32f4xx_ll_fmc.c **** }
 424              		.loc 1 390 1 is_stmt 0 view .LVU158
 425 000e 0020     		movs	r0, #0
 426              	.LVL29:
 427              		.loc 1 390 1 view .LVU159
 428 0010 7047     		bx	lr
 429              	.LVL30:
 430              	.L24:
 351:/home/paulo/Alexandria/STM32Cube_FW_F4_V1.23.0/Drivers/STM32F4xx_HAL_Driver/Src/stm32f4xx_ll_fmc.c ****   uint32_t tmpr = 0U;
 431              		.loc 1 351 1 view .LVU160
 432 0012 30B4     		push	{r4, r5}
 433              	.LCFI8:
 434              		.cfi_def_cfa_offset 8
 435              		.cfi_offset 4, -8
 436              		.cfi_offset 5, -4
 361:/home/paulo/Alexandria/STM32Cube_FW_F4_V1.23.0/Drivers/STM32F4xx_HAL_Driver/Src/stm32f4xx_ll_fmc.c ****     assert_param(IS_FMC_ADDRESS_SETUP_TIME(Timing->AddressSetupTime));
 437              		.loc 1 361 5 is_stmt 1 view .LVU161
 362:/home/paulo/Alexandria/STM32Cube_FW_F4_V1.23.0/Drivers/STM32F4xx_HAL_Driver/Src/stm32f4xx_ll_fmc.c ****     assert_param(IS_FMC_ADDRESS_HOLD_TIME(Timing->AddressHoldTime));
 438              		.loc 1 362 5 view .LVU162
ARM GAS  /tmp/cc0gW0uU.s 			page 16


 363:/home/paulo/Alexandria/STM32Cube_FW_F4_V1.23.0/Drivers/STM32F4xx_HAL_Driver/Src/stm32f4xx_ll_fmc.c ****     assert_param(IS_FMC_DATASETUP_TIME(Timing->DataSetupTime));
 439              		.loc 1 363 5 view .LVU163
 364:/home/paulo/Alexandria/STM32Cube_FW_F4_V1.23.0/Drivers/STM32F4xx_HAL_Driver/Src/stm32f4xx_ll_fmc.c ****     assert_param(IS_FMC_TURNAROUND_TIME(Timing->BusTurnAroundDuration));
 440              		.loc 1 364 5 view .LVU164
 365:/home/paulo/Alexandria/STM32Cube_FW_F4_V1.23.0/Drivers/STM32F4xx_HAL_Driver/Src/stm32f4xx_ll_fmc.c ****     assert_param(IS_FMC_ACCESS_MODE(Timing->AccessMode));
 441              		.loc 1 365 5 view .LVU165
 366:/home/paulo/Alexandria/STM32Cube_FW_F4_V1.23.0/Drivers/STM32F4xx_HAL_Driver/Src/stm32f4xx_ll_fmc.c ****     assert_param(IS_FMC_NORSRAM_BANK(Bank));  
 442              		.loc 1 366 5 view .LVU166
 367:/home/paulo/Alexandria/STM32Cube_FW_F4_V1.23.0/Drivers/STM32F4xx_HAL_Driver/Src/stm32f4xx_ll_fmc.c ****     
 443              		.loc 1 367 5 view .LVU167
 370:/home/paulo/Alexandria/STM32Cube_FW_F4_V1.23.0/Drivers/STM32F4xx_HAL_Driver/Src/stm32f4xx_ll_fmc.c **** 
 444              		.loc 1 370 5 view .LVU168
 370:/home/paulo/Alexandria/STM32Cube_FW_F4_V1.23.0/Drivers/STM32F4xx_HAL_Driver/Src/stm32f4xx_ll_fmc.c **** 
 445              		.loc 1 370 10 is_stmt 0 view .LVU169
 446 0014 50F82230 		ldr	r3, [r0, r2, lsl #2]
 447              	.LVL31:
 373:/home/paulo/Alexandria/STM32Cube_FW_F4_V1.23.0/Drivers/STM32F4xx_HAL_Driver/Src/stm32f4xx_ll_fmc.c ****                          FMC_BWTR1_BUSTURN | FMC_BWTR1_ACCMOD));
 448              		.loc 1 373 5 is_stmt 1 view .LVU170
 373:/home/paulo/Alexandria/STM32Cube_FW_F4_V1.23.0/Drivers/STM32F4xx_HAL_Driver/Src/stm32f4xx_ll_fmc.c ****                          FMC_BWTR1_BUSTURN | FMC_BWTR1_ACCMOD));
 449              		.loc 1 373 10 is_stmt 0 view .LVU171
 450 0018 094C     		ldr	r4, .L25
 451 001a 1C40     		ands	r4, r4, r3
 452              	.LVL32:
 376:/home/paulo/Alexandria/STM32Cube_FW_F4_V1.23.0/Drivers/STM32F4xx_HAL_Driver/Src/stm32f4xx_ll_fmc.c ****                       ((Timing->AddressHoldTime) << 4U)          |\
 453              		.loc 1 376 5 is_stmt 1 view .LVU172
 376:/home/paulo/Alexandria/STM32Cube_FW_F4_V1.23.0/Drivers/STM32F4xx_HAL_Driver/Src/stm32f4xx_ll_fmc.c ****                       ((Timing->AddressHoldTime) << 4U)          |\
 454              		.loc 1 376 30 is_stmt 0 view .LVU173
 455 001c 0B68     		ldr	r3, [r1]
 377:/home/paulo/Alexandria/STM32Cube_FW_F4_V1.23.0/Drivers/STM32F4xx_HAL_Driver/Src/stm32f4xx_ll_fmc.c ****                       ((Timing->DataSetupTime) << 8U)            |\
 456              		.loc 1 377 31 view .LVU174
 457 001e 4D68     		ldr	r5, [r1, #4]
 376:/home/paulo/Alexandria/STM32Cube_FW_F4_V1.23.0/Drivers/STM32F4xx_HAL_Driver/Src/stm32f4xx_ll_fmc.c ****                       ((Timing->AddressHoldTime) << 4U)          |\
 458              		.loc 1 376 66 view .LVU175
 459 0020 43EA0513 		orr	r3, r3, r5, lsl #4
 378:/home/paulo/Alexandria/STM32Cube_FW_F4_V1.23.0/Drivers/STM32F4xx_HAL_Driver/Src/stm32f4xx_ll_fmc.c ****                       ((Timing->BusTurnAroundDuration) << 16U)   |\
 460              		.loc 1 378 31 view .LVU176
 461 0024 8D68     		ldr	r5, [r1, #8]
 377:/home/paulo/Alexandria/STM32Cube_FW_F4_V1.23.0/Drivers/STM32F4xx_HAL_Driver/Src/stm32f4xx_ll_fmc.c ****                       ((Timing->DataSetupTime) << 8U)            |\
 462              		.loc 1 377 66 view .LVU177
 463 0026 43EA0523 		orr	r3, r3, r5, lsl #8
 379:/home/paulo/Alexandria/STM32Cube_FW_F4_V1.23.0/Drivers/STM32F4xx_HAL_Driver/Src/stm32f4xx_ll_fmc.c ****                       (Timing->AccessMode));
 464              		.loc 1 379 31 view .LVU178
 465 002a CD68     		ldr	r5, [r1, #12]
 378:/home/paulo/Alexandria/STM32Cube_FW_F4_V1.23.0/Drivers/STM32F4xx_HAL_Driver/Src/stm32f4xx_ll_fmc.c ****                       ((Timing->BusTurnAroundDuration) << 16U)   |\
 466              		.loc 1 378 66 view .LVU179
 467 002c 43EA0543 		orr	r3, r3, r5, lsl #16
 380:/home/paulo/Alexandria/STM32Cube_FW_F4_V1.23.0/Drivers/STM32F4xx_HAL_Driver/Src/stm32f4xx_ll_fmc.c **** 
 468              		.loc 1 380 30 view .LVU180
 469 0030 8969     		ldr	r1, [r1, #24]
 470              	.LVL33:
 379:/home/paulo/Alexandria/STM32Cube_FW_F4_V1.23.0/Drivers/STM32F4xx_HAL_Driver/Src/stm32f4xx_ll_fmc.c ****                       (Timing->AccessMode));
 471              		.loc 1 379 66 view .LVU181
 472 0032 0B43     		orrs	r3, r3, r1
 376:/home/paulo/Alexandria/STM32Cube_FW_F4_V1.23.0/Drivers/STM32F4xx_HAL_Driver/Src/stm32f4xx_ll_fmc.c ****                       ((Timing->AddressHoldTime) << 4U)          |\
 473              		.loc 1 376 10 view .LVU182
 474 0034 2343     		orrs	r3, r3, r4
 475              	.LVL34:
ARM GAS  /tmp/cc0gW0uU.s 			page 17


 382:/home/paulo/Alexandria/STM32Cube_FW_F4_V1.23.0/Drivers/STM32F4xx_HAL_Driver/Src/stm32f4xx_ll_fmc.c ****   }
 476              		.loc 1 382 5 is_stmt 1 view .LVU183
 382:/home/paulo/Alexandria/STM32Cube_FW_F4_V1.23.0/Drivers/STM32F4xx_HAL_Driver/Src/stm32f4xx_ll_fmc.c ****   }
 477              		.loc 1 382 24 is_stmt 0 view .LVU184
 478 0036 40F82230 		str	r3, [r0, r2, lsl #2]
 389:/home/paulo/Alexandria/STM32Cube_FW_F4_V1.23.0/Drivers/STM32F4xx_HAL_Driver/Src/stm32f4xx_ll_fmc.c **** }
 479              		.loc 1 389 3 is_stmt 1 view .LVU185
 480              		.loc 1 390 1 is_stmt 0 view .LVU186
 481 003a 0020     		movs	r0, #0
 482              	.LVL35:
 483              		.loc 1 390 1 view .LVU187
 484 003c 30BC     		pop	{r4, r5}
 485              	.LCFI9:
 486              		.cfi_restore 5
 487              		.cfi_restore 4
 488              		.cfi_def_cfa_offset 0
 489 003e 7047     		bx	lr
 490              	.L26:
 491              		.align	2
 492              	.L25:
 493 0040 0000F0CF 		.word	-806354944
 494              		.cfi_endproc
 495              	.LFE129:
 497              		.section	.text.FMC_NORSRAM_WriteOperation_Enable,"ax",%progbits
 498              		.align	1
 499              		.global	FMC_NORSRAM_WriteOperation_Enable
 500              		.syntax unified
 501              		.thumb
 502              		.thumb_func
 503              		.fpu fpv4-sp-d16
 505              	FMC_NORSRAM_WriteOperation_Enable:
 506              	.LVL36:
 507              	.LFB130:
 391:/home/paulo/Alexandria/STM32Cube_FW_F4_V1.23.0/Drivers/STM32F4xx_HAL_Driver/Src/stm32f4xx_ll_fmc.c **** /**
 392:/home/paulo/Alexandria/STM32Cube_FW_F4_V1.23.0/Drivers/STM32F4xx_HAL_Driver/Src/stm32f4xx_ll_fmc.c ****   * @}
 393:/home/paulo/Alexandria/STM32Cube_FW_F4_V1.23.0/Drivers/STM32F4xx_HAL_Driver/Src/stm32f4xx_ll_fmc.c ****   */
 394:/home/paulo/Alexandria/STM32Cube_FW_F4_V1.23.0/Drivers/STM32F4xx_HAL_Driver/Src/stm32f4xx_ll_fmc.c ****   
 395:/home/paulo/Alexandria/STM32Cube_FW_F4_V1.23.0/Drivers/STM32F4xx_HAL_Driver/Src/stm32f4xx_ll_fmc.c **** /** @addtogroup FMC_LL_NORSRAM_Private_Functions_Group2
 396:/home/paulo/Alexandria/STM32Cube_FW_F4_V1.23.0/Drivers/STM32F4xx_HAL_Driver/Src/stm32f4xx_ll_fmc.c ****  *  @brief   management functions 
 397:/home/paulo/Alexandria/STM32Cube_FW_F4_V1.23.0/Drivers/STM32F4xx_HAL_Driver/Src/stm32f4xx_ll_fmc.c ****  *
 398:/home/paulo/Alexandria/STM32Cube_FW_F4_V1.23.0/Drivers/STM32F4xx_HAL_Driver/Src/stm32f4xx_ll_fmc.c **** @verbatim   
 399:/home/paulo/Alexandria/STM32Cube_FW_F4_V1.23.0/Drivers/STM32F4xx_HAL_Driver/Src/stm32f4xx_ll_fmc.c ****   ==============================================================================
 400:/home/paulo/Alexandria/STM32Cube_FW_F4_V1.23.0/Drivers/STM32F4xx_HAL_Driver/Src/stm32f4xx_ll_fmc.c ****                       ##### FMC_NORSRAM Control functions #####
 401:/home/paulo/Alexandria/STM32Cube_FW_F4_V1.23.0/Drivers/STM32F4xx_HAL_Driver/Src/stm32f4xx_ll_fmc.c ****   ==============================================================================  
 402:/home/paulo/Alexandria/STM32Cube_FW_F4_V1.23.0/Drivers/STM32F4xx_HAL_Driver/Src/stm32f4xx_ll_fmc.c ****   [..]
 403:/home/paulo/Alexandria/STM32Cube_FW_F4_V1.23.0/Drivers/STM32F4xx_HAL_Driver/Src/stm32f4xx_ll_fmc.c ****     This subsection provides a set of functions allowing to control dynamically
 404:/home/paulo/Alexandria/STM32Cube_FW_F4_V1.23.0/Drivers/STM32F4xx_HAL_Driver/Src/stm32f4xx_ll_fmc.c ****     the FMC NORSRAM interface.
 405:/home/paulo/Alexandria/STM32Cube_FW_F4_V1.23.0/Drivers/STM32F4xx_HAL_Driver/Src/stm32f4xx_ll_fmc.c **** 
 406:/home/paulo/Alexandria/STM32Cube_FW_F4_V1.23.0/Drivers/STM32F4xx_HAL_Driver/Src/stm32f4xx_ll_fmc.c **** @endverbatim
 407:/home/paulo/Alexandria/STM32Cube_FW_F4_V1.23.0/Drivers/STM32F4xx_HAL_Driver/Src/stm32f4xx_ll_fmc.c ****   * @{
 408:/home/paulo/Alexandria/STM32Cube_FW_F4_V1.23.0/Drivers/STM32F4xx_HAL_Driver/Src/stm32f4xx_ll_fmc.c ****   */
 409:/home/paulo/Alexandria/STM32Cube_FW_F4_V1.23.0/Drivers/STM32F4xx_HAL_Driver/Src/stm32f4xx_ll_fmc.c **** /**
 410:/home/paulo/Alexandria/STM32Cube_FW_F4_V1.23.0/Drivers/STM32F4xx_HAL_Driver/Src/stm32f4xx_ll_fmc.c ****   * @brief  Enables dynamically FMC_NORSRAM write operation.
 411:/home/paulo/Alexandria/STM32Cube_FW_F4_V1.23.0/Drivers/STM32F4xx_HAL_Driver/Src/stm32f4xx_ll_fmc.c ****   * @param  Device Pointer to NORSRAM device instance
 412:/home/paulo/Alexandria/STM32Cube_FW_F4_V1.23.0/Drivers/STM32F4xx_HAL_Driver/Src/stm32f4xx_ll_fmc.c ****   * @param  Bank NORSRAM bank number   
 413:/home/paulo/Alexandria/STM32Cube_FW_F4_V1.23.0/Drivers/STM32F4xx_HAL_Driver/Src/stm32f4xx_ll_fmc.c ****   * @retval HAL status
 414:/home/paulo/Alexandria/STM32Cube_FW_F4_V1.23.0/Drivers/STM32F4xx_HAL_Driver/Src/stm32f4xx_ll_fmc.c ****   */
ARM GAS  /tmp/cc0gW0uU.s 			page 18


 415:/home/paulo/Alexandria/STM32Cube_FW_F4_V1.23.0/Drivers/STM32F4xx_HAL_Driver/Src/stm32f4xx_ll_fmc.c **** HAL_StatusTypeDef FMC_NORSRAM_WriteOperation_Enable(FMC_NORSRAM_TypeDef *Device, uint32_t Bank)
 416:/home/paulo/Alexandria/STM32Cube_FW_F4_V1.23.0/Drivers/STM32F4xx_HAL_Driver/Src/stm32f4xx_ll_fmc.c **** {
 508              		.loc 1 416 1 is_stmt 1 view -0
 509              		.cfi_startproc
 510              		@ args = 0, pretend = 0, frame = 0
 511              		@ frame_needed = 0, uses_anonymous_args = 0
 512              		@ link register save eliminated.
 417:/home/paulo/Alexandria/STM32Cube_FW_F4_V1.23.0/Drivers/STM32F4xx_HAL_Driver/Src/stm32f4xx_ll_fmc.c ****   /* Check the parameters */
 418:/home/paulo/Alexandria/STM32Cube_FW_F4_V1.23.0/Drivers/STM32F4xx_HAL_Driver/Src/stm32f4xx_ll_fmc.c ****   assert_param(IS_FMC_NORSRAM_DEVICE(Device));
 513              		.loc 1 418 3 view .LVU189
 419:/home/paulo/Alexandria/STM32Cube_FW_F4_V1.23.0/Drivers/STM32F4xx_HAL_Driver/Src/stm32f4xx_ll_fmc.c ****   assert_param(IS_FMC_NORSRAM_BANK(Bank));
 514              		.loc 1 419 3 view .LVU190
 420:/home/paulo/Alexandria/STM32Cube_FW_F4_V1.23.0/Drivers/STM32F4xx_HAL_Driver/Src/stm32f4xx_ll_fmc.c ****   
 421:/home/paulo/Alexandria/STM32Cube_FW_F4_V1.23.0/Drivers/STM32F4xx_HAL_Driver/Src/stm32f4xx_ll_fmc.c ****   /* Enable write operation */
 422:/home/paulo/Alexandria/STM32Cube_FW_F4_V1.23.0/Drivers/STM32F4xx_HAL_Driver/Src/stm32f4xx_ll_fmc.c ****   Device->BTCR[Bank] |= FMC_WRITE_OPERATION_ENABLE; 
 515              		.loc 1 422 3 view .LVU191
 516              		.loc 1 422 22 is_stmt 0 view .LVU192
 517 0000 50F82130 		ldr	r3, [r0, r1, lsl #2]
 518 0004 43F48053 		orr	r3, r3, #4096
 519 0008 40F82130 		str	r3, [r0, r1, lsl #2]
 423:/home/paulo/Alexandria/STM32Cube_FW_F4_V1.23.0/Drivers/STM32F4xx_HAL_Driver/Src/stm32f4xx_ll_fmc.c **** 
 424:/home/paulo/Alexandria/STM32Cube_FW_F4_V1.23.0/Drivers/STM32F4xx_HAL_Driver/Src/stm32f4xx_ll_fmc.c ****   return HAL_OK;  
 520              		.loc 1 424 3 is_stmt 1 view .LVU193
 425:/home/paulo/Alexandria/STM32Cube_FW_F4_V1.23.0/Drivers/STM32F4xx_HAL_Driver/Src/stm32f4xx_ll_fmc.c **** }
 521              		.loc 1 425 1 is_stmt 0 view .LVU194
 522 000c 0020     		movs	r0, #0
 523              	.LVL37:
 524              		.loc 1 425 1 view .LVU195
 525 000e 7047     		bx	lr
 526              		.cfi_endproc
 527              	.LFE130:
 529              		.section	.text.FMC_NORSRAM_WriteOperation_Disable,"ax",%progbits
 530              		.align	1
 531              		.global	FMC_NORSRAM_WriteOperation_Disable
 532              		.syntax unified
 533              		.thumb
 534              		.thumb_func
 535              		.fpu fpv4-sp-d16
 537              	FMC_NORSRAM_WriteOperation_Disable:
 538              	.LVL38:
 539              	.LFB131:
 426:/home/paulo/Alexandria/STM32Cube_FW_F4_V1.23.0/Drivers/STM32F4xx_HAL_Driver/Src/stm32f4xx_ll_fmc.c **** 
 427:/home/paulo/Alexandria/STM32Cube_FW_F4_V1.23.0/Drivers/STM32F4xx_HAL_Driver/Src/stm32f4xx_ll_fmc.c **** /**
 428:/home/paulo/Alexandria/STM32Cube_FW_F4_V1.23.0/Drivers/STM32F4xx_HAL_Driver/Src/stm32f4xx_ll_fmc.c ****   * @brief  Disables dynamically FMC_NORSRAM write operation.
 429:/home/paulo/Alexandria/STM32Cube_FW_F4_V1.23.0/Drivers/STM32F4xx_HAL_Driver/Src/stm32f4xx_ll_fmc.c ****   * @param  Device Pointer to NORSRAM device instance
 430:/home/paulo/Alexandria/STM32Cube_FW_F4_V1.23.0/Drivers/STM32F4xx_HAL_Driver/Src/stm32f4xx_ll_fmc.c ****   * @param  Bank NORSRAM bank number   
 431:/home/paulo/Alexandria/STM32Cube_FW_F4_V1.23.0/Drivers/STM32F4xx_HAL_Driver/Src/stm32f4xx_ll_fmc.c ****   * @retval HAL status
 432:/home/paulo/Alexandria/STM32Cube_FW_F4_V1.23.0/Drivers/STM32F4xx_HAL_Driver/Src/stm32f4xx_ll_fmc.c ****   */
 433:/home/paulo/Alexandria/STM32Cube_FW_F4_V1.23.0/Drivers/STM32F4xx_HAL_Driver/Src/stm32f4xx_ll_fmc.c **** HAL_StatusTypeDef FMC_NORSRAM_WriteOperation_Disable(FMC_NORSRAM_TypeDef *Device, uint32_t Bank)
 434:/home/paulo/Alexandria/STM32Cube_FW_F4_V1.23.0/Drivers/STM32F4xx_HAL_Driver/Src/stm32f4xx_ll_fmc.c **** { 
 540              		.loc 1 434 1 is_stmt 1 view -0
 541              		.cfi_startproc
 542              		@ args = 0, pretend = 0, frame = 0
 543              		@ frame_needed = 0, uses_anonymous_args = 0
 544              		@ link register save eliminated.
 435:/home/paulo/Alexandria/STM32Cube_FW_F4_V1.23.0/Drivers/STM32F4xx_HAL_Driver/Src/stm32f4xx_ll_fmc.c ****   /* Check the parameters */
 436:/home/paulo/Alexandria/STM32Cube_FW_F4_V1.23.0/Drivers/STM32F4xx_HAL_Driver/Src/stm32f4xx_ll_fmc.c ****   assert_param(IS_FMC_NORSRAM_DEVICE(Device));
ARM GAS  /tmp/cc0gW0uU.s 			page 19


 545              		.loc 1 436 3 view .LVU197
 437:/home/paulo/Alexandria/STM32Cube_FW_F4_V1.23.0/Drivers/STM32F4xx_HAL_Driver/Src/stm32f4xx_ll_fmc.c ****   assert_param(IS_FMC_NORSRAM_BANK(Bank));
 546              		.loc 1 437 3 view .LVU198
 438:/home/paulo/Alexandria/STM32Cube_FW_F4_V1.23.0/Drivers/STM32F4xx_HAL_Driver/Src/stm32f4xx_ll_fmc.c ****     
 439:/home/paulo/Alexandria/STM32Cube_FW_F4_V1.23.0/Drivers/STM32F4xx_HAL_Driver/Src/stm32f4xx_ll_fmc.c ****   /* Disable write operation */
 440:/home/paulo/Alexandria/STM32Cube_FW_F4_V1.23.0/Drivers/STM32F4xx_HAL_Driver/Src/stm32f4xx_ll_fmc.c ****   Device->BTCR[Bank] &= ~FMC_WRITE_OPERATION_ENABLE; 
 547              		.loc 1 440 3 view .LVU199
 548              		.loc 1 440 22 is_stmt 0 view .LVU200
 549 0000 50F82130 		ldr	r3, [r0, r1, lsl #2]
 550 0004 23F48053 		bic	r3, r3, #4096
 551 0008 40F82130 		str	r3, [r0, r1, lsl #2]
 441:/home/paulo/Alexandria/STM32Cube_FW_F4_V1.23.0/Drivers/STM32F4xx_HAL_Driver/Src/stm32f4xx_ll_fmc.c **** 
 442:/home/paulo/Alexandria/STM32Cube_FW_F4_V1.23.0/Drivers/STM32F4xx_HAL_Driver/Src/stm32f4xx_ll_fmc.c ****   return HAL_OK;  
 552              		.loc 1 442 3 is_stmt 1 view .LVU201
 443:/home/paulo/Alexandria/STM32Cube_FW_F4_V1.23.0/Drivers/STM32F4xx_HAL_Driver/Src/stm32f4xx_ll_fmc.c **** }
 553              		.loc 1 443 1 is_stmt 0 view .LVU202
 554 000c 0020     		movs	r0, #0
 555              	.LVL39:
 556              		.loc 1 443 1 view .LVU203
 557 000e 7047     		bx	lr
 558              		.cfi_endproc
 559              	.LFE131:
 561              		.section	.text.FMC_NAND_Init,"ax",%progbits
 562              		.align	1
 563              		.global	FMC_NAND_Init
 564              		.syntax unified
 565              		.thumb
 566              		.thumb_func
 567              		.fpu fpv4-sp-d16
 569              	FMC_NAND_Init:
 570              	.LVL40:
 571              	.LFB132:
 444:/home/paulo/Alexandria/STM32Cube_FW_F4_V1.23.0/Drivers/STM32F4xx_HAL_Driver/Src/stm32f4xx_ll_fmc.c **** 
 445:/home/paulo/Alexandria/STM32Cube_FW_F4_V1.23.0/Drivers/STM32F4xx_HAL_Driver/Src/stm32f4xx_ll_fmc.c **** /**
 446:/home/paulo/Alexandria/STM32Cube_FW_F4_V1.23.0/Drivers/STM32F4xx_HAL_Driver/Src/stm32f4xx_ll_fmc.c ****   * @}
 447:/home/paulo/Alexandria/STM32Cube_FW_F4_V1.23.0/Drivers/STM32F4xx_HAL_Driver/Src/stm32f4xx_ll_fmc.c ****   */
 448:/home/paulo/Alexandria/STM32Cube_FW_F4_V1.23.0/Drivers/STM32F4xx_HAL_Driver/Src/stm32f4xx_ll_fmc.c **** 
 449:/home/paulo/Alexandria/STM32Cube_FW_F4_V1.23.0/Drivers/STM32F4xx_HAL_Driver/Src/stm32f4xx_ll_fmc.c **** /**
 450:/home/paulo/Alexandria/STM32Cube_FW_F4_V1.23.0/Drivers/STM32F4xx_HAL_Driver/Src/stm32f4xx_ll_fmc.c ****   * @}
 451:/home/paulo/Alexandria/STM32Cube_FW_F4_V1.23.0/Drivers/STM32F4xx_HAL_Driver/Src/stm32f4xx_ll_fmc.c ****   */
 452:/home/paulo/Alexandria/STM32Cube_FW_F4_V1.23.0/Drivers/STM32F4xx_HAL_Driver/Src/stm32f4xx_ll_fmc.c **** 
 453:/home/paulo/Alexandria/STM32Cube_FW_F4_V1.23.0/Drivers/STM32F4xx_HAL_Driver/Src/stm32f4xx_ll_fmc.c **** /** @addtogroup FMC_LL_NAND
 454:/home/paulo/Alexandria/STM32Cube_FW_F4_V1.23.0/Drivers/STM32F4xx_HAL_Driver/Src/stm32f4xx_ll_fmc.c ****   * @brief    NAND Controller functions 
 455:/home/paulo/Alexandria/STM32Cube_FW_F4_V1.23.0/Drivers/STM32F4xx_HAL_Driver/Src/stm32f4xx_ll_fmc.c ****   *
 456:/home/paulo/Alexandria/STM32Cube_FW_F4_V1.23.0/Drivers/STM32F4xx_HAL_Driver/Src/stm32f4xx_ll_fmc.c ****   @verbatim 
 457:/home/paulo/Alexandria/STM32Cube_FW_F4_V1.23.0/Drivers/STM32F4xx_HAL_Driver/Src/stm32f4xx_ll_fmc.c ****   ==============================================================================
 458:/home/paulo/Alexandria/STM32Cube_FW_F4_V1.23.0/Drivers/STM32F4xx_HAL_Driver/Src/stm32f4xx_ll_fmc.c ****                     ##### How to use NAND device driver #####
 459:/home/paulo/Alexandria/STM32Cube_FW_F4_V1.23.0/Drivers/STM32F4xx_HAL_Driver/Src/stm32f4xx_ll_fmc.c ****   ==============================================================================
 460:/home/paulo/Alexandria/STM32Cube_FW_F4_V1.23.0/Drivers/STM32F4xx_HAL_Driver/Src/stm32f4xx_ll_fmc.c ****   [..]
 461:/home/paulo/Alexandria/STM32Cube_FW_F4_V1.23.0/Drivers/STM32F4xx_HAL_Driver/Src/stm32f4xx_ll_fmc.c ****     This driver contains a set of APIs to interface with the FMC NAND banks in order
 462:/home/paulo/Alexandria/STM32Cube_FW_F4_V1.23.0/Drivers/STM32F4xx_HAL_Driver/Src/stm32f4xx_ll_fmc.c ****     to run the NAND external devices.
 463:/home/paulo/Alexandria/STM32Cube_FW_F4_V1.23.0/Drivers/STM32F4xx_HAL_Driver/Src/stm32f4xx_ll_fmc.c ****   
 464:/home/paulo/Alexandria/STM32Cube_FW_F4_V1.23.0/Drivers/STM32F4xx_HAL_Driver/Src/stm32f4xx_ll_fmc.c ****     (+) FMC NAND bank reset using the function FMC_NAND_DeInit() 
 465:/home/paulo/Alexandria/STM32Cube_FW_F4_V1.23.0/Drivers/STM32F4xx_HAL_Driver/Src/stm32f4xx_ll_fmc.c ****     (+) FMC NAND bank control configuration using the function FMC_NAND_Init()
 466:/home/paulo/Alexandria/STM32Cube_FW_F4_V1.23.0/Drivers/STM32F4xx_HAL_Driver/Src/stm32f4xx_ll_fmc.c ****     (+) FMC NAND bank common space timing configuration using the function 
 467:/home/paulo/Alexandria/STM32Cube_FW_F4_V1.23.0/Drivers/STM32F4xx_HAL_Driver/Src/stm32f4xx_ll_fmc.c ****         FMC_NAND_CommonSpace_Timing_Init()
 468:/home/paulo/Alexandria/STM32Cube_FW_F4_V1.23.0/Drivers/STM32F4xx_HAL_Driver/Src/stm32f4xx_ll_fmc.c ****     (+) FMC NAND bank attribute space timing configuration using the function 
ARM GAS  /tmp/cc0gW0uU.s 			page 20


 469:/home/paulo/Alexandria/STM32Cube_FW_F4_V1.23.0/Drivers/STM32F4xx_HAL_Driver/Src/stm32f4xx_ll_fmc.c ****         FMC_NAND_AttributeSpace_Timing_Init()
 470:/home/paulo/Alexandria/STM32Cube_FW_F4_V1.23.0/Drivers/STM32F4xx_HAL_Driver/Src/stm32f4xx_ll_fmc.c ****     (+) FMC NAND bank enable/disable ECC correction feature using the functions
 471:/home/paulo/Alexandria/STM32Cube_FW_F4_V1.23.0/Drivers/STM32F4xx_HAL_Driver/Src/stm32f4xx_ll_fmc.c ****         FMC_NAND_ECC_Enable()/FMC_NAND_ECC_Disable()
 472:/home/paulo/Alexandria/STM32Cube_FW_F4_V1.23.0/Drivers/STM32F4xx_HAL_Driver/Src/stm32f4xx_ll_fmc.c ****     (+) FMC NAND bank get ECC correction code using the function FMC_NAND_GetECC()    
 473:/home/paulo/Alexandria/STM32Cube_FW_F4_V1.23.0/Drivers/STM32F4xx_HAL_Driver/Src/stm32f4xx_ll_fmc.c **** 
 474:/home/paulo/Alexandria/STM32Cube_FW_F4_V1.23.0/Drivers/STM32F4xx_HAL_Driver/Src/stm32f4xx_ll_fmc.c **** @endverbatim
 475:/home/paulo/Alexandria/STM32Cube_FW_F4_V1.23.0/Drivers/STM32F4xx_HAL_Driver/Src/stm32f4xx_ll_fmc.c ****   * @{
 476:/home/paulo/Alexandria/STM32Cube_FW_F4_V1.23.0/Drivers/STM32F4xx_HAL_Driver/Src/stm32f4xx_ll_fmc.c ****   */
 477:/home/paulo/Alexandria/STM32Cube_FW_F4_V1.23.0/Drivers/STM32F4xx_HAL_Driver/Src/stm32f4xx_ll_fmc.c ****  
 478:/home/paulo/Alexandria/STM32Cube_FW_F4_V1.23.0/Drivers/STM32F4xx_HAL_Driver/Src/stm32f4xx_ll_fmc.c **** #if defined(STM32F446xx) || defined(STM32F469xx) || defined(STM32F479xx)
 479:/home/paulo/Alexandria/STM32Cube_FW_F4_V1.23.0/Drivers/STM32F4xx_HAL_Driver/Src/stm32f4xx_ll_fmc.c **** /** @defgroup HAL_FMC_NAND_Group1 Initialization/de-initialization functions 
 480:/home/paulo/Alexandria/STM32Cube_FW_F4_V1.23.0/Drivers/STM32F4xx_HAL_Driver/Src/stm32f4xx_ll_fmc.c ****  *  @brief    Initialization and Configuration functions 
 481:/home/paulo/Alexandria/STM32Cube_FW_F4_V1.23.0/Drivers/STM32F4xx_HAL_Driver/Src/stm32f4xx_ll_fmc.c ****  *
 482:/home/paulo/Alexandria/STM32Cube_FW_F4_V1.23.0/Drivers/STM32F4xx_HAL_Driver/Src/stm32f4xx_ll_fmc.c **** @verbatim    
 483:/home/paulo/Alexandria/STM32Cube_FW_F4_V1.23.0/Drivers/STM32F4xx_HAL_Driver/Src/stm32f4xx_ll_fmc.c ****   ==============================================================================
 484:/home/paulo/Alexandria/STM32Cube_FW_F4_V1.23.0/Drivers/STM32F4xx_HAL_Driver/Src/stm32f4xx_ll_fmc.c ****               ##### Initialization and de_initialization functions #####
 485:/home/paulo/Alexandria/STM32Cube_FW_F4_V1.23.0/Drivers/STM32F4xx_HAL_Driver/Src/stm32f4xx_ll_fmc.c ****   ==============================================================================
 486:/home/paulo/Alexandria/STM32Cube_FW_F4_V1.23.0/Drivers/STM32F4xx_HAL_Driver/Src/stm32f4xx_ll_fmc.c ****   [..]  
 487:/home/paulo/Alexandria/STM32Cube_FW_F4_V1.23.0/Drivers/STM32F4xx_HAL_Driver/Src/stm32f4xx_ll_fmc.c ****     This section provides functions allowing to:
 488:/home/paulo/Alexandria/STM32Cube_FW_F4_V1.23.0/Drivers/STM32F4xx_HAL_Driver/Src/stm32f4xx_ll_fmc.c ****     (+) Initialize and configure the FMC NAND interface
 489:/home/paulo/Alexandria/STM32Cube_FW_F4_V1.23.0/Drivers/STM32F4xx_HAL_Driver/Src/stm32f4xx_ll_fmc.c ****     (+) De-initialize the FMC NAND interface 
 490:/home/paulo/Alexandria/STM32Cube_FW_F4_V1.23.0/Drivers/STM32F4xx_HAL_Driver/Src/stm32f4xx_ll_fmc.c ****     (+) Configure the FMC clock and associated GPIOs
 491:/home/paulo/Alexandria/STM32Cube_FW_F4_V1.23.0/Drivers/STM32F4xx_HAL_Driver/Src/stm32f4xx_ll_fmc.c ****         
 492:/home/paulo/Alexandria/STM32Cube_FW_F4_V1.23.0/Drivers/STM32F4xx_HAL_Driver/Src/stm32f4xx_ll_fmc.c **** @endverbatim
 493:/home/paulo/Alexandria/STM32Cube_FW_F4_V1.23.0/Drivers/STM32F4xx_HAL_Driver/Src/stm32f4xx_ll_fmc.c ****   * @{
 494:/home/paulo/Alexandria/STM32Cube_FW_F4_V1.23.0/Drivers/STM32F4xx_HAL_Driver/Src/stm32f4xx_ll_fmc.c ****   */
 495:/home/paulo/Alexandria/STM32Cube_FW_F4_V1.23.0/Drivers/STM32F4xx_HAL_Driver/Src/stm32f4xx_ll_fmc.c **** 
 496:/home/paulo/Alexandria/STM32Cube_FW_F4_V1.23.0/Drivers/STM32F4xx_HAL_Driver/Src/stm32f4xx_ll_fmc.c **** /**
 497:/home/paulo/Alexandria/STM32Cube_FW_F4_V1.23.0/Drivers/STM32F4xx_HAL_Driver/Src/stm32f4xx_ll_fmc.c ****   * @brief  Initializes the FMC_NAND device according to the specified
 498:/home/paulo/Alexandria/STM32Cube_FW_F4_V1.23.0/Drivers/STM32F4xx_HAL_Driver/Src/stm32f4xx_ll_fmc.c ****   *         control parameters in the FMC_NAND_HandleTypeDef
 499:/home/paulo/Alexandria/STM32Cube_FW_F4_V1.23.0/Drivers/STM32F4xx_HAL_Driver/Src/stm32f4xx_ll_fmc.c ****   * @param  Device Pointer to NAND device instance
 500:/home/paulo/Alexandria/STM32Cube_FW_F4_V1.23.0/Drivers/STM32F4xx_HAL_Driver/Src/stm32f4xx_ll_fmc.c ****   * @param  Init Pointer to NAND Initialization structure
 501:/home/paulo/Alexandria/STM32Cube_FW_F4_V1.23.0/Drivers/STM32F4xx_HAL_Driver/Src/stm32f4xx_ll_fmc.c ****   * @retval HAL status
 502:/home/paulo/Alexandria/STM32Cube_FW_F4_V1.23.0/Drivers/STM32F4xx_HAL_Driver/Src/stm32f4xx_ll_fmc.c ****   */
 503:/home/paulo/Alexandria/STM32Cube_FW_F4_V1.23.0/Drivers/STM32F4xx_HAL_Driver/Src/stm32f4xx_ll_fmc.c **** HAL_StatusTypeDef FMC_NAND_Init(FMC_NAND_TypeDef *Device, FMC_NAND_InitTypeDef *Init)
 504:/home/paulo/Alexandria/STM32Cube_FW_F4_V1.23.0/Drivers/STM32F4xx_HAL_Driver/Src/stm32f4xx_ll_fmc.c **** {
 572              		.loc 1 504 1 is_stmt 1 view -0
 573              		.cfi_startproc
 574              		@ args = 0, pretend = 0, frame = 0
 575              		@ frame_needed = 0, uses_anonymous_args = 0
 576              		@ link register save eliminated.
 577              		.loc 1 504 1 is_stmt 0 view .LVU205
 578 0000 10B4     		push	{r4}
 579              	.LCFI10:
 580              		.cfi_def_cfa_offset 4
 581              		.cfi_offset 4, -4
 505:/home/paulo/Alexandria/STM32Cube_FW_F4_V1.23.0/Drivers/STM32F4xx_HAL_Driver/Src/stm32f4xx_ll_fmc.c ****   uint32_t tmpr  = 0U; 
 582              		.loc 1 505 3 is_stmt 1 view .LVU206
 583              	.LVL41:
 506:/home/paulo/Alexandria/STM32Cube_FW_F4_V1.23.0/Drivers/STM32F4xx_HAL_Driver/Src/stm32f4xx_ll_fmc.c ****     
 507:/home/paulo/Alexandria/STM32Cube_FW_F4_V1.23.0/Drivers/STM32F4xx_HAL_Driver/Src/stm32f4xx_ll_fmc.c ****   /* Check the parameters */
 508:/home/paulo/Alexandria/STM32Cube_FW_F4_V1.23.0/Drivers/STM32F4xx_HAL_Driver/Src/stm32f4xx_ll_fmc.c ****   assert_param(IS_FMC_NAND_DEVICE(Device));
 584              		.loc 1 508 3 view .LVU207
 509:/home/paulo/Alexandria/STM32Cube_FW_F4_V1.23.0/Drivers/STM32F4xx_HAL_Driver/Src/stm32f4xx_ll_fmc.c ****   assert_param(IS_FMC_NAND_BANK(Init->NandBank));
 585              		.loc 1 509 3 view .LVU208
 510:/home/paulo/Alexandria/STM32Cube_FW_F4_V1.23.0/Drivers/STM32F4xx_HAL_Driver/Src/stm32f4xx_ll_fmc.c ****   assert_param(IS_FMC_WAIT_FEATURE(Init->Waitfeature));
 586              		.loc 1 510 3 view .LVU209
ARM GAS  /tmp/cc0gW0uU.s 			page 21


 511:/home/paulo/Alexandria/STM32Cube_FW_F4_V1.23.0/Drivers/STM32F4xx_HAL_Driver/Src/stm32f4xx_ll_fmc.c ****   assert_param(IS_FMC_NAND_MEMORY_WIDTH(Init->MemoryDataWidth));
 587              		.loc 1 511 3 view .LVU210
 512:/home/paulo/Alexandria/STM32Cube_FW_F4_V1.23.0/Drivers/STM32F4xx_HAL_Driver/Src/stm32f4xx_ll_fmc.c ****   assert_param(IS_FMC_ECC_STATE(Init->EccComputation));
 588              		.loc 1 512 3 view .LVU211
 513:/home/paulo/Alexandria/STM32Cube_FW_F4_V1.23.0/Drivers/STM32F4xx_HAL_Driver/Src/stm32f4xx_ll_fmc.c ****   assert_param(IS_FMC_ECCPAGE_SIZE(Init->ECCPageSize));
 589              		.loc 1 513 3 view .LVU212
 514:/home/paulo/Alexandria/STM32Cube_FW_F4_V1.23.0/Drivers/STM32F4xx_HAL_Driver/Src/stm32f4xx_ll_fmc.c ****   assert_param(IS_FMC_TCLR_TIME(Init->TCLRSetupTime));
 590              		.loc 1 514 3 view .LVU213
 515:/home/paulo/Alexandria/STM32Cube_FW_F4_V1.23.0/Drivers/STM32F4xx_HAL_Driver/Src/stm32f4xx_ll_fmc.c ****   assert_param(IS_FMC_TAR_TIME(Init->TARSetupTime));   
 591              		.loc 1 515 3 view .LVU214
 516:/home/paulo/Alexandria/STM32Cube_FW_F4_V1.23.0/Drivers/STM32F4xx_HAL_Driver/Src/stm32f4xx_ll_fmc.c ****   
 517:/home/paulo/Alexandria/STM32Cube_FW_F4_V1.23.0/Drivers/STM32F4xx_HAL_Driver/Src/stm32f4xx_ll_fmc.c ****   /* Get the NAND bank register value */
 518:/home/paulo/Alexandria/STM32Cube_FW_F4_V1.23.0/Drivers/STM32F4xx_HAL_Driver/Src/stm32f4xx_ll_fmc.c ****   tmpr = Device->PCR;
 592              		.loc 1 518 3 view .LVU215
 593              		.loc 1 518 8 is_stmt 0 view .LVU216
 594 0002 0368     		ldr	r3, [r0]
 595              	.LVL42:
 519:/home/paulo/Alexandria/STM32Cube_FW_F4_V1.23.0/Drivers/STM32F4xx_HAL_Driver/Src/stm32f4xx_ll_fmc.c ****   
 520:/home/paulo/Alexandria/STM32Cube_FW_F4_V1.23.0/Drivers/STM32F4xx_HAL_Driver/Src/stm32f4xx_ll_fmc.c ****   /* Clear PWAITEN, PBKEN, PTYP, PWID, ECCEN, TCLR, TAR and ECCPS bits */
 521:/home/paulo/Alexandria/STM32Cube_FW_F4_V1.23.0/Drivers/STM32F4xx_HAL_Driver/Src/stm32f4xx_ll_fmc.c ****   tmpr &= ((uint32_t)~(FMC_PCR_PWAITEN  | FMC_PCR_PBKEN | FMC_PCR_PTYP | \
 596              		.loc 1 521 3 is_stmt 1 view .LVU217
 597              		.loc 1 521 8 is_stmt 0 view .LVU218
 598 0004 0B4A     		ldr	r2, .L31
 599 0006 1A40     		ands	r2, r2, r3
 600              	.LVL43:
 522:/home/paulo/Alexandria/STM32Cube_FW_F4_V1.23.0/Drivers/STM32F4xx_HAL_Driver/Src/stm32f4xx_ll_fmc.c ****                        FMC_PCR_PWID | FMC_PCR_ECCEN | FMC_PCR_TCLR | \
 523:/home/paulo/Alexandria/STM32Cube_FW_F4_V1.23.0/Drivers/STM32F4xx_HAL_Driver/Src/stm32f4xx_ll_fmc.c ****                        FMC_PCR_TAR | FMC_PCR_ECCPS));  
 524:/home/paulo/Alexandria/STM32Cube_FW_F4_V1.23.0/Drivers/STM32F4xx_HAL_Driver/Src/stm32f4xx_ll_fmc.c ****   
 525:/home/paulo/Alexandria/STM32Cube_FW_F4_V1.23.0/Drivers/STM32F4xx_HAL_Driver/Src/stm32f4xx_ll_fmc.c ****   /* Set NAND device control parameters */
 526:/home/paulo/Alexandria/STM32Cube_FW_F4_V1.23.0/Drivers/STM32F4xx_HAL_Driver/Src/stm32f4xx_ll_fmc.c ****   tmpr |= (uint32_t)(Init->Waitfeature                |\
 601              		.loc 1 526 3 is_stmt 1 view .LVU219
 602              		.loc 1 526 26 is_stmt 0 view .LVU220
 603 0008 4B68     		ldr	r3, [r1, #4]
 527:/home/paulo/Alexandria/STM32Cube_FW_F4_V1.23.0/Drivers/STM32F4xx_HAL_Driver/Src/stm32f4xx_ll_fmc.c ****                      FMC_PCR_MEMORY_TYPE_NAND         |\
 528:/home/paulo/Alexandria/STM32Cube_FW_F4_V1.23.0/Drivers/STM32F4xx_HAL_Driver/Src/stm32f4xx_ll_fmc.c ****                      Init->MemoryDataWidth            |\
 604              		.loc 1 528 26 view .LVU221
 605 000a 8C68     		ldr	r4, [r1, #8]
 527:/home/paulo/Alexandria/STM32Cube_FW_F4_V1.23.0/Drivers/STM32F4xx_HAL_Driver/Src/stm32f4xx_ll_fmc.c ****                      FMC_PCR_MEMORY_TYPE_NAND         |\
 606              		.loc 1 527 55 view .LVU222
 607 000c 2343     		orrs	r3, r3, r4
 529:/home/paulo/Alexandria/STM32Cube_FW_F4_V1.23.0/Drivers/STM32F4xx_HAL_Driver/Src/stm32f4xx_ll_fmc.c ****                      Init->EccComputation             |\
 608              		.loc 1 529 26 view .LVU223
 609 000e CC68     		ldr	r4, [r1, #12]
 528:/home/paulo/Alexandria/STM32Cube_FW_F4_V1.23.0/Drivers/STM32F4xx_HAL_Driver/Src/stm32f4xx_ll_fmc.c ****                      Init->EccComputation             |\
 610              		.loc 1 528 55 view .LVU224
 611 0010 2343     		orrs	r3, r3, r4
 530:/home/paulo/Alexandria/STM32Cube_FW_F4_V1.23.0/Drivers/STM32F4xx_HAL_Driver/Src/stm32f4xx_ll_fmc.c ****                      Init->ECCPageSize                |\
 612              		.loc 1 530 26 view .LVU225
 613 0012 0C69     		ldr	r4, [r1, #16]
 529:/home/paulo/Alexandria/STM32Cube_FW_F4_V1.23.0/Drivers/STM32F4xx_HAL_Driver/Src/stm32f4xx_ll_fmc.c ****                      Init->EccComputation             |\
 614              		.loc 1 529 55 view .LVU226
 615 0014 2343     		orrs	r3, r3, r4
 531:/home/paulo/Alexandria/STM32Cube_FW_F4_V1.23.0/Drivers/STM32F4xx_HAL_Driver/Src/stm32f4xx_ll_fmc.c ****                      ((Init->TCLRSetupTime) << 9U)    |\
 616              		.loc 1 531 28 view .LVU227
 617 0016 4C69     		ldr	r4, [r1, #20]
 530:/home/paulo/Alexandria/STM32Cube_FW_F4_V1.23.0/Drivers/STM32F4xx_HAL_Driver/Src/stm32f4xx_ll_fmc.c ****                      Init->ECCPageSize                |\
 618              		.loc 1 530 55 view .LVU228
ARM GAS  /tmp/cc0gW0uU.s 			page 22


 619 0018 43EA4423 		orr	r3, r3, r4, lsl #9
 532:/home/paulo/Alexandria/STM32Cube_FW_F4_V1.23.0/Drivers/STM32F4xx_HAL_Driver/Src/stm32f4xx_ll_fmc.c ****                      ((Init->TARSetupTime) << 13U));
 620              		.loc 1 532 28 view .LVU229
 621 001c 8969     		ldr	r1, [r1, #24]
 622              	.LVL44:
 526:/home/paulo/Alexandria/STM32Cube_FW_F4_V1.23.0/Drivers/STM32F4xx_HAL_Driver/Src/stm32f4xx_ll_fmc.c ****                      FMC_PCR_MEMORY_TYPE_NAND         |\
 623              		.loc 1 526 11 view .LVU230
 624 001e 43EA4133 		orr	r3, r3, r1, lsl #13
 526:/home/paulo/Alexandria/STM32Cube_FW_F4_V1.23.0/Drivers/STM32F4xx_HAL_Driver/Src/stm32f4xx_ll_fmc.c ****                      FMC_PCR_MEMORY_TYPE_NAND         |\
 625              		.loc 1 526 8 view .LVU231
 626 0022 1343     		orrs	r3, r3, r2
 627 0024 43F00803 		orr	r3, r3, #8
 628              	.LVL45:
 533:/home/paulo/Alexandria/STM32Cube_FW_F4_V1.23.0/Drivers/STM32F4xx_HAL_Driver/Src/stm32f4xx_ll_fmc.c **** 
 534:/home/paulo/Alexandria/STM32Cube_FW_F4_V1.23.0/Drivers/STM32F4xx_HAL_Driver/Src/stm32f4xx_ll_fmc.c ****   /* NAND bank registers configuration */
 535:/home/paulo/Alexandria/STM32Cube_FW_F4_V1.23.0/Drivers/STM32F4xx_HAL_Driver/Src/stm32f4xx_ll_fmc.c ****   Device->PCR  = tmpr;
 629              		.loc 1 535 3 is_stmt 1 view .LVU232
 630              		.loc 1 535 16 is_stmt 0 view .LVU233
 631 0028 0360     		str	r3, [r0]
 536:/home/paulo/Alexandria/STM32Cube_FW_F4_V1.23.0/Drivers/STM32F4xx_HAL_Driver/Src/stm32f4xx_ll_fmc.c **** 
 537:/home/paulo/Alexandria/STM32Cube_FW_F4_V1.23.0/Drivers/STM32F4xx_HAL_Driver/Src/stm32f4xx_ll_fmc.c ****   return HAL_OK;
 632              		.loc 1 537 3 is_stmt 1 view .LVU234
 538:/home/paulo/Alexandria/STM32Cube_FW_F4_V1.23.0/Drivers/STM32F4xx_HAL_Driver/Src/stm32f4xx_ll_fmc.c **** }
 633              		.loc 1 538 1 is_stmt 0 view .LVU235
 634 002a 0020     		movs	r0, #0
 635              	.LVL46:
 636              		.loc 1 538 1 view .LVU236
 637 002c 5DF8044B 		ldr	r4, [sp], #4
 638              	.LCFI11:
 639              		.cfi_restore 4
 640              		.cfi_def_cfa_offset 0
 641 0030 7047     		bx	lr
 642              	.L32:
 643 0032 00BF     		.align	2
 644              	.L31:
 645 0034 8101F0FF 		.word	-1048191
 646              		.cfi_endproc
 647              	.LFE132:
 649              		.section	.text.FMC_NAND_CommonSpace_Timing_Init,"ax",%progbits
 650              		.align	1
 651              		.global	FMC_NAND_CommonSpace_Timing_Init
 652              		.syntax unified
 653              		.thumb
 654              		.thumb_func
 655              		.fpu fpv4-sp-d16
 657              	FMC_NAND_CommonSpace_Timing_Init:
 658              	.LVL47:
 659              	.LFB133:
 539:/home/paulo/Alexandria/STM32Cube_FW_F4_V1.23.0/Drivers/STM32F4xx_HAL_Driver/Src/stm32f4xx_ll_fmc.c **** 
 540:/home/paulo/Alexandria/STM32Cube_FW_F4_V1.23.0/Drivers/STM32F4xx_HAL_Driver/Src/stm32f4xx_ll_fmc.c **** /**
 541:/home/paulo/Alexandria/STM32Cube_FW_F4_V1.23.0/Drivers/STM32F4xx_HAL_Driver/Src/stm32f4xx_ll_fmc.c ****   * @brief  Initializes the FMC_NAND Common space Timing according to the specified
 542:/home/paulo/Alexandria/STM32Cube_FW_F4_V1.23.0/Drivers/STM32F4xx_HAL_Driver/Src/stm32f4xx_ll_fmc.c ****   *         parameters in the FMC_NAND_PCC_TimingTypeDef
 543:/home/paulo/Alexandria/STM32Cube_FW_F4_V1.23.0/Drivers/STM32F4xx_HAL_Driver/Src/stm32f4xx_ll_fmc.c ****   * @param  Device Pointer to NAND device instance
 544:/home/paulo/Alexandria/STM32Cube_FW_F4_V1.23.0/Drivers/STM32F4xx_HAL_Driver/Src/stm32f4xx_ll_fmc.c ****   * @param  Timing Pointer to NAND timing structure
 545:/home/paulo/Alexandria/STM32Cube_FW_F4_V1.23.0/Drivers/STM32F4xx_HAL_Driver/Src/stm32f4xx_ll_fmc.c ****   * @param  Bank NAND bank number   
 546:/home/paulo/Alexandria/STM32Cube_FW_F4_V1.23.0/Drivers/STM32F4xx_HAL_Driver/Src/stm32f4xx_ll_fmc.c ****   * @retval HAL status
 547:/home/paulo/Alexandria/STM32Cube_FW_F4_V1.23.0/Drivers/STM32F4xx_HAL_Driver/Src/stm32f4xx_ll_fmc.c ****   */
ARM GAS  /tmp/cc0gW0uU.s 			page 23


 548:/home/paulo/Alexandria/STM32Cube_FW_F4_V1.23.0/Drivers/STM32F4xx_HAL_Driver/Src/stm32f4xx_ll_fmc.c **** HAL_StatusTypeDef FMC_NAND_CommonSpace_Timing_Init(FMC_NAND_TypeDef *Device, FMC_NAND_PCC_TimingTyp
 549:/home/paulo/Alexandria/STM32Cube_FW_F4_V1.23.0/Drivers/STM32F4xx_HAL_Driver/Src/stm32f4xx_ll_fmc.c **** {
 660              		.loc 1 549 1 is_stmt 1 view -0
 661              		.cfi_startproc
 662              		@ args = 0, pretend = 0, frame = 0
 663              		@ frame_needed = 0, uses_anonymous_args = 0
 664              		@ link register save eliminated.
 550:/home/paulo/Alexandria/STM32Cube_FW_F4_V1.23.0/Drivers/STM32F4xx_HAL_Driver/Src/stm32f4xx_ll_fmc.c ****   uint32_t tmpr = 0U;  
 665              		.loc 1 550 3 view .LVU238
 551:/home/paulo/Alexandria/STM32Cube_FW_F4_V1.23.0/Drivers/STM32F4xx_HAL_Driver/Src/stm32f4xx_ll_fmc.c ****   
 552:/home/paulo/Alexandria/STM32Cube_FW_F4_V1.23.0/Drivers/STM32F4xx_HAL_Driver/Src/stm32f4xx_ll_fmc.c ****   /* Check the parameters */
 553:/home/paulo/Alexandria/STM32Cube_FW_F4_V1.23.0/Drivers/STM32F4xx_HAL_Driver/Src/stm32f4xx_ll_fmc.c ****   assert_param(IS_FMC_NAND_DEVICE(Device));
 666              		.loc 1 553 3 view .LVU239
 554:/home/paulo/Alexandria/STM32Cube_FW_F4_V1.23.0/Drivers/STM32F4xx_HAL_Driver/Src/stm32f4xx_ll_fmc.c ****   assert_param(IS_FMC_SETUP_TIME(Timing->SetupTime));
 667              		.loc 1 554 3 view .LVU240
 555:/home/paulo/Alexandria/STM32Cube_FW_F4_V1.23.0/Drivers/STM32F4xx_HAL_Driver/Src/stm32f4xx_ll_fmc.c ****   assert_param(IS_FMC_WAIT_TIME(Timing->WaitSetupTime));
 668              		.loc 1 555 3 view .LVU241
 556:/home/paulo/Alexandria/STM32Cube_FW_F4_V1.23.0/Drivers/STM32F4xx_HAL_Driver/Src/stm32f4xx_ll_fmc.c ****   assert_param(IS_FMC_HOLD_TIME(Timing->HoldSetupTime));
 669              		.loc 1 556 3 view .LVU242
 557:/home/paulo/Alexandria/STM32Cube_FW_F4_V1.23.0/Drivers/STM32F4xx_HAL_Driver/Src/stm32f4xx_ll_fmc.c ****   assert_param(IS_FMC_HIZ_TIME(Timing->HiZSetupTime));
 670              		.loc 1 557 3 view .LVU243
 558:/home/paulo/Alexandria/STM32Cube_FW_F4_V1.23.0/Drivers/STM32F4xx_HAL_Driver/Src/stm32f4xx_ll_fmc.c ****   assert_param(IS_FMC_NAND_BANK(Bank));
 671              		.loc 1 558 3 view .LVU244
 559:/home/paulo/Alexandria/STM32Cube_FW_F4_V1.23.0/Drivers/STM32F4xx_HAL_Driver/Src/stm32f4xx_ll_fmc.c ****   
 560:/home/paulo/Alexandria/STM32Cube_FW_F4_V1.23.0/Drivers/STM32F4xx_HAL_Driver/Src/stm32f4xx_ll_fmc.c ****   /* Get the NAND bank 2 register value */
 561:/home/paulo/Alexandria/STM32Cube_FW_F4_V1.23.0/Drivers/STM32F4xx_HAL_Driver/Src/stm32f4xx_ll_fmc.c ****   tmpr = Device->PMEM;
 672              		.loc 1 561 3 view .LVU245
 673              		.loc 1 561 8 is_stmt 0 view .LVU246
 674 0000 8368     		ldr	r3, [r0, #8]
 675              	.LVL48:
 562:/home/paulo/Alexandria/STM32Cube_FW_F4_V1.23.0/Drivers/STM32F4xx_HAL_Driver/Src/stm32f4xx_ll_fmc.c **** 
 563:/home/paulo/Alexandria/STM32Cube_FW_F4_V1.23.0/Drivers/STM32F4xx_HAL_Driver/Src/stm32f4xx_ll_fmc.c ****   
 564:/home/paulo/Alexandria/STM32Cube_FW_F4_V1.23.0/Drivers/STM32F4xx_HAL_Driver/Src/stm32f4xx_ll_fmc.c ****   /* Clear MEMSETx, MEMWAITx, MEMHOLDx and MEMHIZx bits */
 565:/home/paulo/Alexandria/STM32Cube_FW_F4_V1.23.0/Drivers/STM32F4xx_HAL_Driver/Src/stm32f4xx_ll_fmc.c ****   tmpr &= ((uint32_t)~(FMC_PMEM_MEMSET2  | FMC_PMEM_MEMWAIT2 | FMC_PMEM_MEMHOLD2 | \
 676              		.loc 1 565 3 is_stmt 1 view .LVU247
 566:/home/paulo/Alexandria/STM32Cube_FW_F4_V1.23.0/Drivers/STM32F4xx_HAL_Driver/Src/stm32f4xx_ll_fmc.c ****                        FMC_PMEM_MEMHIZ2)); 
 567:/home/paulo/Alexandria/STM32Cube_FW_F4_V1.23.0/Drivers/STM32F4xx_HAL_Driver/Src/stm32f4xx_ll_fmc.c ****   
 568:/home/paulo/Alexandria/STM32Cube_FW_F4_V1.23.0/Drivers/STM32F4xx_HAL_Driver/Src/stm32f4xx_ll_fmc.c ****   /* Set FMC_NAND device timing parameters */
 569:/home/paulo/Alexandria/STM32Cube_FW_F4_V1.23.0/Drivers/STM32F4xx_HAL_Driver/Src/stm32f4xx_ll_fmc.c ****   tmpr |= (uint32_t)(Timing->SetupTime                     |\
 677              		.loc 1 569 3 view .LVU248
 678              		.loc 1 569 28 is_stmt 0 view .LVU249
 679 0002 0B68     		ldr	r3, [r1]
 570:/home/paulo/Alexandria/STM32Cube_FW_F4_V1.23.0/Drivers/STM32F4xx_HAL_Driver/Src/stm32f4xx_ll_fmc.c ****                        ((Timing->WaitSetupTime) << 8U)     |\
 680              		.loc 1 570 32 view .LVU250
 681 0004 4A68     		ldr	r2, [r1, #4]
 682              	.LVL49:
 569:/home/paulo/Alexandria/STM32Cube_FW_F4_V1.23.0/Drivers/STM32F4xx_HAL_Driver/Src/stm32f4xx_ll_fmc.c ****                        ((Timing->WaitSetupTime) << 8U)     |\
 683              		.loc 1 569 60 view .LVU251
 684 0006 43EA0223 		orr	r3, r3, r2, lsl #8
 571:/home/paulo/Alexandria/STM32Cube_FW_F4_V1.23.0/Drivers/STM32F4xx_HAL_Driver/Src/stm32f4xx_ll_fmc.c ****                        ((Timing->HoldSetupTime) << 16U)    |\
 685              		.loc 1 571 32 view .LVU252
 686 000a 8A68     		ldr	r2, [r1, #8]
 570:/home/paulo/Alexandria/STM32Cube_FW_F4_V1.23.0/Drivers/STM32F4xx_HAL_Driver/Src/stm32f4xx_ll_fmc.c ****                        ((Timing->WaitSetupTime) << 8U)     |\
 687              		.loc 1 570 60 view .LVU253
 688 000c 43EA0243 		orr	r3, r3, r2, lsl #16
 572:/home/paulo/Alexandria/STM32Cube_FW_F4_V1.23.0/Drivers/STM32F4xx_HAL_Driver/Src/stm32f4xx_ll_fmc.c ****                        ((Timing->HiZSetupTime) << 24U)
 689              		.loc 1 572 32 view .LVU254
ARM GAS  /tmp/cc0gW0uU.s 			page 24


 690 0010 CA68     		ldr	r2, [r1, #12]
 571:/home/paulo/Alexandria/STM32Cube_FW_F4_V1.23.0/Drivers/STM32F4xx_HAL_Driver/Src/stm32f4xx_ll_fmc.c ****                        ((Timing->HoldSetupTime) << 16U)    |\
 691              		.loc 1 571 60 view .LVU255
 692 0012 43EA0263 		orr	r3, r3, r2, lsl #24
 693              	.LVL50:
 573:/home/paulo/Alexandria/STM32Cube_FW_F4_V1.23.0/Drivers/STM32F4xx_HAL_Driver/Src/stm32f4xx_ll_fmc.c ****                        );
 574:/home/paulo/Alexandria/STM32Cube_FW_F4_V1.23.0/Drivers/STM32F4xx_HAL_Driver/Src/stm32f4xx_ll_fmc.c ****                        
 575:/home/paulo/Alexandria/STM32Cube_FW_F4_V1.23.0/Drivers/STM32F4xx_HAL_Driver/Src/stm32f4xx_ll_fmc.c ****   /* NAND bank  registers configuration */
 576:/home/paulo/Alexandria/STM32Cube_FW_F4_V1.23.0/Drivers/STM32F4xx_HAL_Driver/Src/stm32f4xx_ll_fmc.c ****   Device->PMEM = tmpr;
 694              		.loc 1 576 3 is_stmt 1 view .LVU256
 695              		.loc 1 576 16 is_stmt 0 view .LVU257
 696 0016 8360     		str	r3, [r0, #8]
 577:/home/paulo/Alexandria/STM32Cube_FW_F4_V1.23.0/Drivers/STM32F4xx_HAL_Driver/Src/stm32f4xx_ll_fmc.c **** 
 578:/home/paulo/Alexandria/STM32Cube_FW_F4_V1.23.0/Drivers/STM32F4xx_HAL_Driver/Src/stm32f4xx_ll_fmc.c ****   return HAL_OK;  
 697              		.loc 1 578 3 is_stmt 1 view .LVU258
 579:/home/paulo/Alexandria/STM32Cube_FW_F4_V1.23.0/Drivers/STM32F4xx_HAL_Driver/Src/stm32f4xx_ll_fmc.c **** }
 698              		.loc 1 579 1 is_stmt 0 view .LVU259
 699 0018 0020     		movs	r0, #0
 700              	.LVL51:
 701              		.loc 1 579 1 view .LVU260
 702 001a 7047     		bx	lr
 703              		.cfi_endproc
 704              	.LFE133:
 706              		.section	.text.FMC_NAND_AttributeSpace_Timing_Init,"ax",%progbits
 707              		.align	1
 708              		.global	FMC_NAND_AttributeSpace_Timing_Init
 709              		.syntax unified
 710              		.thumb
 711              		.thumb_func
 712              		.fpu fpv4-sp-d16
 714              	FMC_NAND_AttributeSpace_Timing_Init:
 715              	.LVL52:
 716              	.LFB134:
 580:/home/paulo/Alexandria/STM32Cube_FW_F4_V1.23.0/Drivers/STM32F4xx_HAL_Driver/Src/stm32f4xx_ll_fmc.c **** 
 581:/home/paulo/Alexandria/STM32Cube_FW_F4_V1.23.0/Drivers/STM32F4xx_HAL_Driver/Src/stm32f4xx_ll_fmc.c **** /**
 582:/home/paulo/Alexandria/STM32Cube_FW_F4_V1.23.0/Drivers/STM32F4xx_HAL_Driver/Src/stm32f4xx_ll_fmc.c ****   * @brief  Initializes the FMC_NAND Attribute space Timing according to the specified
 583:/home/paulo/Alexandria/STM32Cube_FW_F4_V1.23.0/Drivers/STM32F4xx_HAL_Driver/Src/stm32f4xx_ll_fmc.c ****   *         parameters in the FMC_NAND_PCC_TimingTypeDef
 584:/home/paulo/Alexandria/STM32Cube_FW_F4_V1.23.0/Drivers/STM32F4xx_HAL_Driver/Src/stm32f4xx_ll_fmc.c ****   * @param  Device Pointer to NAND device instance
 585:/home/paulo/Alexandria/STM32Cube_FW_F4_V1.23.0/Drivers/STM32F4xx_HAL_Driver/Src/stm32f4xx_ll_fmc.c ****   * @param  Timing Pointer to NAND timing structure
 586:/home/paulo/Alexandria/STM32Cube_FW_F4_V1.23.0/Drivers/STM32F4xx_HAL_Driver/Src/stm32f4xx_ll_fmc.c ****   * @param  Bank NAND bank number 
 587:/home/paulo/Alexandria/STM32Cube_FW_F4_V1.23.0/Drivers/STM32F4xx_HAL_Driver/Src/stm32f4xx_ll_fmc.c ****   * @retval HAL status
 588:/home/paulo/Alexandria/STM32Cube_FW_F4_V1.23.0/Drivers/STM32F4xx_HAL_Driver/Src/stm32f4xx_ll_fmc.c ****   */
 589:/home/paulo/Alexandria/STM32Cube_FW_F4_V1.23.0/Drivers/STM32F4xx_HAL_Driver/Src/stm32f4xx_ll_fmc.c **** HAL_StatusTypeDef FMC_NAND_AttributeSpace_Timing_Init(FMC_NAND_TypeDef *Device, FMC_NAND_PCC_Timing
 590:/home/paulo/Alexandria/STM32Cube_FW_F4_V1.23.0/Drivers/STM32F4xx_HAL_Driver/Src/stm32f4xx_ll_fmc.c **** {
 717              		.loc 1 590 1 is_stmt 1 view -0
 718              		.cfi_startproc
 719              		@ args = 0, pretend = 0, frame = 0
 720              		@ frame_needed = 0, uses_anonymous_args = 0
 721              		@ link register save eliminated.
 591:/home/paulo/Alexandria/STM32Cube_FW_F4_V1.23.0/Drivers/STM32F4xx_HAL_Driver/Src/stm32f4xx_ll_fmc.c ****   uint32_t tmpr = 0U;  
 722              		.loc 1 591 3 view .LVU262
 592:/home/paulo/Alexandria/STM32Cube_FW_F4_V1.23.0/Drivers/STM32F4xx_HAL_Driver/Src/stm32f4xx_ll_fmc.c ****   
 593:/home/paulo/Alexandria/STM32Cube_FW_F4_V1.23.0/Drivers/STM32F4xx_HAL_Driver/Src/stm32f4xx_ll_fmc.c ****   /* Check the parameters */ 
 594:/home/paulo/Alexandria/STM32Cube_FW_F4_V1.23.0/Drivers/STM32F4xx_HAL_Driver/Src/stm32f4xx_ll_fmc.c ****   assert_param(IS_FMC_NAND_DEVICE(Device)); 
 723              		.loc 1 594 3 view .LVU263
 595:/home/paulo/Alexandria/STM32Cube_FW_F4_V1.23.0/Drivers/STM32F4xx_HAL_Driver/Src/stm32f4xx_ll_fmc.c ****   assert_param(IS_FMC_SETUP_TIME(Timing->SetupTime));
 724              		.loc 1 595 3 view .LVU264
ARM GAS  /tmp/cc0gW0uU.s 			page 25


 596:/home/paulo/Alexandria/STM32Cube_FW_F4_V1.23.0/Drivers/STM32F4xx_HAL_Driver/Src/stm32f4xx_ll_fmc.c ****   assert_param(IS_FMC_WAIT_TIME(Timing->WaitSetupTime));
 725              		.loc 1 596 3 view .LVU265
 597:/home/paulo/Alexandria/STM32Cube_FW_F4_V1.23.0/Drivers/STM32F4xx_HAL_Driver/Src/stm32f4xx_ll_fmc.c ****   assert_param(IS_FMC_HOLD_TIME(Timing->HoldSetupTime));
 726              		.loc 1 597 3 view .LVU266
 598:/home/paulo/Alexandria/STM32Cube_FW_F4_V1.23.0/Drivers/STM32F4xx_HAL_Driver/Src/stm32f4xx_ll_fmc.c ****   assert_param(IS_FMC_HIZ_TIME(Timing->HiZSetupTime));
 727              		.loc 1 598 3 view .LVU267
 599:/home/paulo/Alexandria/STM32Cube_FW_F4_V1.23.0/Drivers/STM32F4xx_HAL_Driver/Src/stm32f4xx_ll_fmc.c ****   assert_param(IS_FMC_NAND_BANK(Bank));
 728              		.loc 1 599 3 view .LVU268
 600:/home/paulo/Alexandria/STM32Cube_FW_F4_V1.23.0/Drivers/STM32F4xx_HAL_Driver/Src/stm32f4xx_ll_fmc.c **** 
 601:/home/paulo/Alexandria/STM32Cube_FW_F4_V1.23.0/Drivers/STM32F4xx_HAL_Driver/Src/stm32f4xx_ll_fmc.c ****   /* Get the NAND bank  register value */
 602:/home/paulo/Alexandria/STM32Cube_FW_F4_V1.23.0/Drivers/STM32F4xx_HAL_Driver/Src/stm32f4xx_ll_fmc.c ****   tmpr = Device->PATT;
 729              		.loc 1 602 3 view .LVU269
 730              		.loc 1 602 8 is_stmt 0 view .LVU270
 731 0000 C368     		ldr	r3, [r0, #12]
 732              	.LVL53:
 603:/home/paulo/Alexandria/STM32Cube_FW_F4_V1.23.0/Drivers/STM32F4xx_HAL_Driver/Src/stm32f4xx_ll_fmc.c **** 
 604:/home/paulo/Alexandria/STM32Cube_FW_F4_V1.23.0/Drivers/STM32F4xx_HAL_Driver/Src/stm32f4xx_ll_fmc.c ****   /* Clear ATTSETx, ATTWAITx, ATTHOLDx and ATTHIZx bits */
 605:/home/paulo/Alexandria/STM32Cube_FW_F4_V1.23.0/Drivers/STM32F4xx_HAL_Driver/Src/stm32f4xx_ll_fmc.c ****   tmpr &= ((uint32_t)~(FMC_PATT_ATTSET2  | FMC_PATT_ATTWAIT2 | FMC_PATT_ATTHOLD2 | \
 733              		.loc 1 605 3 is_stmt 1 view .LVU271
 606:/home/paulo/Alexandria/STM32Cube_FW_F4_V1.23.0/Drivers/STM32F4xx_HAL_Driver/Src/stm32f4xx_ll_fmc.c ****                        FMC_PATT_ATTHIZ2));
 607:/home/paulo/Alexandria/STM32Cube_FW_F4_V1.23.0/Drivers/STM32F4xx_HAL_Driver/Src/stm32f4xx_ll_fmc.c ****   
 608:/home/paulo/Alexandria/STM32Cube_FW_F4_V1.23.0/Drivers/STM32F4xx_HAL_Driver/Src/stm32f4xx_ll_fmc.c ****   /* Set FMC_NAND device timing parameters */
 609:/home/paulo/Alexandria/STM32Cube_FW_F4_V1.23.0/Drivers/STM32F4xx_HAL_Driver/Src/stm32f4xx_ll_fmc.c ****   tmpr |= (uint32_t)(Timing->SetupTime                 |\
 734              		.loc 1 609 3 view .LVU272
 735              		.loc 1 609 28 is_stmt 0 view .LVU273
 736 0002 0B68     		ldr	r3, [r1]
 610:/home/paulo/Alexandria/STM32Cube_FW_F4_V1.23.0/Drivers/STM32F4xx_HAL_Driver/Src/stm32f4xx_ll_fmc.c ****                    ((Timing->WaitSetupTime) << 8U)     |\
 737              		.loc 1 610 28 view .LVU274
 738 0004 4A68     		ldr	r2, [r1, #4]
 739              	.LVL54:
 609:/home/paulo/Alexandria/STM32Cube_FW_F4_V1.23.0/Drivers/STM32F4xx_HAL_Driver/Src/stm32f4xx_ll_fmc.c ****                    ((Timing->WaitSetupTime) << 8U)     |\
 740              		.loc 1 609 56 view .LVU275
 741 0006 43EA0223 		orr	r3, r3, r2, lsl #8
 611:/home/paulo/Alexandria/STM32Cube_FW_F4_V1.23.0/Drivers/STM32F4xx_HAL_Driver/Src/stm32f4xx_ll_fmc.c ****                    ((Timing->HoldSetupTime) << 16U)    |\
 742              		.loc 1 611 28 view .LVU276
 743 000a 8A68     		ldr	r2, [r1, #8]
 610:/home/paulo/Alexandria/STM32Cube_FW_F4_V1.23.0/Drivers/STM32F4xx_HAL_Driver/Src/stm32f4xx_ll_fmc.c ****                    ((Timing->WaitSetupTime) << 8U)     |\
 744              		.loc 1 610 56 view .LVU277
 745 000c 43EA0243 		orr	r3, r3, r2, lsl #16
 612:/home/paulo/Alexandria/STM32Cube_FW_F4_V1.23.0/Drivers/STM32F4xx_HAL_Driver/Src/stm32f4xx_ll_fmc.c ****                    ((Timing->HiZSetupTime) << 24U));
 746              		.loc 1 612 28 view .LVU278
 747 0010 CA68     		ldr	r2, [r1, #12]
 611:/home/paulo/Alexandria/STM32Cube_FW_F4_V1.23.0/Drivers/STM32F4xx_HAL_Driver/Src/stm32f4xx_ll_fmc.c ****                    ((Timing->HoldSetupTime) << 16U)    |\
 748              		.loc 1 611 56 view .LVU279
 749 0012 43EA0263 		orr	r3, r3, r2, lsl #24
 750              	.LVL55:
 613:/home/paulo/Alexandria/STM32Cube_FW_F4_V1.23.0/Drivers/STM32F4xx_HAL_Driver/Src/stm32f4xx_ll_fmc.c **** 
 614:/home/paulo/Alexandria/STM32Cube_FW_F4_V1.23.0/Drivers/STM32F4xx_HAL_Driver/Src/stm32f4xx_ll_fmc.c ****   /* NAND bank registers configuration */
 615:/home/paulo/Alexandria/STM32Cube_FW_F4_V1.23.0/Drivers/STM32F4xx_HAL_Driver/Src/stm32f4xx_ll_fmc.c ****   Device->PATT = tmpr; 
 751              		.loc 1 615 3 is_stmt 1 view .LVU280
 752              		.loc 1 615 16 is_stmt 0 view .LVU281
 753 0016 C360     		str	r3, [r0, #12]
 616:/home/paulo/Alexandria/STM32Cube_FW_F4_V1.23.0/Drivers/STM32F4xx_HAL_Driver/Src/stm32f4xx_ll_fmc.c ****  
 617:/home/paulo/Alexandria/STM32Cube_FW_F4_V1.23.0/Drivers/STM32F4xx_HAL_Driver/Src/stm32f4xx_ll_fmc.c ****   return HAL_OK;
 754              		.loc 1 617 3 is_stmt 1 view .LVU282
 618:/home/paulo/Alexandria/STM32Cube_FW_F4_V1.23.0/Drivers/STM32F4xx_HAL_Driver/Src/stm32f4xx_ll_fmc.c **** }
 755              		.loc 1 618 1 is_stmt 0 view .LVU283
ARM GAS  /tmp/cc0gW0uU.s 			page 26


 756 0018 0020     		movs	r0, #0
 757              	.LVL56:
 758              		.loc 1 618 1 view .LVU284
 759 001a 7047     		bx	lr
 760              		.cfi_endproc
 761              	.LFE134:
 763              		.section	.text.FMC_NAND_DeInit,"ax",%progbits
 764              		.align	1
 765              		.global	FMC_NAND_DeInit
 766              		.syntax unified
 767              		.thumb
 768              		.thumb_func
 769              		.fpu fpv4-sp-d16
 771              	FMC_NAND_DeInit:
 772              	.LVL57:
 773              	.LFB135:
 619:/home/paulo/Alexandria/STM32Cube_FW_F4_V1.23.0/Drivers/STM32F4xx_HAL_Driver/Src/stm32f4xx_ll_fmc.c **** 
 620:/home/paulo/Alexandria/STM32Cube_FW_F4_V1.23.0/Drivers/STM32F4xx_HAL_Driver/Src/stm32f4xx_ll_fmc.c **** 
 621:/home/paulo/Alexandria/STM32Cube_FW_F4_V1.23.0/Drivers/STM32F4xx_HAL_Driver/Src/stm32f4xx_ll_fmc.c **** /**
 622:/home/paulo/Alexandria/STM32Cube_FW_F4_V1.23.0/Drivers/STM32F4xx_HAL_Driver/Src/stm32f4xx_ll_fmc.c ****   * @brief  DeInitializes the FMC_NAND device 
 623:/home/paulo/Alexandria/STM32Cube_FW_F4_V1.23.0/Drivers/STM32F4xx_HAL_Driver/Src/stm32f4xx_ll_fmc.c ****   * @param  Device Pointer to NAND device instance
 624:/home/paulo/Alexandria/STM32Cube_FW_F4_V1.23.0/Drivers/STM32F4xx_HAL_Driver/Src/stm32f4xx_ll_fmc.c ****   * @param  Bank NAND bank number
 625:/home/paulo/Alexandria/STM32Cube_FW_F4_V1.23.0/Drivers/STM32F4xx_HAL_Driver/Src/stm32f4xx_ll_fmc.c ****   * @retval HAL status
 626:/home/paulo/Alexandria/STM32Cube_FW_F4_V1.23.0/Drivers/STM32F4xx_HAL_Driver/Src/stm32f4xx_ll_fmc.c ****   */
 627:/home/paulo/Alexandria/STM32Cube_FW_F4_V1.23.0/Drivers/STM32F4xx_HAL_Driver/Src/stm32f4xx_ll_fmc.c **** HAL_StatusTypeDef FMC_NAND_DeInit(FMC_NAND_TypeDef *Device, uint32_t Bank)
 628:/home/paulo/Alexandria/STM32Cube_FW_F4_V1.23.0/Drivers/STM32F4xx_HAL_Driver/Src/stm32f4xx_ll_fmc.c **** {
 774              		.loc 1 628 1 is_stmt 1 view -0
 775              		.cfi_startproc
 776              		@ args = 0, pretend = 0, frame = 0
 777              		@ frame_needed = 0, uses_anonymous_args = 0
 778              		@ link register save eliminated.
 629:/home/paulo/Alexandria/STM32Cube_FW_F4_V1.23.0/Drivers/STM32F4xx_HAL_Driver/Src/stm32f4xx_ll_fmc.c ****   /* Check the parameters */ 
 630:/home/paulo/Alexandria/STM32Cube_FW_F4_V1.23.0/Drivers/STM32F4xx_HAL_Driver/Src/stm32f4xx_ll_fmc.c ****   assert_param(IS_FMC_NAND_DEVICE(Device)); 
 779              		.loc 1 630 3 view .LVU286
 631:/home/paulo/Alexandria/STM32Cube_FW_F4_V1.23.0/Drivers/STM32F4xx_HAL_Driver/Src/stm32f4xx_ll_fmc.c ****   assert_param(IS_FMC_NAND_BANK(Bank));
 780              		.loc 1 631 3 view .LVU287
 632:/home/paulo/Alexandria/STM32Cube_FW_F4_V1.23.0/Drivers/STM32F4xx_HAL_Driver/Src/stm32f4xx_ll_fmc.c ****   
 633:/home/paulo/Alexandria/STM32Cube_FW_F4_V1.23.0/Drivers/STM32F4xx_HAL_Driver/Src/stm32f4xx_ll_fmc.c ****   /* Disable the NAND Bank */
 634:/home/paulo/Alexandria/STM32Cube_FW_F4_V1.23.0/Drivers/STM32F4xx_HAL_Driver/Src/stm32f4xx_ll_fmc.c ****   __FMC_NAND_DISABLE(Device, Bank);
 781              		.loc 1 634 3 view .LVU288
 782 0000 0368     		ldr	r3, [r0]
 783 0002 23F00403 		bic	r3, r3, #4
 784 0006 0360     		str	r3, [r0]
 635:/home/paulo/Alexandria/STM32Cube_FW_F4_V1.23.0/Drivers/STM32F4xx_HAL_Driver/Src/stm32f4xx_ll_fmc.c ****   
 636:/home/paulo/Alexandria/STM32Cube_FW_F4_V1.23.0/Drivers/STM32F4xx_HAL_Driver/Src/stm32f4xx_ll_fmc.c ****   /* De-initialize the NAND Bank */
 637:/home/paulo/Alexandria/STM32Cube_FW_F4_V1.23.0/Drivers/STM32F4xx_HAL_Driver/Src/stm32f4xx_ll_fmc.c ****   /* Set the FMC_NAND_BANK registers to their reset values */
 638:/home/paulo/Alexandria/STM32Cube_FW_F4_V1.23.0/Drivers/STM32F4xx_HAL_Driver/Src/stm32f4xx_ll_fmc.c ****   Device->PCR  = 0x00000018U;
 785              		.loc 1 638 3 view .LVU289
 786              		.loc 1 638 16 is_stmt 0 view .LVU290
 787 0008 1823     		movs	r3, #24
 788 000a 0360     		str	r3, [r0]
 639:/home/paulo/Alexandria/STM32Cube_FW_F4_V1.23.0/Drivers/STM32F4xx_HAL_Driver/Src/stm32f4xx_ll_fmc.c ****   Device->SR   = 0x00000040U;
 789              		.loc 1 639 3 is_stmt 1 view .LVU291
 790              		.loc 1 639 16 is_stmt 0 view .LVU292
 791 000c 4023     		movs	r3, #64
 792 000e 4360     		str	r3, [r0, #4]
 640:/home/paulo/Alexandria/STM32Cube_FW_F4_V1.23.0/Drivers/STM32F4xx_HAL_Driver/Src/stm32f4xx_ll_fmc.c ****   Device->PMEM = 0xFCFCFCFCU;
ARM GAS  /tmp/cc0gW0uU.s 			page 27


 793              		.loc 1 640 3 is_stmt 1 view .LVU293
 794              		.loc 1 640 16 is_stmt 0 view .LVU294
 795 0010 4FF0FC33 		mov	r3, #-50529028
 796 0014 8360     		str	r3, [r0, #8]
 641:/home/paulo/Alexandria/STM32Cube_FW_F4_V1.23.0/Drivers/STM32F4xx_HAL_Driver/Src/stm32f4xx_ll_fmc.c ****   Device->PATT = 0xFCFCFCFCU;
 797              		.loc 1 641 3 is_stmt 1 view .LVU295
 798              		.loc 1 641 16 is_stmt 0 view .LVU296
 799 0016 C360     		str	r3, [r0, #12]
 642:/home/paulo/Alexandria/STM32Cube_FW_F4_V1.23.0/Drivers/STM32F4xx_HAL_Driver/Src/stm32f4xx_ll_fmc.c **** 
 643:/home/paulo/Alexandria/STM32Cube_FW_F4_V1.23.0/Drivers/STM32F4xx_HAL_Driver/Src/stm32f4xx_ll_fmc.c ****   return HAL_OK;
 800              		.loc 1 643 3 is_stmt 1 view .LVU297
 644:/home/paulo/Alexandria/STM32Cube_FW_F4_V1.23.0/Drivers/STM32F4xx_HAL_Driver/Src/stm32f4xx_ll_fmc.c **** }
 801              		.loc 1 644 1 is_stmt 0 view .LVU298
 802 0018 0020     		movs	r0, #0
 803              	.LVL58:
 804              		.loc 1 644 1 view .LVU299
 805 001a 7047     		bx	lr
 806              		.cfi_endproc
 807              	.LFE135:
 809              		.section	.text.FMC_NAND_ECC_Enable,"ax",%progbits
 810              		.align	1
 811              		.global	FMC_NAND_ECC_Enable
 812              		.syntax unified
 813              		.thumb
 814              		.thumb_func
 815              		.fpu fpv4-sp-d16
 817              	FMC_NAND_ECC_Enable:
 818              	.LVL59:
 819              	.LFB136:
 645:/home/paulo/Alexandria/STM32Cube_FW_F4_V1.23.0/Drivers/STM32F4xx_HAL_Driver/Src/stm32f4xx_ll_fmc.c **** 
 646:/home/paulo/Alexandria/STM32Cube_FW_F4_V1.23.0/Drivers/STM32F4xx_HAL_Driver/Src/stm32f4xx_ll_fmc.c **** /**
 647:/home/paulo/Alexandria/STM32Cube_FW_F4_V1.23.0/Drivers/STM32F4xx_HAL_Driver/Src/stm32f4xx_ll_fmc.c ****   * @}
 648:/home/paulo/Alexandria/STM32Cube_FW_F4_V1.23.0/Drivers/STM32F4xx_HAL_Driver/Src/stm32f4xx_ll_fmc.c ****   */
 649:/home/paulo/Alexandria/STM32Cube_FW_F4_V1.23.0/Drivers/STM32F4xx_HAL_Driver/Src/stm32f4xx_ll_fmc.c ****   
 650:/home/paulo/Alexandria/STM32Cube_FW_F4_V1.23.0/Drivers/STM32F4xx_HAL_Driver/Src/stm32f4xx_ll_fmc.c ****   
 651:/home/paulo/Alexandria/STM32Cube_FW_F4_V1.23.0/Drivers/STM32F4xx_HAL_Driver/Src/stm32f4xx_ll_fmc.c **** /** @defgroup HAL_FMC_NAND_Group2 Control functions 
 652:/home/paulo/Alexandria/STM32Cube_FW_F4_V1.23.0/Drivers/STM32F4xx_HAL_Driver/Src/stm32f4xx_ll_fmc.c ****  *  @brief   management functions 
 653:/home/paulo/Alexandria/STM32Cube_FW_F4_V1.23.0/Drivers/STM32F4xx_HAL_Driver/Src/stm32f4xx_ll_fmc.c ****  *
 654:/home/paulo/Alexandria/STM32Cube_FW_F4_V1.23.0/Drivers/STM32F4xx_HAL_Driver/Src/stm32f4xx_ll_fmc.c **** @verbatim   
 655:/home/paulo/Alexandria/STM32Cube_FW_F4_V1.23.0/Drivers/STM32F4xx_HAL_Driver/Src/stm32f4xx_ll_fmc.c ****   ==============================================================================
 656:/home/paulo/Alexandria/STM32Cube_FW_F4_V1.23.0/Drivers/STM32F4xx_HAL_Driver/Src/stm32f4xx_ll_fmc.c ****                        ##### FMC_NAND Control functions #####
 657:/home/paulo/Alexandria/STM32Cube_FW_F4_V1.23.0/Drivers/STM32F4xx_HAL_Driver/Src/stm32f4xx_ll_fmc.c ****   ==============================================================================  
 658:/home/paulo/Alexandria/STM32Cube_FW_F4_V1.23.0/Drivers/STM32F4xx_HAL_Driver/Src/stm32f4xx_ll_fmc.c ****   [..]
 659:/home/paulo/Alexandria/STM32Cube_FW_F4_V1.23.0/Drivers/STM32F4xx_HAL_Driver/Src/stm32f4xx_ll_fmc.c ****     This subsection provides a set of functions allowing to control dynamically
 660:/home/paulo/Alexandria/STM32Cube_FW_F4_V1.23.0/Drivers/STM32F4xx_HAL_Driver/Src/stm32f4xx_ll_fmc.c ****     the FMC NAND interface.
 661:/home/paulo/Alexandria/STM32Cube_FW_F4_V1.23.0/Drivers/STM32F4xx_HAL_Driver/Src/stm32f4xx_ll_fmc.c **** 
 662:/home/paulo/Alexandria/STM32Cube_FW_F4_V1.23.0/Drivers/STM32F4xx_HAL_Driver/Src/stm32f4xx_ll_fmc.c **** @endverbatim
 663:/home/paulo/Alexandria/STM32Cube_FW_F4_V1.23.0/Drivers/STM32F4xx_HAL_Driver/Src/stm32f4xx_ll_fmc.c ****   * @{
 664:/home/paulo/Alexandria/STM32Cube_FW_F4_V1.23.0/Drivers/STM32F4xx_HAL_Driver/Src/stm32f4xx_ll_fmc.c ****   */ 
 665:/home/paulo/Alexandria/STM32Cube_FW_F4_V1.23.0/Drivers/STM32F4xx_HAL_Driver/Src/stm32f4xx_ll_fmc.c **** 
 666:/home/paulo/Alexandria/STM32Cube_FW_F4_V1.23.0/Drivers/STM32F4xx_HAL_Driver/Src/stm32f4xx_ll_fmc.c ****     
 667:/home/paulo/Alexandria/STM32Cube_FW_F4_V1.23.0/Drivers/STM32F4xx_HAL_Driver/Src/stm32f4xx_ll_fmc.c **** /**
 668:/home/paulo/Alexandria/STM32Cube_FW_F4_V1.23.0/Drivers/STM32F4xx_HAL_Driver/Src/stm32f4xx_ll_fmc.c ****   * @brief  Enables dynamically FMC_NAND ECC feature.
 669:/home/paulo/Alexandria/STM32Cube_FW_F4_V1.23.0/Drivers/STM32F4xx_HAL_Driver/Src/stm32f4xx_ll_fmc.c ****   * @param  Device Pointer to NAND device instance
 670:/home/paulo/Alexandria/STM32Cube_FW_F4_V1.23.0/Drivers/STM32F4xx_HAL_Driver/Src/stm32f4xx_ll_fmc.c ****   * @param  Bank NAND bank number
 671:/home/paulo/Alexandria/STM32Cube_FW_F4_V1.23.0/Drivers/STM32F4xx_HAL_Driver/Src/stm32f4xx_ll_fmc.c ****   * @retval HAL status
 672:/home/paulo/Alexandria/STM32Cube_FW_F4_V1.23.0/Drivers/STM32F4xx_HAL_Driver/Src/stm32f4xx_ll_fmc.c ****   */    
ARM GAS  /tmp/cc0gW0uU.s 			page 28


 673:/home/paulo/Alexandria/STM32Cube_FW_F4_V1.23.0/Drivers/STM32F4xx_HAL_Driver/Src/stm32f4xx_ll_fmc.c **** HAL_StatusTypeDef FMC_NAND_ECC_Enable(FMC_NAND_TypeDef *Device, uint32_t Bank)
 674:/home/paulo/Alexandria/STM32Cube_FW_F4_V1.23.0/Drivers/STM32F4xx_HAL_Driver/Src/stm32f4xx_ll_fmc.c **** {
 820              		.loc 1 674 1 is_stmt 1 view -0
 821              		.cfi_startproc
 822              		@ args = 0, pretend = 0, frame = 0
 823              		@ frame_needed = 0, uses_anonymous_args = 0
 824              		@ link register save eliminated.
 675:/home/paulo/Alexandria/STM32Cube_FW_F4_V1.23.0/Drivers/STM32F4xx_HAL_Driver/Src/stm32f4xx_ll_fmc.c ****   /* Check the parameters */ 
 676:/home/paulo/Alexandria/STM32Cube_FW_F4_V1.23.0/Drivers/STM32F4xx_HAL_Driver/Src/stm32f4xx_ll_fmc.c ****   assert_param(IS_FMC_NAND_DEVICE(Device)); 
 825              		.loc 1 676 3 view .LVU301
 677:/home/paulo/Alexandria/STM32Cube_FW_F4_V1.23.0/Drivers/STM32F4xx_HAL_Driver/Src/stm32f4xx_ll_fmc.c ****   assert_param(IS_FMC_NAND_BANK(Bank));
 826              		.loc 1 677 3 view .LVU302
 678:/home/paulo/Alexandria/STM32Cube_FW_F4_V1.23.0/Drivers/STM32F4xx_HAL_Driver/Src/stm32f4xx_ll_fmc.c **** 
 679:/home/paulo/Alexandria/STM32Cube_FW_F4_V1.23.0/Drivers/STM32F4xx_HAL_Driver/Src/stm32f4xx_ll_fmc.c ****   /* Enable ECC feature */
 680:/home/paulo/Alexandria/STM32Cube_FW_F4_V1.23.0/Drivers/STM32F4xx_HAL_Driver/Src/stm32f4xx_ll_fmc.c ****   Device->PCR |= FMC_PCR_ECCEN;
 827              		.loc 1 680 3 view .LVU303
 828              		.loc 1 680 15 is_stmt 0 view .LVU304
 829 0000 0368     		ldr	r3, [r0]
 830 0002 43F04003 		orr	r3, r3, #64
 831 0006 0360     		str	r3, [r0]
 681:/home/paulo/Alexandria/STM32Cube_FW_F4_V1.23.0/Drivers/STM32F4xx_HAL_Driver/Src/stm32f4xx_ll_fmc.c **** 
 682:/home/paulo/Alexandria/STM32Cube_FW_F4_V1.23.0/Drivers/STM32F4xx_HAL_Driver/Src/stm32f4xx_ll_fmc.c ****   return HAL_OK;  
 832              		.loc 1 682 3 is_stmt 1 view .LVU305
 683:/home/paulo/Alexandria/STM32Cube_FW_F4_V1.23.0/Drivers/STM32F4xx_HAL_Driver/Src/stm32f4xx_ll_fmc.c **** }
 833              		.loc 1 683 1 is_stmt 0 view .LVU306
 834 0008 0020     		movs	r0, #0
 835              	.LVL60:
 836              		.loc 1 683 1 view .LVU307
 837 000a 7047     		bx	lr
 838              		.cfi_endproc
 839              	.LFE136:
 841              		.section	.text.FMC_NAND_ECC_Disable,"ax",%progbits
 842              		.align	1
 843              		.global	FMC_NAND_ECC_Disable
 844              		.syntax unified
 845              		.thumb
 846              		.thumb_func
 847              		.fpu fpv4-sp-d16
 849              	FMC_NAND_ECC_Disable:
 850              	.LVL61:
 851              	.LFB137:
 684:/home/paulo/Alexandria/STM32Cube_FW_F4_V1.23.0/Drivers/STM32F4xx_HAL_Driver/Src/stm32f4xx_ll_fmc.c **** 
 685:/home/paulo/Alexandria/STM32Cube_FW_F4_V1.23.0/Drivers/STM32F4xx_HAL_Driver/Src/stm32f4xx_ll_fmc.c **** 
 686:/home/paulo/Alexandria/STM32Cube_FW_F4_V1.23.0/Drivers/STM32F4xx_HAL_Driver/Src/stm32f4xx_ll_fmc.c **** /**
 687:/home/paulo/Alexandria/STM32Cube_FW_F4_V1.23.0/Drivers/STM32F4xx_HAL_Driver/Src/stm32f4xx_ll_fmc.c ****   * @brief  Disables dynamically FMC_NAND ECC feature.
 688:/home/paulo/Alexandria/STM32Cube_FW_F4_V1.23.0/Drivers/STM32F4xx_HAL_Driver/Src/stm32f4xx_ll_fmc.c ****   * @param  Device Pointer to NAND device instance
 689:/home/paulo/Alexandria/STM32Cube_FW_F4_V1.23.0/Drivers/STM32F4xx_HAL_Driver/Src/stm32f4xx_ll_fmc.c ****   * @param  Bank NAND bank number
 690:/home/paulo/Alexandria/STM32Cube_FW_F4_V1.23.0/Drivers/STM32F4xx_HAL_Driver/Src/stm32f4xx_ll_fmc.c ****   * @retval HAL status
 691:/home/paulo/Alexandria/STM32Cube_FW_F4_V1.23.0/Drivers/STM32F4xx_HAL_Driver/Src/stm32f4xx_ll_fmc.c ****   */  
 692:/home/paulo/Alexandria/STM32Cube_FW_F4_V1.23.0/Drivers/STM32F4xx_HAL_Driver/Src/stm32f4xx_ll_fmc.c **** HAL_StatusTypeDef FMC_NAND_ECC_Disable(FMC_NAND_TypeDef *Device, uint32_t Bank)  
 693:/home/paulo/Alexandria/STM32Cube_FW_F4_V1.23.0/Drivers/STM32F4xx_HAL_Driver/Src/stm32f4xx_ll_fmc.c **** {  
 852              		.loc 1 693 1 is_stmt 1 view -0
 853              		.cfi_startproc
 854              		@ args = 0, pretend = 0, frame = 0
 855              		@ frame_needed = 0, uses_anonymous_args = 0
 856              		@ link register save eliminated.
 694:/home/paulo/Alexandria/STM32Cube_FW_F4_V1.23.0/Drivers/STM32F4xx_HAL_Driver/Src/stm32f4xx_ll_fmc.c ****   /* Check the parameters */ 
ARM GAS  /tmp/cc0gW0uU.s 			page 29


 695:/home/paulo/Alexandria/STM32Cube_FW_F4_V1.23.0/Drivers/STM32F4xx_HAL_Driver/Src/stm32f4xx_ll_fmc.c ****   assert_param(IS_FMC_NAND_DEVICE(Device)); 
 857              		.loc 1 695 3 view .LVU309
 696:/home/paulo/Alexandria/STM32Cube_FW_F4_V1.23.0/Drivers/STM32F4xx_HAL_Driver/Src/stm32f4xx_ll_fmc.c ****   assert_param(IS_FMC_NAND_BANK(Bank));
 858              		.loc 1 696 3 view .LVU310
 697:/home/paulo/Alexandria/STM32Cube_FW_F4_V1.23.0/Drivers/STM32F4xx_HAL_Driver/Src/stm32f4xx_ll_fmc.c ****   
 698:/home/paulo/Alexandria/STM32Cube_FW_F4_V1.23.0/Drivers/STM32F4xx_HAL_Driver/Src/stm32f4xx_ll_fmc.c ****   /* Disable ECC feature */
 699:/home/paulo/Alexandria/STM32Cube_FW_F4_V1.23.0/Drivers/STM32F4xx_HAL_Driver/Src/stm32f4xx_ll_fmc.c ****   Device->PCR &= ~FMC_PCR_ECCEN;
 859              		.loc 1 699 3 view .LVU311
 860              		.loc 1 699 15 is_stmt 0 view .LVU312
 861 0000 0368     		ldr	r3, [r0]
 862 0002 23F04003 		bic	r3, r3, #64
 863 0006 0360     		str	r3, [r0]
 700:/home/paulo/Alexandria/STM32Cube_FW_F4_V1.23.0/Drivers/STM32F4xx_HAL_Driver/Src/stm32f4xx_ll_fmc.c **** 
 701:/home/paulo/Alexandria/STM32Cube_FW_F4_V1.23.0/Drivers/STM32F4xx_HAL_Driver/Src/stm32f4xx_ll_fmc.c ****   return HAL_OK;  
 864              		.loc 1 701 3 is_stmt 1 view .LVU313
 702:/home/paulo/Alexandria/STM32Cube_FW_F4_V1.23.0/Drivers/STM32F4xx_HAL_Driver/Src/stm32f4xx_ll_fmc.c **** }
 865              		.loc 1 702 1 is_stmt 0 view .LVU314
 866 0008 0020     		movs	r0, #0
 867              	.LVL62:
 868              		.loc 1 702 1 view .LVU315
 869 000a 7047     		bx	lr
 870              		.cfi_endproc
 871              	.LFE137:
 873              		.section	.text.FMC_NAND_GetECC,"ax",%progbits
 874              		.align	1
 875              		.global	FMC_NAND_GetECC
 876              		.syntax unified
 877              		.thumb
 878              		.thumb_func
 879              		.fpu fpv4-sp-d16
 881              	FMC_NAND_GetECC:
 882              	.LVL63:
 883              	.LFB138:
 703:/home/paulo/Alexandria/STM32Cube_FW_F4_V1.23.0/Drivers/STM32F4xx_HAL_Driver/Src/stm32f4xx_ll_fmc.c **** 
 704:/home/paulo/Alexandria/STM32Cube_FW_F4_V1.23.0/Drivers/STM32F4xx_HAL_Driver/Src/stm32f4xx_ll_fmc.c **** /**
 705:/home/paulo/Alexandria/STM32Cube_FW_F4_V1.23.0/Drivers/STM32F4xx_HAL_Driver/Src/stm32f4xx_ll_fmc.c ****   * @brief  Disables dynamically FMC_NAND ECC feature.
 706:/home/paulo/Alexandria/STM32Cube_FW_F4_V1.23.0/Drivers/STM32F4xx_HAL_Driver/Src/stm32f4xx_ll_fmc.c ****   * @param  Device Pointer to NAND device instance
 707:/home/paulo/Alexandria/STM32Cube_FW_F4_V1.23.0/Drivers/STM32F4xx_HAL_Driver/Src/stm32f4xx_ll_fmc.c ****   * @param  ECCval Pointer to ECC value
 708:/home/paulo/Alexandria/STM32Cube_FW_F4_V1.23.0/Drivers/STM32F4xx_HAL_Driver/Src/stm32f4xx_ll_fmc.c ****   * @param  Bank NAND bank number
 709:/home/paulo/Alexandria/STM32Cube_FW_F4_V1.23.0/Drivers/STM32F4xx_HAL_Driver/Src/stm32f4xx_ll_fmc.c ****   * @param  Timeout Timeout wait value  
 710:/home/paulo/Alexandria/STM32Cube_FW_F4_V1.23.0/Drivers/STM32F4xx_HAL_Driver/Src/stm32f4xx_ll_fmc.c ****   * @retval HAL status
 711:/home/paulo/Alexandria/STM32Cube_FW_F4_V1.23.0/Drivers/STM32F4xx_HAL_Driver/Src/stm32f4xx_ll_fmc.c ****   */
 712:/home/paulo/Alexandria/STM32Cube_FW_F4_V1.23.0/Drivers/STM32F4xx_HAL_Driver/Src/stm32f4xx_ll_fmc.c **** HAL_StatusTypeDef FMC_NAND_GetECC(FMC_NAND_TypeDef *Device, uint32_t *ECCval, uint32_t Bank, uint32
 713:/home/paulo/Alexandria/STM32Cube_FW_F4_V1.23.0/Drivers/STM32F4xx_HAL_Driver/Src/stm32f4xx_ll_fmc.c **** {
 884              		.loc 1 713 1 is_stmt 1 view -0
 885              		.cfi_startproc
 886              		@ args = 0, pretend = 0, frame = 0
 887              		@ frame_needed = 0, uses_anonymous_args = 0
 888              		.loc 1 713 1 is_stmt 0 view .LVU317
 889 0000 F8B5     		push	{r3, r4, r5, r6, r7, lr}
 890              	.LCFI12:
 891              		.cfi_def_cfa_offset 24
 892              		.cfi_offset 3, -24
 893              		.cfi_offset 4, -20
 894              		.cfi_offset 5, -16
 895              		.cfi_offset 6, -12
 896              		.cfi_offset 7, -8
ARM GAS  /tmp/cc0gW0uU.s 			page 30


 897              		.cfi_offset 14, -4
 898 0002 0446     		mov	r4, r0
 899 0004 0E46     		mov	r6, r1
 900 0006 1D46     		mov	r5, r3
 714:/home/paulo/Alexandria/STM32Cube_FW_F4_V1.23.0/Drivers/STM32F4xx_HAL_Driver/Src/stm32f4xx_ll_fmc.c ****   uint32_t tickstart = 0U;
 901              		.loc 1 714 3 is_stmt 1 view .LVU318
 902              	.LVL64:
 715:/home/paulo/Alexandria/STM32Cube_FW_F4_V1.23.0/Drivers/STM32F4xx_HAL_Driver/Src/stm32f4xx_ll_fmc.c ****   
 716:/home/paulo/Alexandria/STM32Cube_FW_F4_V1.23.0/Drivers/STM32F4xx_HAL_Driver/Src/stm32f4xx_ll_fmc.c ****   /* Check the parameters */ 
 717:/home/paulo/Alexandria/STM32Cube_FW_F4_V1.23.0/Drivers/STM32F4xx_HAL_Driver/Src/stm32f4xx_ll_fmc.c ****   assert_param(IS_FMC_NAND_DEVICE(Device)); 
 903              		.loc 1 717 3 view .LVU319
 718:/home/paulo/Alexandria/STM32Cube_FW_F4_V1.23.0/Drivers/STM32F4xx_HAL_Driver/Src/stm32f4xx_ll_fmc.c ****   assert_param(IS_FMC_NAND_BANK(Bank));
 904              		.loc 1 718 3 view .LVU320
 719:/home/paulo/Alexandria/STM32Cube_FW_F4_V1.23.0/Drivers/STM32F4xx_HAL_Driver/Src/stm32f4xx_ll_fmc.c ****   
 720:/home/paulo/Alexandria/STM32Cube_FW_F4_V1.23.0/Drivers/STM32F4xx_HAL_Driver/Src/stm32f4xx_ll_fmc.c ****   /* Get tick */ 
 721:/home/paulo/Alexandria/STM32Cube_FW_F4_V1.23.0/Drivers/STM32F4xx_HAL_Driver/Src/stm32f4xx_ll_fmc.c ****   tickstart = HAL_GetTick();
 905              		.loc 1 721 3 view .LVU321
 906              		.loc 1 721 15 is_stmt 0 view .LVU322
 907 0008 FFF7FEFF 		bl	HAL_GetTick
 908              	.LVL65:
 909              		.loc 1 721 15 view .LVU323
 910 000c 0746     		mov	r7, r0
 911              	.LVL66:
 722:/home/paulo/Alexandria/STM32Cube_FW_F4_V1.23.0/Drivers/STM32F4xx_HAL_Driver/Src/stm32f4xx_ll_fmc.c ****   
 723:/home/paulo/Alexandria/STM32Cube_FW_F4_V1.23.0/Drivers/STM32F4xx_HAL_Driver/Src/stm32f4xx_ll_fmc.c ****   /* Wait until FIFO is empty */
 724:/home/paulo/Alexandria/STM32Cube_FW_F4_V1.23.0/Drivers/STM32F4xx_HAL_Driver/Src/stm32f4xx_ll_fmc.c ****   while(__FMC_NAND_GET_FLAG(Device, Bank, FMC_FLAG_FEMPT) == RESET)
 912              		.loc 1 724 3 is_stmt 1 view .LVU324
 913              	.L40:
 914              		.loc 1 724 9 is_stmt 0 view .LVU325
 915 000e 6368     		ldr	r3, [r4, #4]
 916              		.loc 1 724 8 view .LVU326
 917 0010 13F0400F 		tst	r3, #64
 918 0014 0AD1     		bne	.L45
 725:/home/paulo/Alexandria/STM32Cube_FW_F4_V1.23.0/Drivers/STM32F4xx_HAL_Driver/Src/stm32f4xx_ll_fmc.c ****   {
 726:/home/paulo/Alexandria/STM32Cube_FW_F4_V1.23.0/Drivers/STM32F4xx_HAL_Driver/Src/stm32f4xx_ll_fmc.c ****     /* Check for the Timeout */
 727:/home/paulo/Alexandria/STM32Cube_FW_F4_V1.23.0/Drivers/STM32F4xx_HAL_Driver/Src/stm32f4xx_ll_fmc.c ****     if(Timeout != HAL_MAX_DELAY)
 919              		.loc 1 727 5 is_stmt 1 view .LVU327
 920              		.loc 1 727 7 is_stmt 0 view .LVU328
 921 0016 B5F1FF3F 		cmp	r5, #-1
 922 001a F8D0     		beq	.L40
 728:/home/paulo/Alexandria/STM32Cube_FW_F4_V1.23.0/Drivers/STM32F4xx_HAL_Driver/Src/stm32f4xx_ll_fmc.c ****     {
 729:/home/paulo/Alexandria/STM32Cube_FW_F4_V1.23.0/Drivers/STM32F4xx_HAL_Driver/Src/stm32f4xx_ll_fmc.c ****       if((Timeout == 0U)||((HAL_GetTick() - tickstart ) > Timeout))
 923              		.loc 1 729 7 is_stmt 1 view .LVU329
 924              		.loc 1 729 9 is_stmt 0 view .LVU330
 925 001c 25B1     		cbz	r5, .L41
 926              		.loc 1 729 29 discriminator 1 view .LVU331
 927 001e FFF7FEFF 		bl	HAL_GetTick
 928              	.LVL67:
 929              		.loc 1 729 43 discriminator 1 view .LVU332
 930 0022 C01B     		subs	r0, r0, r7
 931              		.loc 1 729 25 discriminator 1 view .LVU333
 932 0024 A842     		cmp	r0, r5
 933 0026 F2D9     		bls	.L40
 934              	.L41:
 730:/home/paulo/Alexandria/STM32Cube_FW_F4_V1.23.0/Drivers/STM32F4xx_HAL_Driver/Src/stm32f4xx_ll_fmc.c ****       {
 731:/home/paulo/Alexandria/STM32Cube_FW_F4_V1.23.0/Drivers/STM32F4xx_HAL_Driver/Src/stm32f4xx_ll_fmc.c ****         return HAL_TIMEOUT;
 935              		.loc 1 731 9 is_stmt 1 view .LVU334
ARM GAS  /tmp/cc0gW0uU.s 			page 31


 936              		.loc 1 731 16 is_stmt 0 view .LVU335
 937 0028 0320     		movs	r0, #3
 938 002a 02E0     		b	.L42
 939              	.L45:
 732:/home/paulo/Alexandria/STM32Cube_FW_F4_V1.23.0/Drivers/STM32F4xx_HAL_Driver/Src/stm32f4xx_ll_fmc.c ****       }
 733:/home/paulo/Alexandria/STM32Cube_FW_F4_V1.23.0/Drivers/STM32F4xx_HAL_Driver/Src/stm32f4xx_ll_fmc.c ****     }  
 734:/home/paulo/Alexandria/STM32Cube_FW_F4_V1.23.0/Drivers/STM32F4xx_HAL_Driver/Src/stm32f4xx_ll_fmc.c ****   }
 735:/home/paulo/Alexandria/STM32Cube_FW_F4_V1.23.0/Drivers/STM32F4xx_HAL_Driver/Src/stm32f4xx_ll_fmc.c ****   
 736:/home/paulo/Alexandria/STM32Cube_FW_F4_V1.23.0/Drivers/STM32F4xx_HAL_Driver/Src/stm32f4xx_ll_fmc.c ****   /* Get the ECCR register value */
 737:/home/paulo/Alexandria/STM32Cube_FW_F4_V1.23.0/Drivers/STM32F4xx_HAL_Driver/Src/stm32f4xx_ll_fmc.c ****   *ECCval = (uint32_t)Device->ECCR;
 940              		.loc 1 737 3 is_stmt 1 view .LVU336
 941              		.loc 1 737 29 is_stmt 0 view .LVU337
 942 002c 6369     		ldr	r3, [r4, #20]
 943              		.loc 1 737 11 view .LVU338
 944 002e 3360     		str	r3, [r6]
 738:/home/paulo/Alexandria/STM32Cube_FW_F4_V1.23.0/Drivers/STM32F4xx_HAL_Driver/Src/stm32f4xx_ll_fmc.c **** 
 739:/home/paulo/Alexandria/STM32Cube_FW_F4_V1.23.0/Drivers/STM32F4xx_HAL_Driver/Src/stm32f4xx_ll_fmc.c ****   return HAL_OK;  
 945              		.loc 1 739 3 is_stmt 1 view .LVU339
 946              		.loc 1 739 10 is_stmt 0 view .LVU340
 947 0030 0020     		movs	r0, #0
 948              	.L42:
 740:/home/paulo/Alexandria/STM32Cube_FW_F4_V1.23.0/Drivers/STM32F4xx_HAL_Driver/Src/stm32f4xx_ll_fmc.c **** }
 949              		.loc 1 740 1 view .LVU341
 950 0032 F8BD     		pop	{r3, r4, r5, r6, r7, pc}
 951              		.loc 1 740 1 view .LVU342
 952              		.cfi_endproc
 953              	.LFE138:
 955              		.section	.text.FMC_SDRAM_Init,"ax",%progbits
 956              		.align	1
 957              		.global	FMC_SDRAM_Init
 958              		.syntax unified
 959              		.thumb
 960              		.thumb_func
 961              		.fpu fpv4-sp-d16
 963              	FMC_SDRAM_Init:
 964              	.LVL68:
 965              	.LFB139:
 741:/home/paulo/Alexandria/STM32Cube_FW_F4_V1.23.0/Drivers/STM32F4xx_HAL_Driver/Src/stm32f4xx_ll_fmc.c **** 
 742:/home/paulo/Alexandria/STM32Cube_FW_F4_V1.23.0/Drivers/STM32F4xx_HAL_Driver/Src/stm32f4xx_ll_fmc.c **** /**
 743:/home/paulo/Alexandria/STM32Cube_FW_F4_V1.23.0/Drivers/STM32F4xx_HAL_Driver/Src/stm32f4xx_ll_fmc.c ****   * @}
 744:/home/paulo/Alexandria/STM32Cube_FW_F4_V1.23.0/Drivers/STM32F4xx_HAL_Driver/Src/stm32f4xx_ll_fmc.c ****   */
 745:/home/paulo/Alexandria/STM32Cube_FW_F4_V1.23.0/Drivers/STM32F4xx_HAL_Driver/Src/stm32f4xx_ll_fmc.c **** 
 746:/home/paulo/Alexandria/STM32Cube_FW_F4_V1.23.0/Drivers/STM32F4xx_HAL_Driver/Src/stm32f4xx_ll_fmc.c **** #else /* defined(STM32F427xx) || defined(STM32F437xx) || defined(STM32F429xx) || defined(STM32F439x
 747:/home/paulo/Alexandria/STM32Cube_FW_F4_V1.23.0/Drivers/STM32F4xx_HAL_Driver/Src/stm32f4xx_ll_fmc.c **** /** @defgroup HAL_FMC_NAND_Group1 Initialization/de-initialization functions 
 748:/home/paulo/Alexandria/STM32Cube_FW_F4_V1.23.0/Drivers/STM32F4xx_HAL_Driver/Src/stm32f4xx_ll_fmc.c ****  *  @brief    Initialization and Configuration functions 
 749:/home/paulo/Alexandria/STM32Cube_FW_F4_V1.23.0/Drivers/STM32F4xx_HAL_Driver/Src/stm32f4xx_ll_fmc.c ****  *
 750:/home/paulo/Alexandria/STM32Cube_FW_F4_V1.23.0/Drivers/STM32F4xx_HAL_Driver/Src/stm32f4xx_ll_fmc.c **** @verbatim    
 751:/home/paulo/Alexandria/STM32Cube_FW_F4_V1.23.0/Drivers/STM32F4xx_HAL_Driver/Src/stm32f4xx_ll_fmc.c ****   ==============================================================================
 752:/home/paulo/Alexandria/STM32Cube_FW_F4_V1.23.0/Drivers/STM32F4xx_HAL_Driver/Src/stm32f4xx_ll_fmc.c ****               ##### Initialization and de_initialization functions #####
 753:/home/paulo/Alexandria/STM32Cube_FW_F4_V1.23.0/Drivers/STM32F4xx_HAL_Driver/Src/stm32f4xx_ll_fmc.c ****   ==============================================================================
 754:/home/paulo/Alexandria/STM32Cube_FW_F4_V1.23.0/Drivers/STM32F4xx_HAL_Driver/Src/stm32f4xx_ll_fmc.c ****   [..]  
 755:/home/paulo/Alexandria/STM32Cube_FW_F4_V1.23.0/Drivers/STM32F4xx_HAL_Driver/Src/stm32f4xx_ll_fmc.c ****     This section provides functions allowing to:
 756:/home/paulo/Alexandria/STM32Cube_FW_F4_V1.23.0/Drivers/STM32F4xx_HAL_Driver/Src/stm32f4xx_ll_fmc.c ****     (+) Initialize and configure the FMC NAND interface
 757:/home/paulo/Alexandria/STM32Cube_FW_F4_V1.23.0/Drivers/STM32F4xx_HAL_Driver/Src/stm32f4xx_ll_fmc.c ****     (+) De-initialize the FMC NAND interface 
 758:/home/paulo/Alexandria/STM32Cube_FW_F4_V1.23.0/Drivers/STM32F4xx_HAL_Driver/Src/stm32f4xx_ll_fmc.c ****     (+) Configure the FMC clock and associated GPIOs
 759:/home/paulo/Alexandria/STM32Cube_FW_F4_V1.23.0/Drivers/STM32F4xx_HAL_Driver/Src/stm32f4xx_ll_fmc.c ****         
 760:/home/paulo/Alexandria/STM32Cube_FW_F4_V1.23.0/Drivers/STM32F4xx_HAL_Driver/Src/stm32f4xx_ll_fmc.c **** @endverbatim
ARM GAS  /tmp/cc0gW0uU.s 			page 32


 761:/home/paulo/Alexandria/STM32Cube_FW_F4_V1.23.0/Drivers/STM32F4xx_HAL_Driver/Src/stm32f4xx_ll_fmc.c ****   * @{
 762:/home/paulo/Alexandria/STM32Cube_FW_F4_V1.23.0/Drivers/STM32F4xx_HAL_Driver/Src/stm32f4xx_ll_fmc.c ****   */
 763:/home/paulo/Alexandria/STM32Cube_FW_F4_V1.23.0/Drivers/STM32F4xx_HAL_Driver/Src/stm32f4xx_ll_fmc.c **** /**
 764:/home/paulo/Alexandria/STM32Cube_FW_F4_V1.23.0/Drivers/STM32F4xx_HAL_Driver/Src/stm32f4xx_ll_fmc.c ****   * @brief  Initializes the FMC_NAND device according to the specified
 765:/home/paulo/Alexandria/STM32Cube_FW_F4_V1.23.0/Drivers/STM32F4xx_HAL_Driver/Src/stm32f4xx_ll_fmc.c ****   *         control parameters in the FMC_NAND_HandleTypeDef
 766:/home/paulo/Alexandria/STM32Cube_FW_F4_V1.23.0/Drivers/STM32F4xx_HAL_Driver/Src/stm32f4xx_ll_fmc.c ****   * @param  Device Pointer to NAND device instance
 767:/home/paulo/Alexandria/STM32Cube_FW_F4_V1.23.0/Drivers/STM32F4xx_HAL_Driver/Src/stm32f4xx_ll_fmc.c ****   * @param  Init Pointer to NAND Initialization structure
 768:/home/paulo/Alexandria/STM32Cube_FW_F4_V1.23.0/Drivers/STM32F4xx_HAL_Driver/Src/stm32f4xx_ll_fmc.c ****   * @retval HAL status
 769:/home/paulo/Alexandria/STM32Cube_FW_F4_V1.23.0/Drivers/STM32F4xx_HAL_Driver/Src/stm32f4xx_ll_fmc.c ****   */
 770:/home/paulo/Alexandria/STM32Cube_FW_F4_V1.23.0/Drivers/STM32F4xx_HAL_Driver/Src/stm32f4xx_ll_fmc.c **** HAL_StatusTypeDef FMC_NAND_Init(FMC_NAND_TypeDef *Device, FMC_NAND_InitTypeDef *Init)
 771:/home/paulo/Alexandria/STM32Cube_FW_F4_V1.23.0/Drivers/STM32F4xx_HAL_Driver/Src/stm32f4xx_ll_fmc.c **** {
 772:/home/paulo/Alexandria/STM32Cube_FW_F4_V1.23.0/Drivers/STM32F4xx_HAL_Driver/Src/stm32f4xx_ll_fmc.c ****   uint32_t tmpr  = 0U; 
 773:/home/paulo/Alexandria/STM32Cube_FW_F4_V1.23.0/Drivers/STM32F4xx_HAL_Driver/Src/stm32f4xx_ll_fmc.c ****     
 774:/home/paulo/Alexandria/STM32Cube_FW_F4_V1.23.0/Drivers/STM32F4xx_HAL_Driver/Src/stm32f4xx_ll_fmc.c ****   /* Check the parameters */
 775:/home/paulo/Alexandria/STM32Cube_FW_F4_V1.23.0/Drivers/STM32F4xx_HAL_Driver/Src/stm32f4xx_ll_fmc.c ****   assert_param(IS_FMC_NAND_DEVICE(Device));
 776:/home/paulo/Alexandria/STM32Cube_FW_F4_V1.23.0/Drivers/STM32F4xx_HAL_Driver/Src/stm32f4xx_ll_fmc.c ****   assert_param(IS_FMC_NAND_BANK(Init->NandBank));
 777:/home/paulo/Alexandria/STM32Cube_FW_F4_V1.23.0/Drivers/STM32F4xx_HAL_Driver/Src/stm32f4xx_ll_fmc.c ****   assert_param(IS_FMC_WAIT_FEATURE(Init->Waitfeature));
 778:/home/paulo/Alexandria/STM32Cube_FW_F4_V1.23.0/Drivers/STM32F4xx_HAL_Driver/Src/stm32f4xx_ll_fmc.c ****   assert_param(IS_FMC_NAND_MEMORY_WIDTH(Init->MemoryDataWidth));
 779:/home/paulo/Alexandria/STM32Cube_FW_F4_V1.23.0/Drivers/STM32F4xx_HAL_Driver/Src/stm32f4xx_ll_fmc.c ****   assert_param(IS_FMC_ECC_STATE(Init->EccComputation));
 780:/home/paulo/Alexandria/STM32Cube_FW_F4_V1.23.0/Drivers/STM32F4xx_HAL_Driver/Src/stm32f4xx_ll_fmc.c ****   assert_param(IS_FMC_ECCPAGE_SIZE(Init->ECCPageSize));
 781:/home/paulo/Alexandria/STM32Cube_FW_F4_V1.23.0/Drivers/STM32F4xx_HAL_Driver/Src/stm32f4xx_ll_fmc.c ****   assert_param(IS_FMC_TCLR_TIME(Init->TCLRSetupTime));
 782:/home/paulo/Alexandria/STM32Cube_FW_F4_V1.23.0/Drivers/STM32F4xx_HAL_Driver/Src/stm32f4xx_ll_fmc.c ****   assert_param(IS_FMC_TAR_TIME(Init->TARSetupTime));   
 783:/home/paulo/Alexandria/STM32Cube_FW_F4_V1.23.0/Drivers/STM32F4xx_HAL_Driver/Src/stm32f4xx_ll_fmc.c **** 
 784:/home/paulo/Alexandria/STM32Cube_FW_F4_V1.23.0/Drivers/STM32F4xx_HAL_Driver/Src/stm32f4xx_ll_fmc.c ****   if(Init->NandBank == FMC_NAND_BANK2)
 785:/home/paulo/Alexandria/STM32Cube_FW_F4_V1.23.0/Drivers/STM32F4xx_HAL_Driver/Src/stm32f4xx_ll_fmc.c ****   {
 786:/home/paulo/Alexandria/STM32Cube_FW_F4_V1.23.0/Drivers/STM32F4xx_HAL_Driver/Src/stm32f4xx_ll_fmc.c ****     /* Get the NAND bank 2 register value */
 787:/home/paulo/Alexandria/STM32Cube_FW_F4_V1.23.0/Drivers/STM32F4xx_HAL_Driver/Src/stm32f4xx_ll_fmc.c ****     tmpr = Device->PCR2;
 788:/home/paulo/Alexandria/STM32Cube_FW_F4_V1.23.0/Drivers/STM32F4xx_HAL_Driver/Src/stm32f4xx_ll_fmc.c ****   }
 789:/home/paulo/Alexandria/STM32Cube_FW_F4_V1.23.0/Drivers/STM32F4xx_HAL_Driver/Src/stm32f4xx_ll_fmc.c ****   else
 790:/home/paulo/Alexandria/STM32Cube_FW_F4_V1.23.0/Drivers/STM32F4xx_HAL_Driver/Src/stm32f4xx_ll_fmc.c ****   {
 791:/home/paulo/Alexandria/STM32Cube_FW_F4_V1.23.0/Drivers/STM32F4xx_HAL_Driver/Src/stm32f4xx_ll_fmc.c ****     /* Get the NAND bank 3 register value */
 792:/home/paulo/Alexandria/STM32Cube_FW_F4_V1.23.0/Drivers/STM32F4xx_HAL_Driver/Src/stm32f4xx_ll_fmc.c ****     tmpr = Device->PCR3;
 793:/home/paulo/Alexandria/STM32Cube_FW_F4_V1.23.0/Drivers/STM32F4xx_HAL_Driver/Src/stm32f4xx_ll_fmc.c ****   }
 794:/home/paulo/Alexandria/STM32Cube_FW_F4_V1.23.0/Drivers/STM32F4xx_HAL_Driver/Src/stm32f4xx_ll_fmc.c ****   
 795:/home/paulo/Alexandria/STM32Cube_FW_F4_V1.23.0/Drivers/STM32F4xx_HAL_Driver/Src/stm32f4xx_ll_fmc.c ****   /* Clear PWAITEN, PBKEN, PTYP, PWID, ECCEN, TCLR, TAR and ECCPS bits */
 796:/home/paulo/Alexandria/STM32Cube_FW_F4_V1.23.0/Drivers/STM32F4xx_HAL_Driver/Src/stm32f4xx_ll_fmc.c ****   tmpr &= ((uint32_t)~(FMC_PCR2_PWAITEN  | FMC_PCR2_PBKEN | FMC_PCR2_PTYP | \
 797:/home/paulo/Alexandria/STM32Cube_FW_F4_V1.23.0/Drivers/STM32F4xx_HAL_Driver/Src/stm32f4xx_ll_fmc.c ****                        FMC_PCR2_PWID | FMC_PCR2_ECCEN | FMC_PCR2_TCLR | \
 798:/home/paulo/Alexandria/STM32Cube_FW_F4_V1.23.0/Drivers/STM32F4xx_HAL_Driver/Src/stm32f4xx_ll_fmc.c ****                        FMC_PCR2_TAR | FMC_PCR2_ECCPS));  
 799:/home/paulo/Alexandria/STM32Cube_FW_F4_V1.23.0/Drivers/STM32F4xx_HAL_Driver/Src/stm32f4xx_ll_fmc.c ****   
 800:/home/paulo/Alexandria/STM32Cube_FW_F4_V1.23.0/Drivers/STM32F4xx_HAL_Driver/Src/stm32f4xx_ll_fmc.c ****   /* Set NAND device control parameters */
 801:/home/paulo/Alexandria/STM32Cube_FW_F4_V1.23.0/Drivers/STM32F4xx_HAL_Driver/Src/stm32f4xx_ll_fmc.c ****   tmpr |= (uint32_t)(Init->Waitfeature                 |\
 802:/home/paulo/Alexandria/STM32Cube_FW_F4_V1.23.0/Drivers/STM32F4xx_HAL_Driver/Src/stm32f4xx_ll_fmc.c ****                      FMC_PCR_MEMORY_TYPE_NAND          |\
 803:/home/paulo/Alexandria/STM32Cube_FW_F4_V1.23.0/Drivers/STM32F4xx_HAL_Driver/Src/stm32f4xx_ll_fmc.c ****                      Init->MemoryDataWidth             |\
 804:/home/paulo/Alexandria/STM32Cube_FW_F4_V1.23.0/Drivers/STM32F4xx_HAL_Driver/Src/stm32f4xx_ll_fmc.c ****                      Init->EccComputation              |\
 805:/home/paulo/Alexandria/STM32Cube_FW_F4_V1.23.0/Drivers/STM32F4xx_HAL_Driver/Src/stm32f4xx_ll_fmc.c ****                      Init->ECCPageSize                 |\
 806:/home/paulo/Alexandria/STM32Cube_FW_F4_V1.23.0/Drivers/STM32F4xx_HAL_Driver/Src/stm32f4xx_ll_fmc.c ****                      ((Init->TCLRSetupTime) << 9U)     |\
 807:/home/paulo/Alexandria/STM32Cube_FW_F4_V1.23.0/Drivers/STM32F4xx_HAL_Driver/Src/stm32f4xx_ll_fmc.c ****                      ((Init->TARSetupTime) << 13U));   
 808:/home/paulo/Alexandria/STM32Cube_FW_F4_V1.23.0/Drivers/STM32F4xx_HAL_Driver/Src/stm32f4xx_ll_fmc.c ****   
 809:/home/paulo/Alexandria/STM32Cube_FW_F4_V1.23.0/Drivers/STM32F4xx_HAL_Driver/Src/stm32f4xx_ll_fmc.c ****   if(Init->NandBank == FMC_NAND_BANK2)
 810:/home/paulo/Alexandria/STM32Cube_FW_F4_V1.23.0/Drivers/STM32F4xx_HAL_Driver/Src/stm32f4xx_ll_fmc.c ****   {
 811:/home/paulo/Alexandria/STM32Cube_FW_F4_V1.23.0/Drivers/STM32F4xx_HAL_Driver/Src/stm32f4xx_ll_fmc.c ****     /* NAND bank 2 registers configuration */
 812:/home/paulo/Alexandria/STM32Cube_FW_F4_V1.23.0/Drivers/STM32F4xx_HAL_Driver/Src/stm32f4xx_ll_fmc.c ****     Device->PCR2  = tmpr;
 813:/home/paulo/Alexandria/STM32Cube_FW_F4_V1.23.0/Drivers/STM32F4xx_HAL_Driver/Src/stm32f4xx_ll_fmc.c ****   }
 814:/home/paulo/Alexandria/STM32Cube_FW_F4_V1.23.0/Drivers/STM32F4xx_HAL_Driver/Src/stm32f4xx_ll_fmc.c ****   else
 815:/home/paulo/Alexandria/STM32Cube_FW_F4_V1.23.0/Drivers/STM32F4xx_HAL_Driver/Src/stm32f4xx_ll_fmc.c ****   {
 816:/home/paulo/Alexandria/STM32Cube_FW_F4_V1.23.0/Drivers/STM32F4xx_HAL_Driver/Src/stm32f4xx_ll_fmc.c ****     /* NAND bank 3 registers configuration */
 817:/home/paulo/Alexandria/STM32Cube_FW_F4_V1.23.0/Drivers/STM32F4xx_HAL_Driver/Src/stm32f4xx_ll_fmc.c ****     Device->PCR3  = tmpr;
ARM GAS  /tmp/cc0gW0uU.s 			page 33


 818:/home/paulo/Alexandria/STM32Cube_FW_F4_V1.23.0/Drivers/STM32F4xx_HAL_Driver/Src/stm32f4xx_ll_fmc.c ****   }
 819:/home/paulo/Alexandria/STM32Cube_FW_F4_V1.23.0/Drivers/STM32F4xx_HAL_Driver/Src/stm32f4xx_ll_fmc.c ****   
 820:/home/paulo/Alexandria/STM32Cube_FW_F4_V1.23.0/Drivers/STM32F4xx_HAL_Driver/Src/stm32f4xx_ll_fmc.c ****   return HAL_OK;
 821:/home/paulo/Alexandria/STM32Cube_FW_F4_V1.23.0/Drivers/STM32F4xx_HAL_Driver/Src/stm32f4xx_ll_fmc.c **** 
 822:/home/paulo/Alexandria/STM32Cube_FW_F4_V1.23.0/Drivers/STM32F4xx_HAL_Driver/Src/stm32f4xx_ll_fmc.c **** }
 823:/home/paulo/Alexandria/STM32Cube_FW_F4_V1.23.0/Drivers/STM32F4xx_HAL_Driver/Src/stm32f4xx_ll_fmc.c **** 
 824:/home/paulo/Alexandria/STM32Cube_FW_F4_V1.23.0/Drivers/STM32F4xx_HAL_Driver/Src/stm32f4xx_ll_fmc.c **** /**
 825:/home/paulo/Alexandria/STM32Cube_FW_F4_V1.23.0/Drivers/STM32F4xx_HAL_Driver/Src/stm32f4xx_ll_fmc.c ****   * @brief  Initializes the FMC_NAND Common space Timing according to the specified
 826:/home/paulo/Alexandria/STM32Cube_FW_F4_V1.23.0/Drivers/STM32F4xx_HAL_Driver/Src/stm32f4xx_ll_fmc.c ****   *         parameters in the FMC_NAND_PCC_TimingTypeDef
 827:/home/paulo/Alexandria/STM32Cube_FW_F4_V1.23.0/Drivers/STM32F4xx_HAL_Driver/Src/stm32f4xx_ll_fmc.c ****   * @param  Device Pointer to NAND device instance
 828:/home/paulo/Alexandria/STM32Cube_FW_F4_V1.23.0/Drivers/STM32F4xx_HAL_Driver/Src/stm32f4xx_ll_fmc.c ****   * @param  Timing Pointer to NAND timing structure
 829:/home/paulo/Alexandria/STM32Cube_FW_F4_V1.23.0/Drivers/STM32F4xx_HAL_Driver/Src/stm32f4xx_ll_fmc.c ****   * @param  Bank NAND bank number   
 830:/home/paulo/Alexandria/STM32Cube_FW_F4_V1.23.0/Drivers/STM32F4xx_HAL_Driver/Src/stm32f4xx_ll_fmc.c ****   * @retval HAL status
 831:/home/paulo/Alexandria/STM32Cube_FW_F4_V1.23.0/Drivers/STM32F4xx_HAL_Driver/Src/stm32f4xx_ll_fmc.c ****   */
 832:/home/paulo/Alexandria/STM32Cube_FW_F4_V1.23.0/Drivers/STM32F4xx_HAL_Driver/Src/stm32f4xx_ll_fmc.c **** HAL_StatusTypeDef FMC_NAND_CommonSpace_Timing_Init(FMC_NAND_TypeDef *Device, FMC_NAND_PCC_TimingTyp
 833:/home/paulo/Alexandria/STM32Cube_FW_F4_V1.23.0/Drivers/STM32F4xx_HAL_Driver/Src/stm32f4xx_ll_fmc.c **** {
 834:/home/paulo/Alexandria/STM32Cube_FW_F4_V1.23.0/Drivers/STM32F4xx_HAL_Driver/Src/stm32f4xx_ll_fmc.c ****   uint32_t tmpr = 0U;  
 835:/home/paulo/Alexandria/STM32Cube_FW_F4_V1.23.0/Drivers/STM32F4xx_HAL_Driver/Src/stm32f4xx_ll_fmc.c ****   
 836:/home/paulo/Alexandria/STM32Cube_FW_F4_V1.23.0/Drivers/STM32F4xx_HAL_Driver/Src/stm32f4xx_ll_fmc.c ****   /* Check the parameters */
 837:/home/paulo/Alexandria/STM32Cube_FW_F4_V1.23.0/Drivers/STM32F4xx_HAL_Driver/Src/stm32f4xx_ll_fmc.c ****   assert_param(IS_FMC_NAND_DEVICE(Device));
 838:/home/paulo/Alexandria/STM32Cube_FW_F4_V1.23.0/Drivers/STM32F4xx_HAL_Driver/Src/stm32f4xx_ll_fmc.c ****   assert_param(IS_FMC_SETUP_TIME(Timing->SetupTime));
 839:/home/paulo/Alexandria/STM32Cube_FW_F4_V1.23.0/Drivers/STM32F4xx_HAL_Driver/Src/stm32f4xx_ll_fmc.c ****   assert_param(IS_FMC_WAIT_TIME(Timing->WaitSetupTime));
 840:/home/paulo/Alexandria/STM32Cube_FW_F4_V1.23.0/Drivers/STM32F4xx_HAL_Driver/Src/stm32f4xx_ll_fmc.c ****   assert_param(IS_FMC_HOLD_TIME(Timing->HoldSetupTime));
 841:/home/paulo/Alexandria/STM32Cube_FW_F4_V1.23.0/Drivers/STM32F4xx_HAL_Driver/Src/stm32f4xx_ll_fmc.c ****   assert_param(IS_FMC_HIZ_TIME(Timing->HiZSetupTime));
 842:/home/paulo/Alexandria/STM32Cube_FW_F4_V1.23.0/Drivers/STM32F4xx_HAL_Driver/Src/stm32f4xx_ll_fmc.c ****   assert_param(IS_FMC_NAND_BANK(Bank));
 843:/home/paulo/Alexandria/STM32Cube_FW_F4_V1.23.0/Drivers/STM32F4xx_HAL_Driver/Src/stm32f4xx_ll_fmc.c ****   
 844:/home/paulo/Alexandria/STM32Cube_FW_F4_V1.23.0/Drivers/STM32F4xx_HAL_Driver/Src/stm32f4xx_ll_fmc.c ****   if(Bank == FMC_NAND_BANK2)
 845:/home/paulo/Alexandria/STM32Cube_FW_F4_V1.23.0/Drivers/STM32F4xx_HAL_Driver/Src/stm32f4xx_ll_fmc.c ****   {
 846:/home/paulo/Alexandria/STM32Cube_FW_F4_V1.23.0/Drivers/STM32F4xx_HAL_Driver/Src/stm32f4xx_ll_fmc.c ****     /* Get the NAND bank 2 register value */
 847:/home/paulo/Alexandria/STM32Cube_FW_F4_V1.23.0/Drivers/STM32F4xx_HAL_Driver/Src/stm32f4xx_ll_fmc.c ****     tmpr = Device->PMEM2;
 848:/home/paulo/Alexandria/STM32Cube_FW_F4_V1.23.0/Drivers/STM32F4xx_HAL_Driver/Src/stm32f4xx_ll_fmc.c ****   }
 849:/home/paulo/Alexandria/STM32Cube_FW_F4_V1.23.0/Drivers/STM32F4xx_HAL_Driver/Src/stm32f4xx_ll_fmc.c ****   else
 850:/home/paulo/Alexandria/STM32Cube_FW_F4_V1.23.0/Drivers/STM32F4xx_HAL_Driver/Src/stm32f4xx_ll_fmc.c ****   {
 851:/home/paulo/Alexandria/STM32Cube_FW_F4_V1.23.0/Drivers/STM32F4xx_HAL_Driver/Src/stm32f4xx_ll_fmc.c ****     /* Get the NAND bank 3 register value */
 852:/home/paulo/Alexandria/STM32Cube_FW_F4_V1.23.0/Drivers/STM32F4xx_HAL_Driver/Src/stm32f4xx_ll_fmc.c ****     tmpr = Device->PMEM3;
 853:/home/paulo/Alexandria/STM32Cube_FW_F4_V1.23.0/Drivers/STM32F4xx_HAL_Driver/Src/stm32f4xx_ll_fmc.c ****   } 
 854:/home/paulo/Alexandria/STM32Cube_FW_F4_V1.23.0/Drivers/STM32F4xx_HAL_Driver/Src/stm32f4xx_ll_fmc.c ****   
 855:/home/paulo/Alexandria/STM32Cube_FW_F4_V1.23.0/Drivers/STM32F4xx_HAL_Driver/Src/stm32f4xx_ll_fmc.c ****   /* Clear MEMSETx, MEMWAITx, MEMHOLDx and MEMHIZx bits */
 856:/home/paulo/Alexandria/STM32Cube_FW_F4_V1.23.0/Drivers/STM32F4xx_HAL_Driver/Src/stm32f4xx_ll_fmc.c ****   tmpr &= ((uint32_t)~(FMC_PMEM2_MEMSET2  | FMC_PMEM2_MEMWAIT2 | FMC_PMEM2_MEMHOLD2 | \
 857:/home/paulo/Alexandria/STM32Cube_FW_F4_V1.23.0/Drivers/STM32F4xx_HAL_Driver/Src/stm32f4xx_ll_fmc.c ****                        FMC_PMEM2_MEMHIZ2)); 
 858:/home/paulo/Alexandria/STM32Cube_FW_F4_V1.23.0/Drivers/STM32F4xx_HAL_Driver/Src/stm32f4xx_ll_fmc.c ****   
 859:/home/paulo/Alexandria/STM32Cube_FW_F4_V1.23.0/Drivers/STM32F4xx_HAL_Driver/Src/stm32f4xx_ll_fmc.c ****   /* Set FMC_NAND device timing parameters */
 860:/home/paulo/Alexandria/STM32Cube_FW_F4_V1.23.0/Drivers/STM32F4xx_HAL_Driver/Src/stm32f4xx_ll_fmc.c ****   tmpr |= (uint32_t)(Timing->SetupTime                     |\
 861:/home/paulo/Alexandria/STM32Cube_FW_F4_V1.23.0/Drivers/STM32F4xx_HAL_Driver/Src/stm32f4xx_ll_fmc.c ****                        ((Timing->WaitSetupTime) << 8U)     |\
 862:/home/paulo/Alexandria/STM32Cube_FW_F4_V1.23.0/Drivers/STM32F4xx_HAL_Driver/Src/stm32f4xx_ll_fmc.c ****                        ((Timing->HoldSetupTime) << 16U)    |\
 863:/home/paulo/Alexandria/STM32Cube_FW_F4_V1.23.0/Drivers/STM32F4xx_HAL_Driver/Src/stm32f4xx_ll_fmc.c ****                        ((Timing->HiZSetupTime) << 24U)
 864:/home/paulo/Alexandria/STM32Cube_FW_F4_V1.23.0/Drivers/STM32F4xx_HAL_Driver/Src/stm32f4xx_ll_fmc.c ****                        );
 865:/home/paulo/Alexandria/STM32Cube_FW_F4_V1.23.0/Drivers/STM32F4xx_HAL_Driver/Src/stm32f4xx_ll_fmc.c ****                             
 866:/home/paulo/Alexandria/STM32Cube_FW_F4_V1.23.0/Drivers/STM32F4xx_HAL_Driver/Src/stm32f4xx_ll_fmc.c ****   if(Bank == FMC_NAND_BANK2)
 867:/home/paulo/Alexandria/STM32Cube_FW_F4_V1.23.0/Drivers/STM32F4xx_HAL_Driver/Src/stm32f4xx_ll_fmc.c ****   {
 868:/home/paulo/Alexandria/STM32Cube_FW_F4_V1.23.0/Drivers/STM32F4xx_HAL_Driver/Src/stm32f4xx_ll_fmc.c ****     /* NAND bank 2 registers configuration */
 869:/home/paulo/Alexandria/STM32Cube_FW_F4_V1.23.0/Drivers/STM32F4xx_HAL_Driver/Src/stm32f4xx_ll_fmc.c ****     Device->PMEM2 = tmpr;
 870:/home/paulo/Alexandria/STM32Cube_FW_F4_V1.23.0/Drivers/STM32F4xx_HAL_Driver/Src/stm32f4xx_ll_fmc.c ****   }
 871:/home/paulo/Alexandria/STM32Cube_FW_F4_V1.23.0/Drivers/STM32F4xx_HAL_Driver/Src/stm32f4xx_ll_fmc.c ****   else
 872:/home/paulo/Alexandria/STM32Cube_FW_F4_V1.23.0/Drivers/STM32F4xx_HAL_Driver/Src/stm32f4xx_ll_fmc.c ****   {
 873:/home/paulo/Alexandria/STM32Cube_FW_F4_V1.23.0/Drivers/STM32F4xx_HAL_Driver/Src/stm32f4xx_ll_fmc.c ****     /* NAND bank 3 registers configuration */
 874:/home/paulo/Alexandria/STM32Cube_FW_F4_V1.23.0/Drivers/STM32F4xx_HAL_Driver/Src/stm32f4xx_ll_fmc.c ****     Device->PMEM3 = tmpr;
ARM GAS  /tmp/cc0gW0uU.s 			page 34


 875:/home/paulo/Alexandria/STM32Cube_FW_F4_V1.23.0/Drivers/STM32F4xx_HAL_Driver/Src/stm32f4xx_ll_fmc.c ****   }  
 876:/home/paulo/Alexandria/STM32Cube_FW_F4_V1.23.0/Drivers/STM32F4xx_HAL_Driver/Src/stm32f4xx_ll_fmc.c ****   
 877:/home/paulo/Alexandria/STM32Cube_FW_F4_V1.23.0/Drivers/STM32F4xx_HAL_Driver/Src/stm32f4xx_ll_fmc.c ****   return HAL_OK;  
 878:/home/paulo/Alexandria/STM32Cube_FW_F4_V1.23.0/Drivers/STM32F4xx_HAL_Driver/Src/stm32f4xx_ll_fmc.c **** }
 879:/home/paulo/Alexandria/STM32Cube_FW_F4_V1.23.0/Drivers/STM32F4xx_HAL_Driver/Src/stm32f4xx_ll_fmc.c **** 
 880:/home/paulo/Alexandria/STM32Cube_FW_F4_V1.23.0/Drivers/STM32F4xx_HAL_Driver/Src/stm32f4xx_ll_fmc.c **** /**
 881:/home/paulo/Alexandria/STM32Cube_FW_F4_V1.23.0/Drivers/STM32F4xx_HAL_Driver/Src/stm32f4xx_ll_fmc.c ****   * @brief  Initializes the FMC_NAND Attribute space Timing according to the specified
 882:/home/paulo/Alexandria/STM32Cube_FW_F4_V1.23.0/Drivers/STM32F4xx_HAL_Driver/Src/stm32f4xx_ll_fmc.c ****   *         parameters in the FMC_NAND_PCC_TimingTypeDef
 883:/home/paulo/Alexandria/STM32Cube_FW_F4_V1.23.0/Drivers/STM32F4xx_HAL_Driver/Src/stm32f4xx_ll_fmc.c ****   * @param  Device Pointer to NAND device instance
 884:/home/paulo/Alexandria/STM32Cube_FW_F4_V1.23.0/Drivers/STM32F4xx_HAL_Driver/Src/stm32f4xx_ll_fmc.c ****   * @param  Timing Pointer to NAND timing structure
 885:/home/paulo/Alexandria/STM32Cube_FW_F4_V1.23.0/Drivers/STM32F4xx_HAL_Driver/Src/stm32f4xx_ll_fmc.c ****   * @param  Bank NAND bank number 
 886:/home/paulo/Alexandria/STM32Cube_FW_F4_V1.23.0/Drivers/STM32F4xx_HAL_Driver/Src/stm32f4xx_ll_fmc.c ****   * @retval HAL status
 887:/home/paulo/Alexandria/STM32Cube_FW_F4_V1.23.0/Drivers/STM32F4xx_HAL_Driver/Src/stm32f4xx_ll_fmc.c ****   */
 888:/home/paulo/Alexandria/STM32Cube_FW_F4_V1.23.0/Drivers/STM32F4xx_HAL_Driver/Src/stm32f4xx_ll_fmc.c **** HAL_StatusTypeDef FMC_NAND_AttributeSpace_Timing_Init(FMC_NAND_TypeDef *Device, FMC_NAND_PCC_Timing
 889:/home/paulo/Alexandria/STM32Cube_FW_F4_V1.23.0/Drivers/STM32F4xx_HAL_Driver/Src/stm32f4xx_ll_fmc.c **** {
 890:/home/paulo/Alexandria/STM32Cube_FW_F4_V1.23.0/Drivers/STM32F4xx_HAL_Driver/Src/stm32f4xx_ll_fmc.c ****   uint32_t tmpr = 0U;  
 891:/home/paulo/Alexandria/STM32Cube_FW_F4_V1.23.0/Drivers/STM32F4xx_HAL_Driver/Src/stm32f4xx_ll_fmc.c ****   
 892:/home/paulo/Alexandria/STM32Cube_FW_F4_V1.23.0/Drivers/STM32F4xx_HAL_Driver/Src/stm32f4xx_ll_fmc.c ****   /* Check the parameters */ 
 893:/home/paulo/Alexandria/STM32Cube_FW_F4_V1.23.0/Drivers/STM32F4xx_HAL_Driver/Src/stm32f4xx_ll_fmc.c ****   assert_param(IS_FMC_NAND_DEVICE(Device)); 
 894:/home/paulo/Alexandria/STM32Cube_FW_F4_V1.23.0/Drivers/STM32F4xx_HAL_Driver/Src/stm32f4xx_ll_fmc.c ****   assert_param(IS_FMC_SETUP_TIME(Timing->SetupTime));
 895:/home/paulo/Alexandria/STM32Cube_FW_F4_V1.23.0/Drivers/STM32F4xx_HAL_Driver/Src/stm32f4xx_ll_fmc.c ****   assert_param(IS_FMC_WAIT_TIME(Timing->WaitSetupTime));
 896:/home/paulo/Alexandria/STM32Cube_FW_F4_V1.23.0/Drivers/STM32F4xx_HAL_Driver/Src/stm32f4xx_ll_fmc.c ****   assert_param(IS_FMC_HOLD_TIME(Timing->HoldSetupTime));
 897:/home/paulo/Alexandria/STM32Cube_FW_F4_V1.23.0/Drivers/STM32F4xx_HAL_Driver/Src/stm32f4xx_ll_fmc.c ****   assert_param(IS_FMC_HIZ_TIME(Timing->HiZSetupTime));
 898:/home/paulo/Alexandria/STM32Cube_FW_F4_V1.23.0/Drivers/STM32F4xx_HAL_Driver/Src/stm32f4xx_ll_fmc.c ****   assert_param(IS_FMC_NAND_BANK(Bank));
 899:/home/paulo/Alexandria/STM32Cube_FW_F4_V1.23.0/Drivers/STM32F4xx_HAL_Driver/Src/stm32f4xx_ll_fmc.c ****   
 900:/home/paulo/Alexandria/STM32Cube_FW_F4_V1.23.0/Drivers/STM32F4xx_HAL_Driver/Src/stm32f4xx_ll_fmc.c ****   if(Bank == FMC_NAND_BANK2)
 901:/home/paulo/Alexandria/STM32Cube_FW_F4_V1.23.0/Drivers/STM32F4xx_HAL_Driver/Src/stm32f4xx_ll_fmc.c ****   {
 902:/home/paulo/Alexandria/STM32Cube_FW_F4_V1.23.0/Drivers/STM32F4xx_HAL_Driver/Src/stm32f4xx_ll_fmc.c ****     /* Get the NAND bank 2 register value */
 903:/home/paulo/Alexandria/STM32Cube_FW_F4_V1.23.0/Drivers/STM32F4xx_HAL_Driver/Src/stm32f4xx_ll_fmc.c ****     tmpr = Device->PATT2;
 904:/home/paulo/Alexandria/STM32Cube_FW_F4_V1.23.0/Drivers/STM32F4xx_HAL_Driver/Src/stm32f4xx_ll_fmc.c ****   }
 905:/home/paulo/Alexandria/STM32Cube_FW_F4_V1.23.0/Drivers/STM32F4xx_HAL_Driver/Src/stm32f4xx_ll_fmc.c ****   else
 906:/home/paulo/Alexandria/STM32Cube_FW_F4_V1.23.0/Drivers/STM32F4xx_HAL_Driver/Src/stm32f4xx_ll_fmc.c ****   {
 907:/home/paulo/Alexandria/STM32Cube_FW_F4_V1.23.0/Drivers/STM32F4xx_HAL_Driver/Src/stm32f4xx_ll_fmc.c ****     /* Get the NAND bank 3 register value */
 908:/home/paulo/Alexandria/STM32Cube_FW_F4_V1.23.0/Drivers/STM32F4xx_HAL_Driver/Src/stm32f4xx_ll_fmc.c ****     tmpr = Device->PATT3;
 909:/home/paulo/Alexandria/STM32Cube_FW_F4_V1.23.0/Drivers/STM32F4xx_HAL_Driver/Src/stm32f4xx_ll_fmc.c ****   } 
 910:/home/paulo/Alexandria/STM32Cube_FW_F4_V1.23.0/Drivers/STM32F4xx_HAL_Driver/Src/stm32f4xx_ll_fmc.c ****   
 911:/home/paulo/Alexandria/STM32Cube_FW_F4_V1.23.0/Drivers/STM32F4xx_HAL_Driver/Src/stm32f4xx_ll_fmc.c ****   /* Clear ATTSETx, ATTWAITx, ATTHOLDx and ATTHIZx bits */
 912:/home/paulo/Alexandria/STM32Cube_FW_F4_V1.23.0/Drivers/STM32F4xx_HAL_Driver/Src/stm32f4xx_ll_fmc.c ****   tmpr &= ((uint32_t)~(FMC_PATT2_ATTSET2  | FMC_PATT2_ATTWAIT2 | FMC_PATT2_ATTHOLD2 | \
 913:/home/paulo/Alexandria/STM32Cube_FW_F4_V1.23.0/Drivers/STM32F4xx_HAL_Driver/Src/stm32f4xx_ll_fmc.c ****                        FMC_PATT2_ATTHIZ2));
 914:/home/paulo/Alexandria/STM32Cube_FW_F4_V1.23.0/Drivers/STM32F4xx_HAL_Driver/Src/stm32f4xx_ll_fmc.c ****   
 915:/home/paulo/Alexandria/STM32Cube_FW_F4_V1.23.0/Drivers/STM32F4xx_HAL_Driver/Src/stm32f4xx_ll_fmc.c ****   /* Set FMC_NAND device timing parameters */
 916:/home/paulo/Alexandria/STM32Cube_FW_F4_V1.23.0/Drivers/STM32F4xx_HAL_Driver/Src/stm32f4xx_ll_fmc.c ****   tmpr |= (uint32_t)(Timing->SetupTime                  |\
 917:/home/paulo/Alexandria/STM32Cube_FW_F4_V1.23.0/Drivers/STM32F4xx_HAL_Driver/Src/stm32f4xx_ll_fmc.c ****                    ((Timing->WaitSetupTime) << 8U)      |\
 918:/home/paulo/Alexandria/STM32Cube_FW_F4_V1.23.0/Drivers/STM32F4xx_HAL_Driver/Src/stm32f4xx_ll_fmc.c ****                    ((Timing->HoldSetupTime) << 16U)     |\
 919:/home/paulo/Alexandria/STM32Cube_FW_F4_V1.23.0/Drivers/STM32F4xx_HAL_Driver/Src/stm32f4xx_ll_fmc.c ****                    ((Timing->HiZSetupTime) << 24U));
 920:/home/paulo/Alexandria/STM32Cube_FW_F4_V1.23.0/Drivers/STM32F4xx_HAL_Driver/Src/stm32f4xx_ll_fmc.c ****                        
 921:/home/paulo/Alexandria/STM32Cube_FW_F4_V1.23.0/Drivers/STM32F4xx_HAL_Driver/Src/stm32f4xx_ll_fmc.c ****   if(Bank == FMC_NAND_BANK2)
 922:/home/paulo/Alexandria/STM32Cube_FW_F4_V1.23.0/Drivers/STM32F4xx_HAL_Driver/Src/stm32f4xx_ll_fmc.c ****   {
 923:/home/paulo/Alexandria/STM32Cube_FW_F4_V1.23.0/Drivers/STM32F4xx_HAL_Driver/Src/stm32f4xx_ll_fmc.c ****     /* NAND bank 2 registers configuration */
 924:/home/paulo/Alexandria/STM32Cube_FW_F4_V1.23.0/Drivers/STM32F4xx_HAL_Driver/Src/stm32f4xx_ll_fmc.c ****     Device->PATT2 = tmpr;
 925:/home/paulo/Alexandria/STM32Cube_FW_F4_V1.23.0/Drivers/STM32F4xx_HAL_Driver/Src/stm32f4xx_ll_fmc.c ****   }
 926:/home/paulo/Alexandria/STM32Cube_FW_F4_V1.23.0/Drivers/STM32F4xx_HAL_Driver/Src/stm32f4xx_ll_fmc.c ****   else
 927:/home/paulo/Alexandria/STM32Cube_FW_F4_V1.23.0/Drivers/STM32F4xx_HAL_Driver/Src/stm32f4xx_ll_fmc.c ****   {
 928:/home/paulo/Alexandria/STM32Cube_FW_F4_V1.23.0/Drivers/STM32F4xx_HAL_Driver/Src/stm32f4xx_ll_fmc.c ****     /* NAND bank 3 registers configuration */
 929:/home/paulo/Alexandria/STM32Cube_FW_F4_V1.23.0/Drivers/STM32F4xx_HAL_Driver/Src/stm32f4xx_ll_fmc.c ****     Device->PATT3 = tmpr;
 930:/home/paulo/Alexandria/STM32Cube_FW_F4_V1.23.0/Drivers/STM32F4xx_HAL_Driver/Src/stm32f4xx_ll_fmc.c ****   }   
 931:/home/paulo/Alexandria/STM32Cube_FW_F4_V1.23.0/Drivers/STM32F4xx_HAL_Driver/Src/stm32f4xx_ll_fmc.c ****   
ARM GAS  /tmp/cc0gW0uU.s 			page 35


 932:/home/paulo/Alexandria/STM32Cube_FW_F4_V1.23.0/Drivers/STM32F4xx_HAL_Driver/Src/stm32f4xx_ll_fmc.c ****   return HAL_OK;
 933:/home/paulo/Alexandria/STM32Cube_FW_F4_V1.23.0/Drivers/STM32F4xx_HAL_Driver/Src/stm32f4xx_ll_fmc.c **** }
 934:/home/paulo/Alexandria/STM32Cube_FW_F4_V1.23.0/Drivers/STM32F4xx_HAL_Driver/Src/stm32f4xx_ll_fmc.c **** 
 935:/home/paulo/Alexandria/STM32Cube_FW_F4_V1.23.0/Drivers/STM32F4xx_HAL_Driver/Src/stm32f4xx_ll_fmc.c **** /**
 936:/home/paulo/Alexandria/STM32Cube_FW_F4_V1.23.0/Drivers/STM32F4xx_HAL_Driver/Src/stm32f4xx_ll_fmc.c ****   * @brief  DeInitializes the FMC_NAND device 
 937:/home/paulo/Alexandria/STM32Cube_FW_F4_V1.23.0/Drivers/STM32F4xx_HAL_Driver/Src/stm32f4xx_ll_fmc.c ****   * @param  Device Pointer to NAND device instance
 938:/home/paulo/Alexandria/STM32Cube_FW_F4_V1.23.0/Drivers/STM32F4xx_HAL_Driver/Src/stm32f4xx_ll_fmc.c ****   * @param  Bank NAND bank number
 939:/home/paulo/Alexandria/STM32Cube_FW_F4_V1.23.0/Drivers/STM32F4xx_HAL_Driver/Src/stm32f4xx_ll_fmc.c ****   * @retval HAL status
 940:/home/paulo/Alexandria/STM32Cube_FW_F4_V1.23.0/Drivers/STM32F4xx_HAL_Driver/Src/stm32f4xx_ll_fmc.c ****   */
 941:/home/paulo/Alexandria/STM32Cube_FW_F4_V1.23.0/Drivers/STM32F4xx_HAL_Driver/Src/stm32f4xx_ll_fmc.c **** HAL_StatusTypeDef FMC_NAND_DeInit(FMC_NAND_TypeDef *Device, uint32_t Bank)
 942:/home/paulo/Alexandria/STM32Cube_FW_F4_V1.23.0/Drivers/STM32F4xx_HAL_Driver/Src/stm32f4xx_ll_fmc.c **** {
 943:/home/paulo/Alexandria/STM32Cube_FW_F4_V1.23.0/Drivers/STM32F4xx_HAL_Driver/Src/stm32f4xx_ll_fmc.c ****   /* Check the parameters */ 
 944:/home/paulo/Alexandria/STM32Cube_FW_F4_V1.23.0/Drivers/STM32F4xx_HAL_Driver/Src/stm32f4xx_ll_fmc.c ****   assert_param(IS_FMC_NAND_DEVICE(Device)); 
 945:/home/paulo/Alexandria/STM32Cube_FW_F4_V1.23.0/Drivers/STM32F4xx_HAL_Driver/Src/stm32f4xx_ll_fmc.c ****   assert_param(IS_FMC_NAND_BANK(Bank));
 946:/home/paulo/Alexandria/STM32Cube_FW_F4_V1.23.0/Drivers/STM32F4xx_HAL_Driver/Src/stm32f4xx_ll_fmc.c ****       
 947:/home/paulo/Alexandria/STM32Cube_FW_F4_V1.23.0/Drivers/STM32F4xx_HAL_Driver/Src/stm32f4xx_ll_fmc.c ****   /* Disable the NAND Bank */
 948:/home/paulo/Alexandria/STM32Cube_FW_F4_V1.23.0/Drivers/STM32F4xx_HAL_Driver/Src/stm32f4xx_ll_fmc.c ****   __FMC_NAND_DISABLE(Device, Bank);
 949:/home/paulo/Alexandria/STM32Cube_FW_F4_V1.23.0/Drivers/STM32F4xx_HAL_Driver/Src/stm32f4xx_ll_fmc.c ****  
 950:/home/paulo/Alexandria/STM32Cube_FW_F4_V1.23.0/Drivers/STM32F4xx_HAL_Driver/Src/stm32f4xx_ll_fmc.c ****   /* De-initialize the NAND Bank */
 951:/home/paulo/Alexandria/STM32Cube_FW_F4_V1.23.0/Drivers/STM32F4xx_HAL_Driver/Src/stm32f4xx_ll_fmc.c ****   if(Bank == FMC_NAND_BANK2)
 952:/home/paulo/Alexandria/STM32Cube_FW_F4_V1.23.0/Drivers/STM32F4xx_HAL_Driver/Src/stm32f4xx_ll_fmc.c ****   {
 953:/home/paulo/Alexandria/STM32Cube_FW_F4_V1.23.0/Drivers/STM32F4xx_HAL_Driver/Src/stm32f4xx_ll_fmc.c ****     /* Set the FMC_NAND_BANK2 registers to their reset values */
 954:/home/paulo/Alexandria/STM32Cube_FW_F4_V1.23.0/Drivers/STM32F4xx_HAL_Driver/Src/stm32f4xx_ll_fmc.c ****     Device->PCR2  = 0x00000018U;
 955:/home/paulo/Alexandria/STM32Cube_FW_F4_V1.23.0/Drivers/STM32F4xx_HAL_Driver/Src/stm32f4xx_ll_fmc.c ****     Device->SR2   = 0x00000040U;
 956:/home/paulo/Alexandria/STM32Cube_FW_F4_V1.23.0/Drivers/STM32F4xx_HAL_Driver/Src/stm32f4xx_ll_fmc.c ****     Device->PMEM2 = 0xFCFCFCFCU;
 957:/home/paulo/Alexandria/STM32Cube_FW_F4_V1.23.0/Drivers/STM32F4xx_HAL_Driver/Src/stm32f4xx_ll_fmc.c ****     Device->PATT2 = 0xFCFCFCFCU;  
 958:/home/paulo/Alexandria/STM32Cube_FW_F4_V1.23.0/Drivers/STM32F4xx_HAL_Driver/Src/stm32f4xx_ll_fmc.c ****   }
 959:/home/paulo/Alexandria/STM32Cube_FW_F4_V1.23.0/Drivers/STM32F4xx_HAL_Driver/Src/stm32f4xx_ll_fmc.c ****   /* FMC_Bank3_NAND */  
 960:/home/paulo/Alexandria/STM32Cube_FW_F4_V1.23.0/Drivers/STM32F4xx_HAL_Driver/Src/stm32f4xx_ll_fmc.c ****   else
 961:/home/paulo/Alexandria/STM32Cube_FW_F4_V1.23.0/Drivers/STM32F4xx_HAL_Driver/Src/stm32f4xx_ll_fmc.c ****   {
 962:/home/paulo/Alexandria/STM32Cube_FW_F4_V1.23.0/Drivers/STM32F4xx_HAL_Driver/Src/stm32f4xx_ll_fmc.c ****     /* Set the FMC_NAND_BANK3 registers to their reset values */
 963:/home/paulo/Alexandria/STM32Cube_FW_F4_V1.23.0/Drivers/STM32F4xx_HAL_Driver/Src/stm32f4xx_ll_fmc.c ****     Device->PCR3  = 0x00000018U;
 964:/home/paulo/Alexandria/STM32Cube_FW_F4_V1.23.0/Drivers/STM32F4xx_HAL_Driver/Src/stm32f4xx_ll_fmc.c ****     Device->SR3   = 0x00000040U;
 965:/home/paulo/Alexandria/STM32Cube_FW_F4_V1.23.0/Drivers/STM32F4xx_HAL_Driver/Src/stm32f4xx_ll_fmc.c ****     Device->PMEM3 = 0xFCFCFCFCU;
 966:/home/paulo/Alexandria/STM32Cube_FW_F4_V1.23.0/Drivers/STM32F4xx_HAL_Driver/Src/stm32f4xx_ll_fmc.c ****     Device->PATT3 = 0xFCFCFCFCU; 
 967:/home/paulo/Alexandria/STM32Cube_FW_F4_V1.23.0/Drivers/STM32F4xx_HAL_Driver/Src/stm32f4xx_ll_fmc.c ****   }
 968:/home/paulo/Alexandria/STM32Cube_FW_F4_V1.23.0/Drivers/STM32F4xx_HAL_Driver/Src/stm32f4xx_ll_fmc.c ****   
 969:/home/paulo/Alexandria/STM32Cube_FW_F4_V1.23.0/Drivers/STM32F4xx_HAL_Driver/Src/stm32f4xx_ll_fmc.c ****   return HAL_OK;
 970:/home/paulo/Alexandria/STM32Cube_FW_F4_V1.23.0/Drivers/STM32F4xx_HAL_Driver/Src/stm32f4xx_ll_fmc.c **** }
 971:/home/paulo/Alexandria/STM32Cube_FW_F4_V1.23.0/Drivers/STM32F4xx_HAL_Driver/Src/stm32f4xx_ll_fmc.c **** 
 972:/home/paulo/Alexandria/STM32Cube_FW_F4_V1.23.0/Drivers/STM32F4xx_HAL_Driver/Src/stm32f4xx_ll_fmc.c **** /**
 973:/home/paulo/Alexandria/STM32Cube_FW_F4_V1.23.0/Drivers/STM32F4xx_HAL_Driver/Src/stm32f4xx_ll_fmc.c ****   * @}
 974:/home/paulo/Alexandria/STM32Cube_FW_F4_V1.23.0/Drivers/STM32F4xx_HAL_Driver/Src/stm32f4xx_ll_fmc.c ****   */
 975:/home/paulo/Alexandria/STM32Cube_FW_F4_V1.23.0/Drivers/STM32F4xx_HAL_Driver/Src/stm32f4xx_ll_fmc.c **** 
 976:/home/paulo/Alexandria/STM32Cube_FW_F4_V1.23.0/Drivers/STM32F4xx_HAL_Driver/Src/stm32f4xx_ll_fmc.c **** /** @addtogroup FMC_LL_NAND_Private_Functions_Group2
 977:/home/paulo/Alexandria/STM32Cube_FW_F4_V1.23.0/Drivers/STM32F4xx_HAL_Driver/Src/stm32f4xx_ll_fmc.c ****   *  @brief   management functions 
 978:/home/paulo/Alexandria/STM32Cube_FW_F4_V1.23.0/Drivers/STM32F4xx_HAL_Driver/Src/stm32f4xx_ll_fmc.c ****   *
 979:/home/paulo/Alexandria/STM32Cube_FW_F4_V1.23.0/Drivers/STM32F4xx_HAL_Driver/Src/stm32f4xx_ll_fmc.c **** @verbatim   
 980:/home/paulo/Alexandria/STM32Cube_FW_F4_V1.23.0/Drivers/STM32F4xx_HAL_Driver/Src/stm32f4xx_ll_fmc.c ****   ==============================================================================
 981:/home/paulo/Alexandria/STM32Cube_FW_F4_V1.23.0/Drivers/STM32F4xx_HAL_Driver/Src/stm32f4xx_ll_fmc.c ****                        ##### FMC_NAND Control functions #####
 982:/home/paulo/Alexandria/STM32Cube_FW_F4_V1.23.0/Drivers/STM32F4xx_HAL_Driver/Src/stm32f4xx_ll_fmc.c ****   ==============================================================================  
 983:/home/paulo/Alexandria/STM32Cube_FW_F4_V1.23.0/Drivers/STM32F4xx_HAL_Driver/Src/stm32f4xx_ll_fmc.c ****   [..]
 984:/home/paulo/Alexandria/STM32Cube_FW_F4_V1.23.0/Drivers/STM32F4xx_HAL_Driver/Src/stm32f4xx_ll_fmc.c ****     This subsection provides a set of functions allowing to control dynamically
 985:/home/paulo/Alexandria/STM32Cube_FW_F4_V1.23.0/Drivers/STM32F4xx_HAL_Driver/Src/stm32f4xx_ll_fmc.c ****     the FMC NAND interface.
 986:/home/paulo/Alexandria/STM32Cube_FW_F4_V1.23.0/Drivers/STM32F4xx_HAL_Driver/Src/stm32f4xx_ll_fmc.c **** 
 987:/home/paulo/Alexandria/STM32Cube_FW_F4_V1.23.0/Drivers/STM32F4xx_HAL_Driver/Src/stm32f4xx_ll_fmc.c **** @endverbatim
 988:/home/paulo/Alexandria/STM32Cube_FW_F4_V1.23.0/Drivers/STM32F4xx_HAL_Driver/Src/stm32f4xx_ll_fmc.c ****   * @{
ARM GAS  /tmp/cc0gW0uU.s 			page 36


 989:/home/paulo/Alexandria/STM32Cube_FW_F4_V1.23.0/Drivers/STM32F4xx_HAL_Driver/Src/stm32f4xx_ll_fmc.c ****   */ 
 990:/home/paulo/Alexandria/STM32Cube_FW_F4_V1.23.0/Drivers/STM32F4xx_HAL_Driver/Src/stm32f4xx_ll_fmc.c **** /**
 991:/home/paulo/Alexandria/STM32Cube_FW_F4_V1.23.0/Drivers/STM32F4xx_HAL_Driver/Src/stm32f4xx_ll_fmc.c ****   * @brief  Enables dynamically FMC_NAND ECC feature.
 992:/home/paulo/Alexandria/STM32Cube_FW_F4_V1.23.0/Drivers/STM32F4xx_HAL_Driver/Src/stm32f4xx_ll_fmc.c ****   * @param  Device Pointer to NAND device instance
 993:/home/paulo/Alexandria/STM32Cube_FW_F4_V1.23.0/Drivers/STM32F4xx_HAL_Driver/Src/stm32f4xx_ll_fmc.c ****   * @param  Bank NAND bank number
 994:/home/paulo/Alexandria/STM32Cube_FW_F4_V1.23.0/Drivers/STM32F4xx_HAL_Driver/Src/stm32f4xx_ll_fmc.c ****   * @retval HAL status
 995:/home/paulo/Alexandria/STM32Cube_FW_F4_V1.23.0/Drivers/STM32F4xx_HAL_Driver/Src/stm32f4xx_ll_fmc.c ****   */    
 996:/home/paulo/Alexandria/STM32Cube_FW_F4_V1.23.0/Drivers/STM32F4xx_HAL_Driver/Src/stm32f4xx_ll_fmc.c **** HAL_StatusTypeDef FMC_NAND_ECC_Enable(FMC_NAND_TypeDef *Device, uint32_t Bank)
 997:/home/paulo/Alexandria/STM32Cube_FW_F4_V1.23.0/Drivers/STM32F4xx_HAL_Driver/Src/stm32f4xx_ll_fmc.c **** {
 998:/home/paulo/Alexandria/STM32Cube_FW_F4_V1.23.0/Drivers/STM32F4xx_HAL_Driver/Src/stm32f4xx_ll_fmc.c ****   /* Check the parameters */ 
 999:/home/paulo/Alexandria/STM32Cube_FW_F4_V1.23.0/Drivers/STM32F4xx_HAL_Driver/Src/stm32f4xx_ll_fmc.c ****   assert_param(IS_FMC_NAND_DEVICE(Device)); 
1000:/home/paulo/Alexandria/STM32Cube_FW_F4_V1.23.0/Drivers/STM32F4xx_HAL_Driver/Src/stm32f4xx_ll_fmc.c ****   assert_param(IS_FMC_NAND_BANK(Bank));
1001:/home/paulo/Alexandria/STM32Cube_FW_F4_V1.23.0/Drivers/STM32F4xx_HAL_Driver/Src/stm32f4xx_ll_fmc.c ****     
1002:/home/paulo/Alexandria/STM32Cube_FW_F4_V1.23.0/Drivers/STM32F4xx_HAL_Driver/Src/stm32f4xx_ll_fmc.c ****   /* Enable ECC feature */
1003:/home/paulo/Alexandria/STM32Cube_FW_F4_V1.23.0/Drivers/STM32F4xx_HAL_Driver/Src/stm32f4xx_ll_fmc.c ****   if(Bank == FMC_NAND_BANK2)
1004:/home/paulo/Alexandria/STM32Cube_FW_F4_V1.23.0/Drivers/STM32F4xx_HAL_Driver/Src/stm32f4xx_ll_fmc.c ****   {
1005:/home/paulo/Alexandria/STM32Cube_FW_F4_V1.23.0/Drivers/STM32F4xx_HAL_Driver/Src/stm32f4xx_ll_fmc.c ****     Device->PCR2 |= FMC_PCR2_ECCEN;
1006:/home/paulo/Alexandria/STM32Cube_FW_F4_V1.23.0/Drivers/STM32F4xx_HAL_Driver/Src/stm32f4xx_ll_fmc.c ****   }
1007:/home/paulo/Alexandria/STM32Cube_FW_F4_V1.23.0/Drivers/STM32F4xx_HAL_Driver/Src/stm32f4xx_ll_fmc.c ****   else
1008:/home/paulo/Alexandria/STM32Cube_FW_F4_V1.23.0/Drivers/STM32F4xx_HAL_Driver/Src/stm32f4xx_ll_fmc.c ****   {
1009:/home/paulo/Alexandria/STM32Cube_FW_F4_V1.23.0/Drivers/STM32F4xx_HAL_Driver/Src/stm32f4xx_ll_fmc.c ****     Device->PCR3 |= FMC_PCR3_ECCEN;
1010:/home/paulo/Alexandria/STM32Cube_FW_F4_V1.23.0/Drivers/STM32F4xx_HAL_Driver/Src/stm32f4xx_ll_fmc.c ****   } 
1011:/home/paulo/Alexandria/STM32Cube_FW_F4_V1.23.0/Drivers/STM32F4xx_HAL_Driver/Src/stm32f4xx_ll_fmc.c ****   
1012:/home/paulo/Alexandria/STM32Cube_FW_F4_V1.23.0/Drivers/STM32F4xx_HAL_Driver/Src/stm32f4xx_ll_fmc.c ****   return HAL_OK;  
1013:/home/paulo/Alexandria/STM32Cube_FW_F4_V1.23.0/Drivers/STM32F4xx_HAL_Driver/Src/stm32f4xx_ll_fmc.c **** }
1014:/home/paulo/Alexandria/STM32Cube_FW_F4_V1.23.0/Drivers/STM32F4xx_HAL_Driver/Src/stm32f4xx_ll_fmc.c **** 
1015:/home/paulo/Alexandria/STM32Cube_FW_F4_V1.23.0/Drivers/STM32F4xx_HAL_Driver/Src/stm32f4xx_ll_fmc.c **** /**
1016:/home/paulo/Alexandria/STM32Cube_FW_F4_V1.23.0/Drivers/STM32F4xx_HAL_Driver/Src/stm32f4xx_ll_fmc.c ****   * @brief  Disables dynamically FMC_NAND ECC feature.
1017:/home/paulo/Alexandria/STM32Cube_FW_F4_V1.23.0/Drivers/STM32F4xx_HAL_Driver/Src/stm32f4xx_ll_fmc.c ****   * @param  Device Pointer to NAND device instance
1018:/home/paulo/Alexandria/STM32Cube_FW_F4_V1.23.0/Drivers/STM32F4xx_HAL_Driver/Src/stm32f4xx_ll_fmc.c ****   * @param  Bank NAND bank number
1019:/home/paulo/Alexandria/STM32Cube_FW_F4_V1.23.0/Drivers/STM32F4xx_HAL_Driver/Src/stm32f4xx_ll_fmc.c ****   * @retval HAL status
1020:/home/paulo/Alexandria/STM32Cube_FW_F4_V1.23.0/Drivers/STM32F4xx_HAL_Driver/Src/stm32f4xx_ll_fmc.c ****   */  
1021:/home/paulo/Alexandria/STM32Cube_FW_F4_V1.23.0/Drivers/STM32F4xx_HAL_Driver/Src/stm32f4xx_ll_fmc.c **** HAL_StatusTypeDef FMC_NAND_ECC_Disable(FMC_NAND_TypeDef *Device, uint32_t Bank)  
1022:/home/paulo/Alexandria/STM32Cube_FW_F4_V1.23.0/Drivers/STM32F4xx_HAL_Driver/Src/stm32f4xx_ll_fmc.c **** {  
1023:/home/paulo/Alexandria/STM32Cube_FW_F4_V1.23.0/Drivers/STM32F4xx_HAL_Driver/Src/stm32f4xx_ll_fmc.c ****   /* Check the parameters */ 
1024:/home/paulo/Alexandria/STM32Cube_FW_F4_V1.23.0/Drivers/STM32F4xx_HAL_Driver/Src/stm32f4xx_ll_fmc.c ****   assert_param(IS_FMC_NAND_DEVICE(Device)); 
1025:/home/paulo/Alexandria/STM32Cube_FW_F4_V1.23.0/Drivers/STM32F4xx_HAL_Driver/Src/stm32f4xx_ll_fmc.c ****   assert_param(IS_FMC_NAND_BANK(Bank));
1026:/home/paulo/Alexandria/STM32Cube_FW_F4_V1.23.0/Drivers/STM32F4xx_HAL_Driver/Src/stm32f4xx_ll_fmc.c ****     
1027:/home/paulo/Alexandria/STM32Cube_FW_F4_V1.23.0/Drivers/STM32F4xx_HAL_Driver/Src/stm32f4xx_ll_fmc.c ****   /* Disable ECC feature */
1028:/home/paulo/Alexandria/STM32Cube_FW_F4_V1.23.0/Drivers/STM32F4xx_HAL_Driver/Src/stm32f4xx_ll_fmc.c ****   if(Bank == FMC_NAND_BANK2)
1029:/home/paulo/Alexandria/STM32Cube_FW_F4_V1.23.0/Drivers/STM32F4xx_HAL_Driver/Src/stm32f4xx_ll_fmc.c ****   {
1030:/home/paulo/Alexandria/STM32Cube_FW_F4_V1.23.0/Drivers/STM32F4xx_HAL_Driver/Src/stm32f4xx_ll_fmc.c ****     Device->PCR2 &= ~FMC_PCR2_ECCEN;
1031:/home/paulo/Alexandria/STM32Cube_FW_F4_V1.23.0/Drivers/STM32F4xx_HAL_Driver/Src/stm32f4xx_ll_fmc.c ****   }
1032:/home/paulo/Alexandria/STM32Cube_FW_F4_V1.23.0/Drivers/STM32F4xx_HAL_Driver/Src/stm32f4xx_ll_fmc.c ****   else
1033:/home/paulo/Alexandria/STM32Cube_FW_F4_V1.23.0/Drivers/STM32F4xx_HAL_Driver/Src/stm32f4xx_ll_fmc.c ****   {
1034:/home/paulo/Alexandria/STM32Cube_FW_F4_V1.23.0/Drivers/STM32F4xx_HAL_Driver/Src/stm32f4xx_ll_fmc.c ****     Device->PCR3 &= ~FMC_PCR3_ECCEN;
1035:/home/paulo/Alexandria/STM32Cube_FW_F4_V1.23.0/Drivers/STM32F4xx_HAL_Driver/Src/stm32f4xx_ll_fmc.c ****   } 
1036:/home/paulo/Alexandria/STM32Cube_FW_F4_V1.23.0/Drivers/STM32F4xx_HAL_Driver/Src/stm32f4xx_ll_fmc.c **** 
1037:/home/paulo/Alexandria/STM32Cube_FW_F4_V1.23.0/Drivers/STM32F4xx_HAL_Driver/Src/stm32f4xx_ll_fmc.c ****   return HAL_OK;  
1038:/home/paulo/Alexandria/STM32Cube_FW_F4_V1.23.0/Drivers/STM32F4xx_HAL_Driver/Src/stm32f4xx_ll_fmc.c **** }
1039:/home/paulo/Alexandria/STM32Cube_FW_F4_V1.23.0/Drivers/STM32F4xx_HAL_Driver/Src/stm32f4xx_ll_fmc.c **** 
1040:/home/paulo/Alexandria/STM32Cube_FW_F4_V1.23.0/Drivers/STM32F4xx_HAL_Driver/Src/stm32f4xx_ll_fmc.c **** /**
1041:/home/paulo/Alexandria/STM32Cube_FW_F4_V1.23.0/Drivers/STM32F4xx_HAL_Driver/Src/stm32f4xx_ll_fmc.c ****   * @brief  Disables dynamically FMC_NAND ECC feature.
1042:/home/paulo/Alexandria/STM32Cube_FW_F4_V1.23.0/Drivers/STM32F4xx_HAL_Driver/Src/stm32f4xx_ll_fmc.c ****   * @param  Device Pointer to NAND device instance
1043:/home/paulo/Alexandria/STM32Cube_FW_F4_V1.23.0/Drivers/STM32F4xx_HAL_Driver/Src/stm32f4xx_ll_fmc.c ****   * @param  ECCval Pointer to ECC value
1044:/home/paulo/Alexandria/STM32Cube_FW_F4_V1.23.0/Drivers/STM32F4xx_HAL_Driver/Src/stm32f4xx_ll_fmc.c ****   * @param  Bank NAND bank number
1045:/home/paulo/Alexandria/STM32Cube_FW_F4_V1.23.0/Drivers/STM32F4xx_HAL_Driver/Src/stm32f4xx_ll_fmc.c ****   * @param  Timeout Timeout wait value  
ARM GAS  /tmp/cc0gW0uU.s 			page 37


1046:/home/paulo/Alexandria/STM32Cube_FW_F4_V1.23.0/Drivers/STM32F4xx_HAL_Driver/Src/stm32f4xx_ll_fmc.c ****   * @retval HAL status
1047:/home/paulo/Alexandria/STM32Cube_FW_F4_V1.23.0/Drivers/STM32F4xx_HAL_Driver/Src/stm32f4xx_ll_fmc.c ****   */
1048:/home/paulo/Alexandria/STM32Cube_FW_F4_V1.23.0/Drivers/STM32F4xx_HAL_Driver/Src/stm32f4xx_ll_fmc.c **** HAL_StatusTypeDef FMC_NAND_GetECC(FMC_NAND_TypeDef *Device, uint32_t *ECCval, uint32_t Bank, uint32
1049:/home/paulo/Alexandria/STM32Cube_FW_F4_V1.23.0/Drivers/STM32F4xx_HAL_Driver/Src/stm32f4xx_ll_fmc.c **** {
1050:/home/paulo/Alexandria/STM32Cube_FW_F4_V1.23.0/Drivers/STM32F4xx_HAL_Driver/Src/stm32f4xx_ll_fmc.c ****   uint32_t tickstart = 0U;
1051:/home/paulo/Alexandria/STM32Cube_FW_F4_V1.23.0/Drivers/STM32F4xx_HAL_Driver/Src/stm32f4xx_ll_fmc.c **** 
1052:/home/paulo/Alexandria/STM32Cube_FW_F4_V1.23.0/Drivers/STM32F4xx_HAL_Driver/Src/stm32f4xx_ll_fmc.c ****   /* Check the parameters */ 
1053:/home/paulo/Alexandria/STM32Cube_FW_F4_V1.23.0/Drivers/STM32F4xx_HAL_Driver/Src/stm32f4xx_ll_fmc.c ****   assert_param(IS_FMC_NAND_DEVICE(Device)); 
1054:/home/paulo/Alexandria/STM32Cube_FW_F4_V1.23.0/Drivers/STM32F4xx_HAL_Driver/Src/stm32f4xx_ll_fmc.c ****   assert_param(IS_FMC_NAND_BANK(Bank));
1055:/home/paulo/Alexandria/STM32Cube_FW_F4_V1.23.0/Drivers/STM32F4xx_HAL_Driver/Src/stm32f4xx_ll_fmc.c **** 
1056:/home/paulo/Alexandria/STM32Cube_FW_F4_V1.23.0/Drivers/STM32F4xx_HAL_Driver/Src/stm32f4xx_ll_fmc.c ****   /* Get tick */ 
1057:/home/paulo/Alexandria/STM32Cube_FW_F4_V1.23.0/Drivers/STM32F4xx_HAL_Driver/Src/stm32f4xx_ll_fmc.c ****   tickstart = HAL_GetTick();
1058:/home/paulo/Alexandria/STM32Cube_FW_F4_V1.23.0/Drivers/STM32F4xx_HAL_Driver/Src/stm32f4xx_ll_fmc.c **** 
1059:/home/paulo/Alexandria/STM32Cube_FW_F4_V1.23.0/Drivers/STM32F4xx_HAL_Driver/Src/stm32f4xx_ll_fmc.c ****   /* Wait until FIFO is empty */
1060:/home/paulo/Alexandria/STM32Cube_FW_F4_V1.23.0/Drivers/STM32F4xx_HAL_Driver/Src/stm32f4xx_ll_fmc.c ****   while(__FMC_NAND_GET_FLAG(Device, Bank, FMC_FLAG_FEMPT) == RESET)
1061:/home/paulo/Alexandria/STM32Cube_FW_F4_V1.23.0/Drivers/STM32F4xx_HAL_Driver/Src/stm32f4xx_ll_fmc.c ****   {
1062:/home/paulo/Alexandria/STM32Cube_FW_F4_V1.23.0/Drivers/STM32F4xx_HAL_Driver/Src/stm32f4xx_ll_fmc.c ****     /* Check for the Timeout */
1063:/home/paulo/Alexandria/STM32Cube_FW_F4_V1.23.0/Drivers/STM32F4xx_HAL_Driver/Src/stm32f4xx_ll_fmc.c ****     if(Timeout != HAL_MAX_DELAY)
1064:/home/paulo/Alexandria/STM32Cube_FW_F4_V1.23.0/Drivers/STM32F4xx_HAL_Driver/Src/stm32f4xx_ll_fmc.c ****     {
1065:/home/paulo/Alexandria/STM32Cube_FW_F4_V1.23.0/Drivers/STM32F4xx_HAL_Driver/Src/stm32f4xx_ll_fmc.c ****       if((Timeout == 0U)||((HAL_GetTick() - tickstart ) > Timeout))
1066:/home/paulo/Alexandria/STM32Cube_FW_F4_V1.23.0/Drivers/STM32F4xx_HAL_Driver/Src/stm32f4xx_ll_fmc.c ****       {
1067:/home/paulo/Alexandria/STM32Cube_FW_F4_V1.23.0/Drivers/STM32F4xx_HAL_Driver/Src/stm32f4xx_ll_fmc.c ****         return HAL_TIMEOUT;
1068:/home/paulo/Alexandria/STM32Cube_FW_F4_V1.23.0/Drivers/STM32F4xx_HAL_Driver/Src/stm32f4xx_ll_fmc.c ****       }
1069:/home/paulo/Alexandria/STM32Cube_FW_F4_V1.23.0/Drivers/STM32F4xx_HAL_Driver/Src/stm32f4xx_ll_fmc.c ****     }  
1070:/home/paulo/Alexandria/STM32Cube_FW_F4_V1.23.0/Drivers/STM32F4xx_HAL_Driver/Src/stm32f4xx_ll_fmc.c ****   }
1071:/home/paulo/Alexandria/STM32Cube_FW_F4_V1.23.0/Drivers/STM32F4xx_HAL_Driver/Src/stm32f4xx_ll_fmc.c ****      
1072:/home/paulo/Alexandria/STM32Cube_FW_F4_V1.23.0/Drivers/STM32F4xx_HAL_Driver/Src/stm32f4xx_ll_fmc.c ****   if(Bank == FMC_NAND_BANK2)
1073:/home/paulo/Alexandria/STM32Cube_FW_F4_V1.23.0/Drivers/STM32F4xx_HAL_Driver/Src/stm32f4xx_ll_fmc.c ****   {    
1074:/home/paulo/Alexandria/STM32Cube_FW_F4_V1.23.0/Drivers/STM32F4xx_HAL_Driver/Src/stm32f4xx_ll_fmc.c ****     /* Get the ECCR2 register value */
1075:/home/paulo/Alexandria/STM32Cube_FW_F4_V1.23.0/Drivers/STM32F4xx_HAL_Driver/Src/stm32f4xx_ll_fmc.c ****     *ECCval = (uint32_t)Device->ECCR2;
1076:/home/paulo/Alexandria/STM32Cube_FW_F4_V1.23.0/Drivers/STM32F4xx_HAL_Driver/Src/stm32f4xx_ll_fmc.c ****   }
1077:/home/paulo/Alexandria/STM32Cube_FW_F4_V1.23.0/Drivers/STM32F4xx_HAL_Driver/Src/stm32f4xx_ll_fmc.c ****   else
1078:/home/paulo/Alexandria/STM32Cube_FW_F4_V1.23.0/Drivers/STM32F4xx_HAL_Driver/Src/stm32f4xx_ll_fmc.c ****   {    
1079:/home/paulo/Alexandria/STM32Cube_FW_F4_V1.23.0/Drivers/STM32F4xx_HAL_Driver/Src/stm32f4xx_ll_fmc.c ****     /* Get the ECCR3 register value */
1080:/home/paulo/Alexandria/STM32Cube_FW_F4_V1.23.0/Drivers/STM32F4xx_HAL_Driver/Src/stm32f4xx_ll_fmc.c ****     *ECCval = (uint32_t)Device->ECCR3;
1081:/home/paulo/Alexandria/STM32Cube_FW_F4_V1.23.0/Drivers/STM32F4xx_HAL_Driver/Src/stm32f4xx_ll_fmc.c ****   }
1082:/home/paulo/Alexandria/STM32Cube_FW_F4_V1.23.0/Drivers/STM32F4xx_HAL_Driver/Src/stm32f4xx_ll_fmc.c **** 
1083:/home/paulo/Alexandria/STM32Cube_FW_F4_V1.23.0/Drivers/STM32F4xx_HAL_Driver/Src/stm32f4xx_ll_fmc.c ****   return HAL_OK;  
1084:/home/paulo/Alexandria/STM32Cube_FW_F4_V1.23.0/Drivers/STM32F4xx_HAL_Driver/Src/stm32f4xx_ll_fmc.c **** }
1085:/home/paulo/Alexandria/STM32Cube_FW_F4_V1.23.0/Drivers/STM32F4xx_HAL_Driver/Src/stm32f4xx_ll_fmc.c **** 
1086:/home/paulo/Alexandria/STM32Cube_FW_F4_V1.23.0/Drivers/STM32F4xx_HAL_Driver/Src/stm32f4xx_ll_fmc.c **** /**
1087:/home/paulo/Alexandria/STM32Cube_FW_F4_V1.23.0/Drivers/STM32F4xx_HAL_Driver/Src/stm32f4xx_ll_fmc.c ****   * @}
1088:/home/paulo/Alexandria/STM32Cube_FW_F4_V1.23.0/Drivers/STM32F4xx_HAL_Driver/Src/stm32f4xx_ll_fmc.c ****   */
1089:/home/paulo/Alexandria/STM32Cube_FW_F4_V1.23.0/Drivers/STM32F4xx_HAL_Driver/Src/stm32f4xx_ll_fmc.c **** 
1090:/home/paulo/Alexandria/STM32Cube_FW_F4_V1.23.0/Drivers/STM32F4xx_HAL_Driver/Src/stm32f4xx_ll_fmc.c **** #endif /* defined(STM32F446xx) || defined(STM32F469xx) || defined(STM32F479xx) */
1091:/home/paulo/Alexandria/STM32Cube_FW_F4_V1.23.0/Drivers/STM32F4xx_HAL_Driver/Src/stm32f4xx_ll_fmc.c **** /**
1092:/home/paulo/Alexandria/STM32Cube_FW_F4_V1.23.0/Drivers/STM32F4xx_HAL_Driver/Src/stm32f4xx_ll_fmc.c ****   * @}
1093:/home/paulo/Alexandria/STM32Cube_FW_F4_V1.23.0/Drivers/STM32F4xx_HAL_Driver/Src/stm32f4xx_ll_fmc.c ****   */
1094:/home/paulo/Alexandria/STM32Cube_FW_F4_V1.23.0/Drivers/STM32F4xx_HAL_Driver/Src/stm32f4xx_ll_fmc.c **** 
1095:/home/paulo/Alexandria/STM32Cube_FW_F4_V1.23.0/Drivers/STM32F4xx_HAL_Driver/Src/stm32f4xx_ll_fmc.c **** #if defined(STM32F427xx) || defined(STM32F437xx) || defined(STM32F429xx) || defined(STM32F439xx)
1096:/home/paulo/Alexandria/STM32Cube_FW_F4_V1.23.0/Drivers/STM32F4xx_HAL_Driver/Src/stm32f4xx_ll_fmc.c **** /** @addtogroup FMC_LL_PCCARD
1097:/home/paulo/Alexandria/STM32Cube_FW_F4_V1.23.0/Drivers/STM32F4xx_HAL_Driver/Src/stm32f4xx_ll_fmc.c ****   * @brief    PCCARD Controller functions 
1098:/home/paulo/Alexandria/STM32Cube_FW_F4_V1.23.0/Drivers/STM32F4xx_HAL_Driver/Src/stm32f4xx_ll_fmc.c ****   *
1099:/home/paulo/Alexandria/STM32Cube_FW_F4_V1.23.0/Drivers/STM32F4xx_HAL_Driver/Src/stm32f4xx_ll_fmc.c ****   @verbatim 
1100:/home/paulo/Alexandria/STM32Cube_FW_F4_V1.23.0/Drivers/STM32F4xx_HAL_Driver/Src/stm32f4xx_ll_fmc.c ****   ==============================================================================  
1101:/home/paulo/Alexandria/STM32Cube_FW_F4_V1.23.0/Drivers/STM32F4xx_HAL_Driver/Src/stm32f4xx_ll_fmc.c ****                     ##### How to use PCCARD device driver #####
1102:/home/paulo/Alexandria/STM32Cube_FW_F4_V1.23.0/Drivers/STM32F4xx_HAL_Driver/Src/stm32f4xx_ll_fmc.c ****   ==============================================================================
ARM GAS  /tmp/cc0gW0uU.s 			page 38


1103:/home/paulo/Alexandria/STM32Cube_FW_F4_V1.23.0/Drivers/STM32F4xx_HAL_Driver/Src/stm32f4xx_ll_fmc.c ****   [..]
1104:/home/paulo/Alexandria/STM32Cube_FW_F4_V1.23.0/Drivers/STM32F4xx_HAL_Driver/Src/stm32f4xx_ll_fmc.c ****     This driver contains a set of APIs to interface with the FMC PCCARD bank in order
1105:/home/paulo/Alexandria/STM32Cube_FW_F4_V1.23.0/Drivers/STM32F4xx_HAL_Driver/Src/stm32f4xx_ll_fmc.c ****     to run the PCCARD/compact flash external devices.
1106:/home/paulo/Alexandria/STM32Cube_FW_F4_V1.23.0/Drivers/STM32F4xx_HAL_Driver/Src/stm32f4xx_ll_fmc.c ****   
1107:/home/paulo/Alexandria/STM32Cube_FW_F4_V1.23.0/Drivers/STM32F4xx_HAL_Driver/Src/stm32f4xx_ll_fmc.c ****     (+) FMC PCCARD bank reset using the function FMC_PCCARD_DeInit() 
1108:/home/paulo/Alexandria/STM32Cube_FW_F4_V1.23.0/Drivers/STM32F4xx_HAL_Driver/Src/stm32f4xx_ll_fmc.c ****     (+) FMC PCCARD bank control configuration using the function FMC_PCCARD_Init()
1109:/home/paulo/Alexandria/STM32Cube_FW_F4_V1.23.0/Drivers/STM32F4xx_HAL_Driver/Src/stm32f4xx_ll_fmc.c ****     (+) FMC PCCARD bank common space timing configuration using the function 
1110:/home/paulo/Alexandria/STM32Cube_FW_F4_V1.23.0/Drivers/STM32F4xx_HAL_Driver/Src/stm32f4xx_ll_fmc.c ****         FMC_PCCARD_CommonSpace_Timing_Init()
1111:/home/paulo/Alexandria/STM32Cube_FW_F4_V1.23.0/Drivers/STM32F4xx_HAL_Driver/Src/stm32f4xx_ll_fmc.c ****     (+) FMC PCCARD bank attribute space timing configuration using the function 
1112:/home/paulo/Alexandria/STM32Cube_FW_F4_V1.23.0/Drivers/STM32F4xx_HAL_Driver/Src/stm32f4xx_ll_fmc.c ****         FMC_PCCARD_AttributeSpace_Timing_Init()
1113:/home/paulo/Alexandria/STM32Cube_FW_F4_V1.23.0/Drivers/STM32F4xx_HAL_Driver/Src/stm32f4xx_ll_fmc.c ****     (+) FMC PCCARD bank IO space timing configuration using the function 
1114:/home/paulo/Alexandria/STM32Cube_FW_F4_V1.23.0/Drivers/STM32F4xx_HAL_Driver/Src/stm32f4xx_ll_fmc.c ****         FMC_PCCARD_IOSpace_Timing_Init()
1115:/home/paulo/Alexandria/STM32Cube_FW_F4_V1.23.0/Drivers/STM32F4xx_HAL_Driver/Src/stm32f4xx_ll_fmc.c **** @endverbatim
1116:/home/paulo/Alexandria/STM32Cube_FW_F4_V1.23.0/Drivers/STM32F4xx_HAL_Driver/Src/stm32f4xx_ll_fmc.c ****   * @{
1117:/home/paulo/Alexandria/STM32Cube_FW_F4_V1.23.0/Drivers/STM32F4xx_HAL_Driver/Src/stm32f4xx_ll_fmc.c ****   */
1118:/home/paulo/Alexandria/STM32Cube_FW_F4_V1.23.0/Drivers/STM32F4xx_HAL_Driver/Src/stm32f4xx_ll_fmc.c ****   
1119:/home/paulo/Alexandria/STM32Cube_FW_F4_V1.23.0/Drivers/STM32F4xx_HAL_Driver/Src/stm32f4xx_ll_fmc.c **** /** @addtogroup FMC_LL_PCCARD_Private_Functions_Group1
1120:/home/paulo/Alexandria/STM32Cube_FW_F4_V1.23.0/Drivers/STM32F4xx_HAL_Driver/Src/stm32f4xx_ll_fmc.c ****   *  @brief    Initialization and Configuration functions 
1121:/home/paulo/Alexandria/STM32Cube_FW_F4_V1.23.0/Drivers/STM32F4xx_HAL_Driver/Src/stm32f4xx_ll_fmc.c ****   *
1122:/home/paulo/Alexandria/STM32Cube_FW_F4_V1.23.0/Drivers/STM32F4xx_HAL_Driver/Src/stm32f4xx_ll_fmc.c **** @verbatim    
1123:/home/paulo/Alexandria/STM32Cube_FW_F4_V1.23.0/Drivers/STM32F4xx_HAL_Driver/Src/stm32f4xx_ll_fmc.c ****   ==============================================================================
1124:/home/paulo/Alexandria/STM32Cube_FW_F4_V1.23.0/Drivers/STM32F4xx_HAL_Driver/Src/stm32f4xx_ll_fmc.c ****               ##### Initialization and de_initialization functions #####
1125:/home/paulo/Alexandria/STM32Cube_FW_F4_V1.23.0/Drivers/STM32F4xx_HAL_Driver/Src/stm32f4xx_ll_fmc.c ****   ==============================================================================
1126:/home/paulo/Alexandria/STM32Cube_FW_F4_V1.23.0/Drivers/STM32F4xx_HAL_Driver/Src/stm32f4xx_ll_fmc.c ****   [..]  
1127:/home/paulo/Alexandria/STM32Cube_FW_F4_V1.23.0/Drivers/STM32F4xx_HAL_Driver/Src/stm32f4xx_ll_fmc.c ****     This section provides functions allowing to:
1128:/home/paulo/Alexandria/STM32Cube_FW_F4_V1.23.0/Drivers/STM32F4xx_HAL_Driver/Src/stm32f4xx_ll_fmc.c ****     (+) Initialize and configure the FMC PCCARD interface
1129:/home/paulo/Alexandria/STM32Cube_FW_F4_V1.23.0/Drivers/STM32F4xx_HAL_Driver/Src/stm32f4xx_ll_fmc.c ****     (+) De-initialize the FMC PCCARD interface 
1130:/home/paulo/Alexandria/STM32Cube_FW_F4_V1.23.0/Drivers/STM32F4xx_HAL_Driver/Src/stm32f4xx_ll_fmc.c ****     (+) Configure the FMC clock and associated GPIOs
1131:/home/paulo/Alexandria/STM32Cube_FW_F4_V1.23.0/Drivers/STM32F4xx_HAL_Driver/Src/stm32f4xx_ll_fmc.c ****         
1132:/home/paulo/Alexandria/STM32Cube_FW_F4_V1.23.0/Drivers/STM32F4xx_HAL_Driver/Src/stm32f4xx_ll_fmc.c **** @endverbatim
1133:/home/paulo/Alexandria/STM32Cube_FW_F4_V1.23.0/Drivers/STM32F4xx_HAL_Driver/Src/stm32f4xx_ll_fmc.c ****   * @{
1134:/home/paulo/Alexandria/STM32Cube_FW_F4_V1.23.0/Drivers/STM32F4xx_HAL_Driver/Src/stm32f4xx_ll_fmc.c ****   */
1135:/home/paulo/Alexandria/STM32Cube_FW_F4_V1.23.0/Drivers/STM32F4xx_HAL_Driver/Src/stm32f4xx_ll_fmc.c ****   
1136:/home/paulo/Alexandria/STM32Cube_FW_F4_V1.23.0/Drivers/STM32F4xx_HAL_Driver/Src/stm32f4xx_ll_fmc.c **** /**
1137:/home/paulo/Alexandria/STM32Cube_FW_F4_V1.23.0/Drivers/STM32F4xx_HAL_Driver/Src/stm32f4xx_ll_fmc.c ****   * @brief  Initializes the FMC_PCCARD device according to the specified
1138:/home/paulo/Alexandria/STM32Cube_FW_F4_V1.23.0/Drivers/STM32F4xx_HAL_Driver/Src/stm32f4xx_ll_fmc.c ****   *         control parameters in the FMC_PCCARD_HandleTypeDef
1139:/home/paulo/Alexandria/STM32Cube_FW_F4_V1.23.0/Drivers/STM32F4xx_HAL_Driver/Src/stm32f4xx_ll_fmc.c ****   * @param  Device Pointer to PCCARD device instance
1140:/home/paulo/Alexandria/STM32Cube_FW_F4_V1.23.0/Drivers/STM32F4xx_HAL_Driver/Src/stm32f4xx_ll_fmc.c ****   * @param  Init Pointer to PCCARD Initialization structure   
1141:/home/paulo/Alexandria/STM32Cube_FW_F4_V1.23.0/Drivers/STM32F4xx_HAL_Driver/Src/stm32f4xx_ll_fmc.c ****   * @retval HAL status
1142:/home/paulo/Alexandria/STM32Cube_FW_F4_V1.23.0/Drivers/STM32F4xx_HAL_Driver/Src/stm32f4xx_ll_fmc.c ****   */
1143:/home/paulo/Alexandria/STM32Cube_FW_F4_V1.23.0/Drivers/STM32F4xx_HAL_Driver/Src/stm32f4xx_ll_fmc.c **** HAL_StatusTypeDef FMC_PCCARD_Init(FMC_PCCARD_TypeDef *Device, FMC_PCCARD_InitTypeDef *Init)
1144:/home/paulo/Alexandria/STM32Cube_FW_F4_V1.23.0/Drivers/STM32F4xx_HAL_Driver/Src/stm32f4xx_ll_fmc.c **** {
1145:/home/paulo/Alexandria/STM32Cube_FW_F4_V1.23.0/Drivers/STM32F4xx_HAL_Driver/Src/stm32f4xx_ll_fmc.c ****   uint32_t tmpr = 0U;
1146:/home/paulo/Alexandria/STM32Cube_FW_F4_V1.23.0/Drivers/STM32F4xx_HAL_Driver/Src/stm32f4xx_ll_fmc.c **** 
1147:/home/paulo/Alexandria/STM32Cube_FW_F4_V1.23.0/Drivers/STM32F4xx_HAL_Driver/Src/stm32f4xx_ll_fmc.c ****   /* Check the parameters */ 
1148:/home/paulo/Alexandria/STM32Cube_FW_F4_V1.23.0/Drivers/STM32F4xx_HAL_Driver/Src/stm32f4xx_ll_fmc.c ****   assert_param(IS_FMC_PCCARD_DEVICE(Device));
1149:/home/paulo/Alexandria/STM32Cube_FW_F4_V1.23.0/Drivers/STM32F4xx_HAL_Driver/Src/stm32f4xx_ll_fmc.c ****   assert_param(IS_FMC_WAIT_FEATURE(Init->Waitfeature));
1150:/home/paulo/Alexandria/STM32Cube_FW_F4_V1.23.0/Drivers/STM32F4xx_HAL_Driver/Src/stm32f4xx_ll_fmc.c ****   assert_param(IS_FMC_TCLR_TIME(Init->TCLRSetupTime));
1151:/home/paulo/Alexandria/STM32Cube_FW_F4_V1.23.0/Drivers/STM32F4xx_HAL_Driver/Src/stm32f4xx_ll_fmc.c ****   assert_param(IS_FMC_TAR_TIME(Init->TARSetupTime));     
1152:/home/paulo/Alexandria/STM32Cube_FW_F4_V1.23.0/Drivers/STM32F4xx_HAL_Driver/Src/stm32f4xx_ll_fmc.c ****   
1153:/home/paulo/Alexandria/STM32Cube_FW_F4_V1.23.0/Drivers/STM32F4xx_HAL_Driver/Src/stm32f4xx_ll_fmc.c ****   /* Get PCCARD control register value */
1154:/home/paulo/Alexandria/STM32Cube_FW_F4_V1.23.0/Drivers/STM32F4xx_HAL_Driver/Src/stm32f4xx_ll_fmc.c ****   tmpr = Device->PCR4;
1155:/home/paulo/Alexandria/STM32Cube_FW_F4_V1.23.0/Drivers/STM32F4xx_HAL_Driver/Src/stm32f4xx_ll_fmc.c ****   
1156:/home/paulo/Alexandria/STM32Cube_FW_F4_V1.23.0/Drivers/STM32F4xx_HAL_Driver/Src/stm32f4xx_ll_fmc.c ****   /* Clear TAR, TCLR, PWAITEN and PWID bits */
1157:/home/paulo/Alexandria/STM32Cube_FW_F4_V1.23.0/Drivers/STM32F4xx_HAL_Driver/Src/stm32f4xx_ll_fmc.c ****   tmpr &= ((uint32_t)~(FMC_PCR4_TAR  | FMC_PCR4_TCLR | FMC_PCR4_PWAITEN | \
1158:/home/paulo/Alexandria/STM32Cube_FW_F4_V1.23.0/Drivers/STM32F4xx_HAL_Driver/Src/stm32f4xx_ll_fmc.c ****                        FMC_PCR4_PWID | FMC_PCR4_PTYP));
1159:/home/paulo/Alexandria/STM32Cube_FW_F4_V1.23.0/Drivers/STM32F4xx_HAL_Driver/Src/stm32f4xx_ll_fmc.c ****   
ARM GAS  /tmp/cc0gW0uU.s 			page 39


1160:/home/paulo/Alexandria/STM32Cube_FW_F4_V1.23.0/Drivers/STM32F4xx_HAL_Driver/Src/stm32f4xx_ll_fmc.c ****   /* Set FMC_PCCARD device control parameters */
1161:/home/paulo/Alexandria/STM32Cube_FW_F4_V1.23.0/Drivers/STM32F4xx_HAL_Driver/Src/stm32f4xx_ll_fmc.c ****   tmpr |= (uint32_t)(Init->Waitfeature              |\
1162:/home/paulo/Alexandria/STM32Cube_FW_F4_V1.23.0/Drivers/STM32F4xx_HAL_Driver/Src/stm32f4xx_ll_fmc.c ****                      FMC_NAND_PCC_MEM_BUS_WIDTH_16  |\
1163:/home/paulo/Alexandria/STM32Cube_FW_F4_V1.23.0/Drivers/STM32F4xx_HAL_Driver/Src/stm32f4xx_ll_fmc.c ****                     (Init->TCLRSetupTime << 9U)     |\
1164:/home/paulo/Alexandria/STM32Cube_FW_F4_V1.23.0/Drivers/STM32F4xx_HAL_Driver/Src/stm32f4xx_ll_fmc.c ****                     (Init->TARSetupTime << 13U));
1165:/home/paulo/Alexandria/STM32Cube_FW_F4_V1.23.0/Drivers/STM32F4xx_HAL_Driver/Src/stm32f4xx_ll_fmc.c ****   
1166:/home/paulo/Alexandria/STM32Cube_FW_F4_V1.23.0/Drivers/STM32F4xx_HAL_Driver/Src/stm32f4xx_ll_fmc.c ****   Device->PCR4 = tmpr;
1167:/home/paulo/Alexandria/STM32Cube_FW_F4_V1.23.0/Drivers/STM32F4xx_HAL_Driver/Src/stm32f4xx_ll_fmc.c ****   
1168:/home/paulo/Alexandria/STM32Cube_FW_F4_V1.23.0/Drivers/STM32F4xx_HAL_Driver/Src/stm32f4xx_ll_fmc.c ****   return HAL_OK;
1169:/home/paulo/Alexandria/STM32Cube_FW_F4_V1.23.0/Drivers/STM32F4xx_HAL_Driver/Src/stm32f4xx_ll_fmc.c **** }
1170:/home/paulo/Alexandria/STM32Cube_FW_F4_V1.23.0/Drivers/STM32F4xx_HAL_Driver/Src/stm32f4xx_ll_fmc.c **** 
1171:/home/paulo/Alexandria/STM32Cube_FW_F4_V1.23.0/Drivers/STM32F4xx_HAL_Driver/Src/stm32f4xx_ll_fmc.c **** /**
1172:/home/paulo/Alexandria/STM32Cube_FW_F4_V1.23.0/Drivers/STM32F4xx_HAL_Driver/Src/stm32f4xx_ll_fmc.c ****   * @brief  Initializes the FMC_PCCARD Common space Timing according to the specified
1173:/home/paulo/Alexandria/STM32Cube_FW_F4_V1.23.0/Drivers/STM32F4xx_HAL_Driver/Src/stm32f4xx_ll_fmc.c ****   *         parameters in the FMC_NAND_PCC_TimingTypeDef
1174:/home/paulo/Alexandria/STM32Cube_FW_F4_V1.23.0/Drivers/STM32F4xx_HAL_Driver/Src/stm32f4xx_ll_fmc.c ****   * @param  Device Pointer to PCCARD device instance
1175:/home/paulo/Alexandria/STM32Cube_FW_F4_V1.23.0/Drivers/STM32F4xx_HAL_Driver/Src/stm32f4xx_ll_fmc.c ****   * @param  Timing Pointer to PCCARD timing structure 
1176:/home/paulo/Alexandria/STM32Cube_FW_F4_V1.23.0/Drivers/STM32F4xx_HAL_Driver/Src/stm32f4xx_ll_fmc.c ****   * @retval HAL status
1177:/home/paulo/Alexandria/STM32Cube_FW_F4_V1.23.0/Drivers/STM32F4xx_HAL_Driver/Src/stm32f4xx_ll_fmc.c ****   */
1178:/home/paulo/Alexandria/STM32Cube_FW_F4_V1.23.0/Drivers/STM32F4xx_HAL_Driver/Src/stm32f4xx_ll_fmc.c **** HAL_StatusTypeDef FMC_PCCARD_CommonSpace_Timing_Init(FMC_PCCARD_TypeDef *Device, FMC_NAND_PCC_Timin
1179:/home/paulo/Alexandria/STM32Cube_FW_F4_V1.23.0/Drivers/STM32F4xx_HAL_Driver/Src/stm32f4xx_ll_fmc.c **** {
1180:/home/paulo/Alexandria/STM32Cube_FW_F4_V1.23.0/Drivers/STM32F4xx_HAL_Driver/Src/stm32f4xx_ll_fmc.c ****   uint32_t tmpr = 0U;
1181:/home/paulo/Alexandria/STM32Cube_FW_F4_V1.23.0/Drivers/STM32F4xx_HAL_Driver/Src/stm32f4xx_ll_fmc.c ****   
1182:/home/paulo/Alexandria/STM32Cube_FW_F4_V1.23.0/Drivers/STM32F4xx_HAL_Driver/Src/stm32f4xx_ll_fmc.c ****   /* Check the parameters */
1183:/home/paulo/Alexandria/STM32Cube_FW_F4_V1.23.0/Drivers/STM32F4xx_HAL_Driver/Src/stm32f4xx_ll_fmc.c ****   assert_param(IS_FMC_PCCARD_DEVICE(Device));
1184:/home/paulo/Alexandria/STM32Cube_FW_F4_V1.23.0/Drivers/STM32F4xx_HAL_Driver/Src/stm32f4xx_ll_fmc.c ****   assert_param(IS_FMC_SETUP_TIME(Timing->SetupTime));
1185:/home/paulo/Alexandria/STM32Cube_FW_F4_V1.23.0/Drivers/STM32F4xx_HAL_Driver/Src/stm32f4xx_ll_fmc.c ****   assert_param(IS_FMC_WAIT_TIME(Timing->WaitSetupTime));
1186:/home/paulo/Alexandria/STM32Cube_FW_F4_V1.23.0/Drivers/STM32F4xx_HAL_Driver/Src/stm32f4xx_ll_fmc.c ****   assert_param(IS_FMC_HOLD_TIME(Timing->HoldSetupTime));
1187:/home/paulo/Alexandria/STM32Cube_FW_F4_V1.23.0/Drivers/STM32F4xx_HAL_Driver/Src/stm32f4xx_ll_fmc.c ****   assert_param(IS_FMC_HIZ_TIME(Timing->HiZSetupTime));
1188:/home/paulo/Alexandria/STM32Cube_FW_F4_V1.23.0/Drivers/STM32F4xx_HAL_Driver/Src/stm32f4xx_ll_fmc.c **** 
1189:/home/paulo/Alexandria/STM32Cube_FW_F4_V1.23.0/Drivers/STM32F4xx_HAL_Driver/Src/stm32f4xx_ll_fmc.c ****   /* Get PCCARD common space timing register value */
1190:/home/paulo/Alexandria/STM32Cube_FW_F4_V1.23.0/Drivers/STM32F4xx_HAL_Driver/Src/stm32f4xx_ll_fmc.c ****   tmpr = Device->PMEM4;
1191:/home/paulo/Alexandria/STM32Cube_FW_F4_V1.23.0/Drivers/STM32F4xx_HAL_Driver/Src/stm32f4xx_ll_fmc.c ****   
1192:/home/paulo/Alexandria/STM32Cube_FW_F4_V1.23.0/Drivers/STM32F4xx_HAL_Driver/Src/stm32f4xx_ll_fmc.c ****   /* Clear MEMSETx, MEMWAITx, MEMHOLDx and MEMHIZx bits */
1193:/home/paulo/Alexandria/STM32Cube_FW_F4_V1.23.0/Drivers/STM32F4xx_HAL_Driver/Src/stm32f4xx_ll_fmc.c ****   tmpr &= ((uint32_t)~(FMC_PMEM4_MEMSET4  | FMC_PMEM4_MEMWAIT4 | FMC_PMEM4_MEMHOLD4 | \
1194:/home/paulo/Alexandria/STM32Cube_FW_F4_V1.23.0/Drivers/STM32F4xx_HAL_Driver/Src/stm32f4xx_ll_fmc.c ****                        FMC_PMEM4_MEMHIZ4)); 
1195:/home/paulo/Alexandria/STM32Cube_FW_F4_V1.23.0/Drivers/STM32F4xx_HAL_Driver/Src/stm32f4xx_ll_fmc.c ****   /* Set PCCARD timing parameters */
1196:/home/paulo/Alexandria/STM32Cube_FW_F4_V1.23.0/Drivers/STM32F4xx_HAL_Driver/Src/stm32f4xx_ll_fmc.c ****   tmpr |= (uint32_t)(Timing->SetupTime                  |\
1197:/home/paulo/Alexandria/STM32Cube_FW_F4_V1.23.0/Drivers/STM32F4xx_HAL_Driver/Src/stm32f4xx_ll_fmc.c ****                     ((Timing->WaitSetupTime) << 8U)     |\
1198:/home/paulo/Alexandria/STM32Cube_FW_F4_V1.23.0/Drivers/STM32F4xx_HAL_Driver/Src/stm32f4xx_ll_fmc.c ****                     ((Timing->HoldSetupTime) << 16U)    |\
1199:/home/paulo/Alexandria/STM32Cube_FW_F4_V1.23.0/Drivers/STM32F4xx_HAL_Driver/Src/stm32f4xx_ll_fmc.c ****                     ((Timing->HiZSetupTime) << 24U)); 
1200:/home/paulo/Alexandria/STM32Cube_FW_F4_V1.23.0/Drivers/STM32F4xx_HAL_Driver/Src/stm32f4xx_ll_fmc.c **** 
1201:/home/paulo/Alexandria/STM32Cube_FW_F4_V1.23.0/Drivers/STM32F4xx_HAL_Driver/Src/stm32f4xx_ll_fmc.c ****   Device->PMEM4 = tmpr;
1202:/home/paulo/Alexandria/STM32Cube_FW_F4_V1.23.0/Drivers/STM32F4xx_HAL_Driver/Src/stm32f4xx_ll_fmc.c ****   
1203:/home/paulo/Alexandria/STM32Cube_FW_F4_V1.23.0/Drivers/STM32F4xx_HAL_Driver/Src/stm32f4xx_ll_fmc.c ****   return HAL_OK;  
1204:/home/paulo/Alexandria/STM32Cube_FW_F4_V1.23.0/Drivers/STM32F4xx_HAL_Driver/Src/stm32f4xx_ll_fmc.c **** }
1205:/home/paulo/Alexandria/STM32Cube_FW_F4_V1.23.0/Drivers/STM32F4xx_HAL_Driver/Src/stm32f4xx_ll_fmc.c **** 
1206:/home/paulo/Alexandria/STM32Cube_FW_F4_V1.23.0/Drivers/STM32F4xx_HAL_Driver/Src/stm32f4xx_ll_fmc.c **** /**
1207:/home/paulo/Alexandria/STM32Cube_FW_F4_V1.23.0/Drivers/STM32F4xx_HAL_Driver/Src/stm32f4xx_ll_fmc.c ****   * @brief  Initializes the FMC_PCCARD Attribute space Timing according to the specified
1208:/home/paulo/Alexandria/STM32Cube_FW_F4_V1.23.0/Drivers/STM32F4xx_HAL_Driver/Src/stm32f4xx_ll_fmc.c ****   *         parameters in the FMC_NAND_PCC_TimingTypeDef
1209:/home/paulo/Alexandria/STM32Cube_FW_F4_V1.23.0/Drivers/STM32F4xx_HAL_Driver/Src/stm32f4xx_ll_fmc.c ****   * @param  Device Pointer to PCCARD device instance
1210:/home/paulo/Alexandria/STM32Cube_FW_F4_V1.23.0/Drivers/STM32F4xx_HAL_Driver/Src/stm32f4xx_ll_fmc.c ****   * @param  Timing Pointer to PCCARD timing structure  
1211:/home/paulo/Alexandria/STM32Cube_FW_F4_V1.23.0/Drivers/STM32F4xx_HAL_Driver/Src/stm32f4xx_ll_fmc.c ****   * @retval HAL status
1212:/home/paulo/Alexandria/STM32Cube_FW_F4_V1.23.0/Drivers/STM32F4xx_HAL_Driver/Src/stm32f4xx_ll_fmc.c ****   */
1213:/home/paulo/Alexandria/STM32Cube_FW_F4_V1.23.0/Drivers/STM32F4xx_HAL_Driver/Src/stm32f4xx_ll_fmc.c **** HAL_StatusTypeDef FMC_PCCARD_AttributeSpace_Timing_Init(FMC_PCCARD_TypeDef *Device, FMC_NAND_PCC_Ti
1214:/home/paulo/Alexandria/STM32Cube_FW_F4_V1.23.0/Drivers/STM32F4xx_HAL_Driver/Src/stm32f4xx_ll_fmc.c **** {
1215:/home/paulo/Alexandria/STM32Cube_FW_F4_V1.23.0/Drivers/STM32F4xx_HAL_Driver/Src/stm32f4xx_ll_fmc.c ****   uint32_t tmpr = 0U;
1216:/home/paulo/Alexandria/STM32Cube_FW_F4_V1.23.0/Drivers/STM32F4xx_HAL_Driver/Src/stm32f4xx_ll_fmc.c ****   
ARM GAS  /tmp/cc0gW0uU.s 			page 40


1217:/home/paulo/Alexandria/STM32Cube_FW_F4_V1.23.0/Drivers/STM32F4xx_HAL_Driver/Src/stm32f4xx_ll_fmc.c ****   /* Check the parameters */ 
1218:/home/paulo/Alexandria/STM32Cube_FW_F4_V1.23.0/Drivers/STM32F4xx_HAL_Driver/Src/stm32f4xx_ll_fmc.c ****   assert_param(IS_FMC_PCCARD_DEVICE(Device)); 
1219:/home/paulo/Alexandria/STM32Cube_FW_F4_V1.23.0/Drivers/STM32F4xx_HAL_Driver/Src/stm32f4xx_ll_fmc.c ****   assert_param(IS_FMC_SETUP_TIME(Timing->SetupTime));
1220:/home/paulo/Alexandria/STM32Cube_FW_F4_V1.23.0/Drivers/STM32F4xx_HAL_Driver/Src/stm32f4xx_ll_fmc.c ****   assert_param(IS_FMC_WAIT_TIME(Timing->WaitSetupTime));
1221:/home/paulo/Alexandria/STM32Cube_FW_F4_V1.23.0/Drivers/STM32F4xx_HAL_Driver/Src/stm32f4xx_ll_fmc.c ****   assert_param(IS_FMC_HOLD_TIME(Timing->HoldSetupTime));
1222:/home/paulo/Alexandria/STM32Cube_FW_F4_V1.23.0/Drivers/STM32F4xx_HAL_Driver/Src/stm32f4xx_ll_fmc.c ****   assert_param(IS_FMC_HIZ_TIME(Timing->HiZSetupTime));
1223:/home/paulo/Alexandria/STM32Cube_FW_F4_V1.23.0/Drivers/STM32F4xx_HAL_Driver/Src/stm32f4xx_ll_fmc.c **** 
1224:/home/paulo/Alexandria/STM32Cube_FW_F4_V1.23.0/Drivers/STM32F4xx_HAL_Driver/Src/stm32f4xx_ll_fmc.c ****   /* Get PCCARD timing parameters */
1225:/home/paulo/Alexandria/STM32Cube_FW_F4_V1.23.0/Drivers/STM32F4xx_HAL_Driver/Src/stm32f4xx_ll_fmc.c ****   tmpr = Device->PATT4;
1226:/home/paulo/Alexandria/STM32Cube_FW_F4_V1.23.0/Drivers/STM32F4xx_HAL_Driver/Src/stm32f4xx_ll_fmc.c **** 
1227:/home/paulo/Alexandria/STM32Cube_FW_F4_V1.23.0/Drivers/STM32F4xx_HAL_Driver/Src/stm32f4xx_ll_fmc.c ****   /* Clear ATTSETx, ATTWAITx, ATTHOLDx and ATTHIZx bits */
1228:/home/paulo/Alexandria/STM32Cube_FW_F4_V1.23.0/Drivers/STM32F4xx_HAL_Driver/Src/stm32f4xx_ll_fmc.c ****   tmpr &= ((uint32_t)~(FMC_PATT4_ATTSET4  | FMC_PATT4_ATTWAIT4 | FMC_PATT4_ATTHOLD4 | \
1229:/home/paulo/Alexandria/STM32Cube_FW_F4_V1.23.0/Drivers/STM32F4xx_HAL_Driver/Src/stm32f4xx_ll_fmc.c ****                        FMC_PATT4_ATTHIZ4));
1230:/home/paulo/Alexandria/STM32Cube_FW_F4_V1.23.0/Drivers/STM32F4xx_HAL_Driver/Src/stm32f4xx_ll_fmc.c ****   
1231:/home/paulo/Alexandria/STM32Cube_FW_F4_V1.23.0/Drivers/STM32F4xx_HAL_Driver/Src/stm32f4xx_ll_fmc.c ****   /* Set PCCARD timing parameters */
1232:/home/paulo/Alexandria/STM32Cube_FW_F4_V1.23.0/Drivers/STM32F4xx_HAL_Driver/Src/stm32f4xx_ll_fmc.c ****   tmpr |= (uint32_t)(Timing->SetupTime                 |\
1233:/home/paulo/Alexandria/STM32Cube_FW_F4_V1.23.0/Drivers/STM32F4xx_HAL_Driver/Src/stm32f4xx_ll_fmc.c ****                    ((Timing->WaitSetupTime) << 8U)     |\
1234:/home/paulo/Alexandria/STM32Cube_FW_F4_V1.23.0/Drivers/STM32F4xx_HAL_Driver/Src/stm32f4xx_ll_fmc.c ****                    ((Timing->HoldSetupTime) << 16U)    |\
1235:/home/paulo/Alexandria/STM32Cube_FW_F4_V1.23.0/Drivers/STM32F4xx_HAL_Driver/Src/stm32f4xx_ll_fmc.c ****                    ((Timing->HiZSetupTime) << 24U));
1236:/home/paulo/Alexandria/STM32Cube_FW_F4_V1.23.0/Drivers/STM32F4xx_HAL_Driver/Src/stm32f4xx_ll_fmc.c ****   Device->PATT4 = tmpr;
1237:/home/paulo/Alexandria/STM32Cube_FW_F4_V1.23.0/Drivers/STM32F4xx_HAL_Driver/Src/stm32f4xx_ll_fmc.c **** 
1238:/home/paulo/Alexandria/STM32Cube_FW_F4_V1.23.0/Drivers/STM32F4xx_HAL_Driver/Src/stm32f4xx_ll_fmc.c ****   return HAL_OK;
1239:/home/paulo/Alexandria/STM32Cube_FW_F4_V1.23.0/Drivers/STM32F4xx_HAL_Driver/Src/stm32f4xx_ll_fmc.c **** }
1240:/home/paulo/Alexandria/STM32Cube_FW_F4_V1.23.0/Drivers/STM32F4xx_HAL_Driver/Src/stm32f4xx_ll_fmc.c **** 
1241:/home/paulo/Alexandria/STM32Cube_FW_F4_V1.23.0/Drivers/STM32F4xx_HAL_Driver/Src/stm32f4xx_ll_fmc.c **** /**
1242:/home/paulo/Alexandria/STM32Cube_FW_F4_V1.23.0/Drivers/STM32F4xx_HAL_Driver/Src/stm32f4xx_ll_fmc.c ****   * @brief  Initializes the FMC_PCCARD IO space Timing according to the specified
1243:/home/paulo/Alexandria/STM32Cube_FW_F4_V1.23.0/Drivers/STM32F4xx_HAL_Driver/Src/stm32f4xx_ll_fmc.c ****   *         parameters in the FMC_NAND_PCC_TimingTypeDef
1244:/home/paulo/Alexandria/STM32Cube_FW_F4_V1.23.0/Drivers/STM32F4xx_HAL_Driver/Src/stm32f4xx_ll_fmc.c ****   * @param  Device Pointer to PCCARD device instance
1245:/home/paulo/Alexandria/STM32Cube_FW_F4_V1.23.0/Drivers/STM32F4xx_HAL_Driver/Src/stm32f4xx_ll_fmc.c ****   * @param  Timing Pointer to PCCARD timing structure  
1246:/home/paulo/Alexandria/STM32Cube_FW_F4_V1.23.0/Drivers/STM32F4xx_HAL_Driver/Src/stm32f4xx_ll_fmc.c ****   * @retval HAL status
1247:/home/paulo/Alexandria/STM32Cube_FW_F4_V1.23.0/Drivers/STM32F4xx_HAL_Driver/Src/stm32f4xx_ll_fmc.c ****   */
1248:/home/paulo/Alexandria/STM32Cube_FW_F4_V1.23.0/Drivers/STM32F4xx_HAL_Driver/Src/stm32f4xx_ll_fmc.c **** HAL_StatusTypeDef FMC_PCCARD_IOSpace_Timing_Init(FMC_PCCARD_TypeDef *Device, FMC_NAND_PCC_TimingTyp
1249:/home/paulo/Alexandria/STM32Cube_FW_F4_V1.23.0/Drivers/STM32F4xx_HAL_Driver/Src/stm32f4xx_ll_fmc.c **** {
1250:/home/paulo/Alexandria/STM32Cube_FW_F4_V1.23.0/Drivers/STM32F4xx_HAL_Driver/Src/stm32f4xx_ll_fmc.c ****   uint32_t tmpr = 0;
1251:/home/paulo/Alexandria/STM32Cube_FW_F4_V1.23.0/Drivers/STM32F4xx_HAL_Driver/Src/stm32f4xx_ll_fmc.c ****   
1252:/home/paulo/Alexandria/STM32Cube_FW_F4_V1.23.0/Drivers/STM32F4xx_HAL_Driver/Src/stm32f4xx_ll_fmc.c ****   /* Check the parameters */  
1253:/home/paulo/Alexandria/STM32Cube_FW_F4_V1.23.0/Drivers/STM32F4xx_HAL_Driver/Src/stm32f4xx_ll_fmc.c ****   assert_param(IS_FMC_PCCARD_DEVICE(Device));
1254:/home/paulo/Alexandria/STM32Cube_FW_F4_V1.23.0/Drivers/STM32F4xx_HAL_Driver/Src/stm32f4xx_ll_fmc.c ****   assert_param(IS_FMC_SETUP_TIME(Timing->SetupTime));
1255:/home/paulo/Alexandria/STM32Cube_FW_F4_V1.23.0/Drivers/STM32F4xx_HAL_Driver/Src/stm32f4xx_ll_fmc.c ****   assert_param(IS_FMC_WAIT_TIME(Timing->WaitSetupTime));
1256:/home/paulo/Alexandria/STM32Cube_FW_F4_V1.23.0/Drivers/STM32F4xx_HAL_Driver/Src/stm32f4xx_ll_fmc.c ****   assert_param(IS_FMC_HOLD_TIME(Timing->HoldSetupTime));
1257:/home/paulo/Alexandria/STM32Cube_FW_F4_V1.23.0/Drivers/STM32F4xx_HAL_Driver/Src/stm32f4xx_ll_fmc.c ****   assert_param(IS_FMC_HIZ_TIME(Timing->HiZSetupTime));
1258:/home/paulo/Alexandria/STM32Cube_FW_F4_V1.23.0/Drivers/STM32F4xx_HAL_Driver/Src/stm32f4xx_ll_fmc.c **** 
1259:/home/paulo/Alexandria/STM32Cube_FW_F4_V1.23.0/Drivers/STM32F4xx_HAL_Driver/Src/stm32f4xx_ll_fmc.c ****   /* Get FMC_PCCARD device timing parameters */
1260:/home/paulo/Alexandria/STM32Cube_FW_F4_V1.23.0/Drivers/STM32F4xx_HAL_Driver/Src/stm32f4xx_ll_fmc.c ****   tmpr = Device->PIO4;
1261:/home/paulo/Alexandria/STM32Cube_FW_F4_V1.23.0/Drivers/STM32F4xx_HAL_Driver/Src/stm32f4xx_ll_fmc.c **** 
1262:/home/paulo/Alexandria/STM32Cube_FW_F4_V1.23.0/Drivers/STM32F4xx_HAL_Driver/Src/stm32f4xx_ll_fmc.c ****   /* Clear IOSET4, IOWAIT4, IOHOLD4 and IOHIZ4 bits */
1263:/home/paulo/Alexandria/STM32Cube_FW_F4_V1.23.0/Drivers/STM32F4xx_HAL_Driver/Src/stm32f4xx_ll_fmc.c ****   tmpr &= ((uint32_t)~(FMC_PIO4_IOSET4  | FMC_PIO4_IOWAIT4 | FMC_PIO4_IOHOLD4 | \
1264:/home/paulo/Alexandria/STM32Cube_FW_F4_V1.23.0/Drivers/STM32F4xx_HAL_Driver/Src/stm32f4xx_ll_fmc.c ****                        FMC_PIO4_IOHIZ4));
1265:/home/paulo/Alexandria/STM32Cube_FW_F4_V1.23.0/Drivers/STM32F4xx_HAL_Driver/Src/stm32f4xx_ll_fmc.c ****   
1266:/home/paulo/Alexandria/STM32Cube_FW_F4_V1.23.0/Drivers/STM32F4xx_HAL_Driver/Src/stm32f4xx_ll_fmc.c ****   /* Set FMC_PCCARD device timing parameters */
1267:/home/paulo/Alexandria/STM32Cube_FW_F4_V1.23.0/Drivers/STM32F4xx_HAL_Driver/Src/stm32f4xx_ll_fmc.c ****   tmpr |= (uint32_t)(Timing->SetupTime                   |\
1268:/home/paulo/Alexandria/STM32Cube_FW_F4_V1.23.0/Drivers/STM32F4xx_HAL_Driver/Src/stm32f4xx_ll_fmc.c ****                      ((Timing->WaitSetupTime) << 8U)     |\
1269:/home/paulo/Alexandria/STM32Cube_FW_F4_V1.23.0/Drivers/STM32F4xx_HAL_Driver/Src/stm32f4xx_ll_fmc.c ****                      ((Timing->HoldSetupTime) << 16U)    |\
1270:/home/paulo/Alexandria/STM32Cube_FW_F4_V1.23.0/Drivers/STM32F4xx_HAL_Driver/Src/stm32f4xx_ll_fmc.c ****                      ((Timing->HiZSetupTime) << 24U));   
1271:/home/paulo/Alexandria/STM32Cube_FW_F4_V1.23.0/Drivers/STM32F4xx_HAL_Driver/Src/stm32f4xx_ll_fmc.c ****   
1272:/home/paulo/Alexandria/STM32Cube_FW_F4_V1.23.0/Drivers/STM32F4xx_HAL_Driver/Src/stm32f4xx_ll_fmc.c ****   Device->PIO4 = tmpr;
1273:/home/paulo/Alexandria/STM32Cube_FW_F4_V1.23.0/Drivers/STM32F4xx_HAL_Driver/Src/stm32f4xx_ll_fmc.c ****  
ARM GAS  /tmp/cc0gW0uU.s 			page 41


1274:/home/paulo/Alexandria/STM32Cube_FW_F4_V1.23.0/Drivers/STM32F4xx_HAL_Driver/Src/stm32f4xx_ll_fmc.c ****   return HAL_OK;
1275:/home/paulo/Alexandria/STM32Cube_FW_F4_V1.23.0/Drivers/STM32F4xx_HAL_Driver/Src/stm32f4xx_ll_fmc.c **** }
1276:/home/paulo/Alexandria/STM32Cube_FW_F4_V1.23.0/Drivers/STM32F4xx_HAL_Driver/Src/stm32f4xx_ll_fmc.c ****                                            
1277:/home/paulo/Alexandria/STM32Cube_FW_F4_V1.23.0/Drivers/STM32F4xx_HAL_Driver/Src/stm32f4xx_ll_fmc.c **** /**
1278:/home/paulo/Alexandria/STM32Cube_FW_F4_V1.23.0/Drivers/STM32F4xx_HAL_Driver/Src/stm32f4xx_ll_fmc.c ****   * @brief  DeInitializes the FMC_PCCARD device 
1279:/home/paulo/Alexandria/STM32Cube_FW_F4_V1.23.0/Drivers/STM32F4xx_HAL_Driver/Src/stm32f4xx_ll_fmc.c ****   * @param  Device Pointer to PCCARD device instance
1280:/home/paulo/Alexandria/STM32Cube_FW_F4_V1.23.0/Drivers/STM32F4xx_HAL_Driver/Src/stm32f4xx_ll_fmc.c ****   * @retval HAL status
1281:/home/paulo/Alexandria/STM32Cube_FW_F4_V1.23.0/Drivers/STM32F4xx_HAL_Driver/Src/stm32f4xx_ll_fmc.c ****   */
1282:/home/paulo/Alexandria/STM32Cube_FW_F4_V1.23.0/Drivers/STM32F4xx_HAL_Driver/Src/stm32f4xx_ll_fmc.c **** HAL_StatusTypeDef FMC_PCCARD_DeInit(FMC_PCCARD_TypeDef *Device)
1283:/home/paulo/Alexandria/STM32Cube_FW_F4_V1.23.0/Drivers/STM32F4xx_HAL_Driver/Src/stm32f4xx_ll_fmc.c **** {
1284:/home/paulo/Alexandria/STM32Cube_FW_F4_V1.23.0/Drivers/STM32F4xx_HAL_Driver/Src/stm32f4xx_ll_fmc.c ****   /* Check the parameters */  
1285:/home/paulo/Alexandria/STM32Cube_FW_F4_V1.23.0/Drivers/STM32F4xx_HAL_Driver/Src/stm32f4xx_ll_fmc.c ****   assert_param(IS_FMC_PCCARD_DEVICE(Device));
1286:/home/paulo/Alexandria/STM32Cube_FW_F4_V1.23.0/Drivers/STM32F4xx_HAL_Driver/Src/stm32f4xx_ll_fmc.c ****     
1287:/home/paulo/Alexandria/STM32Cube_FW_F4_V1.23.0/Drivers/STM32F4xx_HAL_Driver/Src/stm32f4xx_ll_fmc.c ****   /* Disable the FMC_PCCARD device */
1288:/home/paulo/Alexandria/STM32Cube_FW_F4_V1.23.0/Drivers/STM32F4xx_HAL_Driver/Src/stm32f4xx_ll_fmc.c ****   __FMC_PCCARD_DISABLE(Device);
1289:/home/paulo/Alexandria/STM32Cube_FW_F4_V1.23.0/Drivers/STM32F4xx_HAL_Driver/Src/stm32f4xx_ll_fmc.c ****   
1290:/home/paulo/Alexandria/STM32Cube_FW_F4_V1.23.0/Drivers/STM32F4xx_HAL_Driver/Src/stm32f4xx_ll_fmc.c ****   /* De-initialize the FMC_PCCARD device */
1291:/home/paulo/Alexandria/STM32Cube_FW_F4_V1.23.0/Drivers/STM32F4xx_HAL_Driver/Src/stm32f4xx_ll_fmc.c ****   Device->PCR4    = 0x00000018U; 
1292:/home/paulo/Alexandria/STM32Cube_FW_F4_V1.23.0/Drivers/STM32F4xx_HAL_Driver/Src/stm32f4xx_ll_fmc.c ****   Device->SR4     = 0x00000000U;	
1293:/home/paulo/Alexandria/STM32Cube_FW_F4_V1.23.0/Drivers/STM32F4xx_HAL_Driver/Src/stm32f4xx_ll_fmc.c ****   Device->PMEM4   = 0xFCFCFCFCU;
1294:/home/paulo/Alexandria/STM32Cube_FW_F4_V1.23.0/Drivers/STM32F4xx_HAL_Driver/Src/stm32f4xx_ll_fmc.c ****   Device->PATT4   = 0xFCFCFCFCU;
1295:/home/paulo/Alexandria/STM32Cube_FW_F4_V1.23.0/Drivers/STM32F4xx_HAL_Driver/Src/stm32f4xx_ll_fmc.c ****   Device->PIO4    = 0xFCFCFCFCU;
1296:/home/paulo/Alexandria/STM32Cube_FW_F4_V1.23.0/Drivers/STM32F4xx_HAL_Driver/Src/stm32f4xx_ll_fmc.c ****   
1297:/home/paulo/Alexandria/STM32Cube_FW_F4_V1.23.0/Drivers/STM32F4xx_HAL_Driver/Src/stm32f4xx_ll_fmc.c ****   return HAL_OK;
1298:/home/paulo/Alexandria/STM32Cube_FW_F4_V1.23.0/Drivers/STM32F4xx_HAL_Driver/Src/stm32f4xx_ll_fmc.c **** }
1299:/home/paulo/Alexandria/STM32Cube_FW_F4_V1.23.0/Drivers/STM32F4xx_HAL_Driver/Src/stm32f4xx_ll_fmc.c **** 
1300:/home/paulo/Alexandria/STM32Cube_FW_F4_V1.23.0/Drivers/STM32F4xx_HAL_Driver/Src/stm32f4xx_ll_fmc.c **** /**
1301:/home/paulo/Alexandria/STM32Cube_FW_F4_V1.23.0/Drivers/STM32F4xx_HAL_Driver/Src/stm32f4xx_ll_fmc.c ****   * @}
1302:/home/paulo/Alexandria/STM32Cube_FW_F4_V1.23.0/Drivers/STM32F4xx_HAL_Driver/Src/stm32f4xx_ll_fmc.c ****   */
1303:/home/paulo/Alexandria/STM32Cube_FW_F4_V1.23.0/Drivers/STM32F4xx_HAL_Driver/Src/stm32f4xx_ll_fmc.c **** #endif /* STM32F427xx || STM32F437xx || STM32F429xx || STM32F439xx */
1304:/home/paulo/Alexandria/STM32Cube_FW_F4_V1.23.0/Drivers/STM32F4xx_HAL_Driver/Src/stm32f4xx_ll_fmc.c **** 
1305:/home/paulo/Alexandria/STM32Cube_FW_F4_V1.23.0/Drivers/STM32F4xx_HAL_Driver/Src/stm32f4xx_ll_fmc.c **** 
1306:/home/paulo/Alexandria/STM32Cube_FW_F4_V1.23.0/Drivers/STM32F4xx_HAL_Driver/Src/stm32f4xx_ll_fmc.c **** /** @addtogroup FMC_LL_SDRAM
1307:/home/paulo/Alexandria/STM32Cube_FW_F4_V1.23.0/Drivers/STM32F4xx_HAL_Driver/Src/stm32f4xx_ll_fmc.c ****   * @brief    SDRAM Controller functions 
1308:/home/paulo/Alexandria/STM32Cube_FW_F4_V1.23.0/Drivers/STM32F4xx_HAL_Driver/Src/stm32f4xx_ll_fmc.c ****   *
1309:/home/paulo/Alexandria/STM32Cube_FW_F4_V1.23.0/Drivers/STM32F4xx_HAL_Driver/Src/stm32f4xx_ll_fmc.c ****   @verbatim 
1310:/home/paulo/Alexandria/STM32Cube_FW_F4_V1.23.0/Drivers/STM32F4xx_HAL_Driver/Src/stm32f4xx_ll_fmc.c ****   ==============================================================================
1311:/home/paulo/Alexandria/STM32Cube_FW_F4_V1.23.0/Drivers/STM32F4xx_HAL_Driver/Src/stm32f4xx_ll_fmc.c ****                      ##### How to use SDRAM device driver #####
1312:/home/paulo/Alexandria/STM32Cube_FW_F4_V1.23.0/Drivers/STM32F4xx_HAL_Driver/Src/stm32f4xx_ll_fmc.c ****   ==============================================================================
1313:/home/paulo/Alexandria/STM32Cube_FW_F4_V1.23.0/Drivers/STM32F4xx_HAL_Driver/Src/stm32f4xx_ll_fmc.c ****   [..] 
1314:/home/paulo/Alexandria/STM32Cube_FW_F4_V1.23.0/Drivers/STM32F4xx_HAL_Driver/Src/stm32f4xx_ll_fmc.c ****     This driver contains a set of APIs to interface with the FMC SDRAM banks in order
1315:/home/paulo/Alexandria/STM32Cube_FW_F4_V1.23.0/Drivers/STM32F4xx_HAL_Driver/Src/stm32f4xx_ll_fmc.c ****     to run the SDRAM external devices.
1316:/home/paulo/Alexandria/STM32Cube_FW_F4_V1.23.0/Drivers/STM32F4xx_HAL_Driver/Src/stm32f4xx_ll_fmc.c ****     
1317:/home/paulo/Alexandria/STM32Cube_FW_F4_V1.23.0/Drivers/STM32F4xx_HAL_Driver/Src/stm32f4xx_ll_fmc.c ****     (+) FMC SDRAM bank reset using the function FMC_SDRAM_DeInit() 
1318:/home/paulo/Alexandria/STM32Cube_FW_F4_V1.23.0/Drivers/STM32F4xx_HAL_Driver/Src/stm32f4xx_ll_fmc.c ****     (+) FMC SDRAM bank control configuration using the function FMC_SDRAM_Init()
1319:/home/paulo/Alexandria/STM32Cube_FW_F4_V1.23.0/Drivers/STM32F4xx_HAL_Driver/Src/stm32f4xx_ll_fmc.c ****     (+) FMC SDRAM bank timing configuration using the function FMC_SDRAM_Timing_Init()
1320:/home/paulo/Alexandria/STM32Cube_FW_F4_V1.23.0/Drivers/STM32F4xx_HAL_Driver/Src/stm32f4xx_ll_fmc.c ****     (+) FMC SDRAM bank enable/disable write operation using the functions
1321:/home/paulo/Alexandria/STM32Cube_FW_F4_V1.23.0/Drivers/STM32F4xx_HAL_Driver/Src/stm32f4xx_ll_fmc.c ****         FMC_SDRAM_WriteOperation_Enable()/FMC_SDRAM_WriteOperation_Disable()   
1322:/home/paulo/Alexandria/STM32Cube_FW_F4_V1.23.0/Drivers/STM32F4xx_HAL_Driver/Src/stm32f4xx_ll_fmc.c ****     (+) FMC SDRAM bank send command using the function FMC_SDRAM_SendCommand()      
1323:/home/paulo/Alexandria/STM32Cube_FW_F4_V1.23.0/Drivers/STM32F4xx_HAL_Driver/Src/stm32f4xx_ll_fmc.c ****        
1324:/home/paulo/Alexandria/STM32Cube_FW_F4_V1.23.0/Drivers/STM32F4xx_HAL_Driver/Src/stm32f4xx_ll_fmc.c **** @endverbatim
1325:/home/paulo/Alexandria/STM32Cube_FW_F4_V1.23.0/Drivers/STM32F4xx_HAL_Driver/Src/stm32f4xx_ll_fmc.c ****   * @{
1326:/home/paulo/Alexandria/STM32Cube_FW_F4_V1.23.0/Drivers/STM32F4xx_HAL_Driver/Src/stm32f4xx_ll_fmc.c ****   */
1327:/home/paulo/Alexandria/STM32Cube_FW_F4_V1.23.0/Drivers/STM32F4xx_HAL_Driver/Src/stm32f4xx_ll_fmc.c ****          
1328:/home/paulo/Alexandria/STM32Cube_FW_F4_V1.23.0/Drivers/STM32F4xx_HAL_Driver/Src/stm32f4xx_ll_fmc.c **** /** @addtogroup FMC_LL_SDRAM_Private_Functions_Group1
1329:/home/paulo/Alexandria/STM32Cube_FW_F4_V1.23.0/Drivers/STM32F4xx_HAL_Driver/Src/stm32f4xx_ll_fmc.c ****   *  @brief    Initialization and Configuration functions 
1330:/home/paulo/Alexandria/STM32Cube_FW_F4_V1.23.0/Drivers/STM32F4xx_HAL_Driver/Src/stm32f4xx_ll_fmc.c ****   *
ARM GAS  /tmp/cc0gW0uU.s 			page 42


1331:/home/paulo/Alexandria/STM32Cube_FW_F4_V1.23.0/Drivers/STM32F4xx_HAL_Driver/Src/stm32f4xx_ll_fmc.c **** @verbatim    
1332:/home/paulo/Alexandria/STM32Cube_FW_F4_V1.23.0/Drivers/STM32F4xx_HAL_Driver/Src/stm32f4xx_ll_fmc.c ****   ==============================================================================
1333:/home/paulo/Alexandria/STM32Cube_FW_F4_V1.23.0/Drivers/STM32F4xx_HAL_Driver/Src/stm32f4xx_ll_fmc.c ****               ##### Initialization and de_initialization functions #####
1334:/home/paulo/Alexandria/STM32Cube_FW_F4_V1.23.0/Drivers/STM32F4xx_HAL_Driver/Src/stm32f4xx_ll_fmc.c ****   ==============================================================================
1335:/home/paulo/Alexandria/STM32Cube_FW_F4_V1.23.0/Drivers/STM32F4xx_HAL_Driver/Src/stm32f4xx_ll_fmc.c ****   [..]  
1336:/home/paulo/Alexandria/STM32Cube_FW_F4_V1.23.0/Drivers/STM32F4xx_HAL_Driver/Src/stm32f4xx_ll_fmc.c ****     This section provides functions allowing to:
1337:/home/paulo/Alexandria/STM32Cube_FW_F4_V1.23.0/Drivers/STM32F4xx_HAL_Driver/Src/stm32f4xx_ll_fmc.c ****     (+) Initialize and configure the FMC SDRAM interface
1338:/home/paulo/Alexandria/STM32Cube_FW_F4_V1.23.0/Drivers/STM32F4xx_HAL_Driver/Src/stm32f4xx_ll_fmc.c ****     (+) De-initialize the FMC SDRAM interface 
1339:/home/paulo/Alexandria/STM32Cube_FW_F4_V1.23.0/Drivers/STM32F4xx_HAL_Driver/Src/stm32f4xx_ll_fmc.c ****     (+) Configure the FMC clock and associated GPIOs
1340:/home/paulo/Alexandria/STM32Cube_FW_F4_V1.23.0/Drivers/STM32F4xx_HAL_Driver/Src/stm32f4xx_ll_fmc.c ****         
1341:/home/paulo/Alexandria/STM32Cube_FW_F4_V1.23.0/Drivers/STM32F4xx_HAL_Driver/Src/stm32f4xx_ll_fmc.c **** @endverbatim
1342:/home/paulo/Alexandria/STM32Cube_FW_F4_V1.23.0/Drivers/STM32F4xx_HAL_Driver/Src/stm32f4xx_ll_fmc.c ****   * @{
1343:/home/paulo/Alexandria/STM32Cube_FW_F4_V1.23.0/Drivers/STM32F4xx_HAL_Driver/Src/stm32f4xx_ll_fmc.c ****   */
1344:/home/paulo/Alexandria/STM32Cube_FW_F4_V1.23.0/Drivers/STM32F4xx_HAL_Driver/Src/stm32f4xx_ll_fmc.c **** 
1345:/home/paulo/Alexandria/STM32Cube_FW_F4_V1.23.0/Drivers/STM32F4xx_HAL_Driver/Src/stm32f4xx_ll_fmc.c **** /**
1346:/home/paulo/Alexandria/STM32Cube_FW_F4_V1.23.0/Drivers/STM32F4xx_HAL_Driver/Src/stm32f4xx_ll_fmc.c ****   * @brief  Initializes the FMC_SDRAM device according to the specified
1347:/home/paulo/Alexandria/STM32Cube_FW_F4_V1.23.0/Drivers/STM32F4xx_HAL_Driver/Src/stm32f4xx_ll_fmc.c ****   *         control parameters in the FMC_SDRAM_InitTypeDef
1348:/home/paulo/Alexandria/STM32Cube_FW_F4_V1.23.0/Drivers/STM32F4xx_HAL_Driver/Src/stm32f4xx_ll_fmc.c ****   * @param  Device Pointer to SDRAM device instance
1349:/home/paulo/Alexandria/STM32Cube_FW_F4_V1.23.0/Drivers/STM32F4xx_HAL_Driver/Src/stm32f4xx_ll_fmc.c ****   * @param  Init Pointer to SDRAM Initialization structure   
1350:/home/paulo/Alexandria/STM32Cube_FW_F4_V1.23.0/Drivers/STM32F4xx_HAL_Driver/Src/stm32f4xx_ll_fmc.c ****   * @retval HAL status
1351:/home/paulo/Alexandria/STM32Cube_FW_F4_V1.23.0/Drivers/STM32F4xx_HAL_Driver/Src/stm32f4xx_ll_fmc.c ****   */
1352:/home/paulo/Alexandria/STM32Cube_FW_F4_V1.23.0/Drivers/STM32F4xx_HAL_Driver/Src/stm32f4xx_ll_fmc.c **** HAL_StatusTypeDef FMC_SDRAM_Init(FMC_SDRAM_TypeDef *Device, FMC_SDRAM_InitTypeDef *Init)
1353:/home/paulo/Alexandria/STM32Cube_FW_F4_V1.23.0/Drivers/STM32F4xx_HAL_Driver/Src/stm32f4xx_ll_fmc.c **** {
 966              		.loc 1 1353 1 is_stmt 1 view -0
 967              		.cfi_startproc
 968              		@ args = 0, pretend = 0, frame = 0
 969              		@ frame_needed = 0, uses_anonymous_args = 0
 970              		@ link register save eliminated.
 971              		.loc 1 1353 1 is_stmt 0 view .LVU344
 972 0000 30B4     		push	{r4, r5}
 973              	.LCFI13:
 974              		.cfi_def_cfa_offset 8
 975              		.cfi_offset 4, -8
 976              		.cfi_offset 5, -4
1354:/home/paulo/Alexandria/STM32Cube_FW_F4_V1.23.0/Drivers/STM32F4xx_HAL_Driver/Src/stm32f4xx_ll_fmc.c ****   uint32_t tmpr1 = 0U;
 977              		.loc 1 1354 3 is_stmt 1 view .LVU345
 978              	.LVL69:
1355:/home/paulo/Alexandria/STM32Cube_FW_F4_V1.23.0/Drivers/STM32F4xx_HAL_Driver/Src/stm32f4xx_ll_fmc.c ****   uint32_t tmpr2 = 0U;
 979              		.loc 1 1355 3 view .LVU346
1356:/home/paulo/Alexandria/STM32Cube_FW_F4_V1.23.0/Drivers/STM32F4xx_HAL_Driver/Src/stm32f4xx_ll_fmc.c ****     
1357:/home/paulo/Alexandria/STM32Cube_FW_F4_V1.23.0/Drivers/STM32F4xx_HAL_Driver/Src/stm32f4xx_ll_fmc.c ****   /* Check the parameters */
1358:/home/paulo/Alexandria/STM32Cube_FW_F4_V1.23.0/Drivers/STM32F4xx_HAL_Driver/Src/stm32f4xx_ll_fmc.c ****   assert_param(IS_FMC_SDRAM_DEVICE(Device));
 980              		.loc 1 1358 3 view .LVU347
1359:/home/paulo/Alexandria/STM32Cube_FW_F4_V1.23.0/Drivers/STM32F4xx_HAL_Driver/Src/stm32f4xx_ll_fmc.c ****   assert_param(IS_FMC_SDRAM_BANK(Init->SDBank));
 981              		.loc 1 1359 3 view .LVU348
1360:/home/paulo/Alexandria/STM32Cube_FW_F4_V1.23.0/Drivers/STM32F4xx_HAL_Driver/Src/stm32f4xx_ll_fmc.c ****   assert_param(IS_FMC_COLUMNBITS_NUMBER(Init->ColumnBitsNumber));
 982              		.loc 1 1360 3 view .LVU349
1361:/home/paulo/Alexandria/STM32Cube_FW_F4_V1.23.0/Drivers/STM32F4xx_HAL_Driver/Src/stm32f4xx_ll_fmc.c ****   assert_param(IS_FMC_ROWBITS_NUMBER(Init->RowBitsNumber));
 983              		.loc 1 1361 3 view .LVU350
1362:/home/paulo/Alexandria/STM32Cube_FW_F4_V1.23.0/Drivers/STM32F4xx_HAL_Driver/Src/stm32f4xx_ll_fmc.c ****   assert_param(IS_FMC_SDMEMORY_WIDTH(Init->MemoryDataWidth));
 984              		.loc 1 1362 3 view .LVU351
1363:/home/paulo/Alexandria/STM32Cube_FW_F4_V1.23.0/Drivers/STM32F4xx_HAL_Driver/Src/stm32f4xx_ll_fmc.c ****   assert_param(IS_FMC_INTERNALBANK_NUMBER(Init->InternalBankNumber));
 985              		.loc 1 1363 3 view .LVU352
1364:/home/paulo/Alexandria/STM32Cube_FW_F4_V1.23.0/Drivers/STM32F4xx_HAL_Driver/Src/stm32f4xx_ll_fmc.c ****   assert_param(IS_FMC_CAS_LATENCY(Init->CASLatency));
 986              		.loc 1 1364 3 view .LVU353
1365:/home/paulo/Alexandria/STM32Cube_FW_F4_V1.23.0/Drivers/STM32F4xx_HAL_Driver/Src/stm32f4xx_ll_fmc.c ****   assert_param(IS_FMC_WRITE_PROTECTION(Init->WriteProtection));
 987              		.loc 1 1365 3 view .LVU354
ARM GAS  /tmp/cc0gW0uU.s 			page 43


1366:/home/paulo/Alexandria/STM32Cube_FW_F4_V1.23.0/Drivers/STM32F4xx_HAL_Driver/Src/stm32f4xx_ll_fmc.c ****   assert_param(IS_FMC_SDCLOCK_PERIOD(Init->SDClockPeriod));
 988              		.loc 1 1366 3 view .LVU355
