ARM GAS  /tmp/cc7YGL8m.s 			page 1


   1              		.cpu cortex-m4
   2              		.eabi_attribute 27, 1
   3              		.eabi_attribute 28, 1
   4              		.eabi_attribute 20, 1
   5              		.eabi_attribute 21, 1
   6              		.eabi_attribute 23, 3
   7              		.eabi_attribute 24, 1
   8              		.eabi_attribute 25, 1
   9              		.eabi_attribute 26, 1
  10              		.eabi_attribute 30, 1
  11              		.eabi_attribute 34, 1
  12              		.eabi_attribute 18, 4
  13              		.file	"stm32469i_discovery.c"
  14              		.text
  15              	.Ltext0:
  16              		.cfi_sections	.debug_frame
  17              		.section	.text.I2C2_MspInit,"ax",%progbits
  18              		.align	1
  19              		.arch armv7e-m
  20              		.syntax unified
  21              		.thumb
  22              		.thumb_func
  23              		.fpu fpv4-sp-d16
  25              	I2C2_MspInit:
  26              	.LFB136:
  27              		.file 1 "/home/paulo/Alexandria/STM32Cube_FW_F4_V1.23.0/Drivers/BSP/STM32469I-Discovery/stm32469i_
   1:/home/paulo/Alexandria/STM32Cube_FW_F4_V1.23.0/Drivers/BSP/STM32469I-Discovery/stm32469i_discovery.c **** /**
   2:/home/paulo/Alexandria/STM32Cube_FW_F4_V1.23.0/Drivers/BSP/STM32469I-Discovery/stm32469i_discovery.c ****   ******************************************************************************
   3:/home/paulo/Alexandria/STM32Cube_FW_F4_V1.23.0/Drivers/BSP/STM32469I-Discovery/stm32469i_discovery.c ****   * @file    stm32469i_discovery.c
   4:/home/paulo/Alexandria/STM32Cube_FW_F4_V1.23.0/Drivers/BSP/STM32469I-Discovery/stm32469i_discovery.c ****   * @author  MCD Application Team
   5:/home/paulo/Alexandria/STM32Cube_FW_F4_V1.23.0/Drivers/BSP/STM32469I-Discovery/stm32469i_discovery.c ****   * @brief   This file provides a set of firmware functions to manage LEDs,
   6:/home/paulo/Alexandria/STM32Cube_FW_F4_V1.23.0/Drivers/BSP/STM32469I-Discovery/stm32469i_discovery.c ****   *          push-buttons, external SDRAM, external QSPI Flash, RF EEPROM,
   7:/home/paulo/Alexandria/STM32Cube_FW_F4_V1.23.0/Drivers/BSP/STM32469I-Discovery/stm32469i_discovery.c ****   *          available on STM32469I-Discovery
   8:/home/paulo/Alexandria/STM32Cube_FW_F4_V1.23.0/Drivers/BSP/STM32469I-Discovery/stm32469i_discovery.c ****   *          board (MB1189) RevA/B from STMicroelectronics.
   9:/home/paulo/Alexandria/STM32Cube_FW_F4_V1.23.0/Drivers/BSP/STM32469I-Discovery/stm32469i_discovery.c ****   ******************************************************************************
  10:/home/paulo/Alexandria/STM32Cube_FW_F4_V1.23.0/Drivers/BSP/STM32469I-Discovery/stm32469i_discovery.c ****   * @attention
  11:/home/paulo/Alexandria/STM32Cube_FW_F4_V1.23.0/Drivers/BSP/STM32469I-Discovery/stm32469i_discovery.c ****   *
  12:/home/paulo/Alexandria/STM32Cube_FW_F4_V1.23.0/Drivers/BSP/STM32469I-Discovery/stm32469i_discovery.c ****   * <h2><center>&copy; COPYRIGHT(c) 2017 STMicroelectronics</center></h2>
  13:/home/paulo/Alexandria/STM32Cube_FW_F4_V1.23.0/Drivers/BSP/STM32469I-Discovery/stm32469i_discovery.c ****   *
  14:/home/paulo/Alexandria/STM32Cube_FW_F4_V1.23.0/Drivers/BSP/STM32469I-Discovery/stm32469i_discovery.c ****   * Redistribution and use in source and binary forms, with or without modification,
  15:/home/paulo/Alexandria/STM32Cube_FW_F4_V1.23.0/Drivers/BSP/STM32469I-Discovery/stm32469i_discovery.c ****   * are permitted provided that the following conditions are met:
  16:/home/paulo/Alexandria/STM32Cube_FW_F4_V1.23.0/Drivers/BSP/STM32469I-Discovery/stm32469i_discovery.c ****   *   1. Redistributions of source code must retain the above copyright notice,
  17:/home/paulo/Alexandria/STM32Cube_FW_F4_V1.23.0/Drivers/BSP/STM32469I-Discovery/stm32469i_discovery.c ****   *      this list of conditions and the following disclaimer.
  18:/home/paulo/Alexandria/STM32Cube_FW_F4_V1.23.0/Drivers/BSP/STM32469I-Discovery/stm32469i_discovery.c ****   *   2. Redistributions in binary form must reproduce the above copyright notice,
  19:/home/paulo/Alexandria/STM32Cube_FW_F4_V1.23.0/Drivers/BSP/STM32469I-Discovery/stm32469i_discovery.c ****   *      this list of conditions and the following disclaimer in the documentation
  20:/home/paulo/Alexandria/STM32Cube_FW_F4_V1.23.0/Drivers/BSP/STM32469I-Discovery/stm32469i_discovery.c ****   *      and/or other materials provided with the distribution.
  21:/home/paulo/Alexandria/STM32Cube_FW_F4_V1.23.0/Drivers/BSP/STM32469I-Discovery/stm32469i_discovery.c ****   *   3. Neither the name of STMicroelectronics nor the names of its contributors
  22:/home/paulo/Alexandria/STM32Cube_FW_F4_V1.23.0/Drivers/BSP/STM32469I-Discovery/stm32469i_discovery.c ****   *      may be used to endorse or promote products derived from this software
  23:/home/paulo/Alexandria/STM32Cube_FW_F4_V1.23.0/Drivers/BSP/STM32469I-Discovery/stm32469i_discovery.c ****   *      without specific prior written permission.
  24:/home/paulo/Alexandria/STM32Cube_FW_F4_V1.23.0/Drivers/BSP/STM32469I-Discovery/stm32469i_discovery.c ****   *
  25:/home/paulo/Alexandria/STM32Cube_FW_F4_V1.23.0/Drivers/BSP/STM32469I-Discovery/stm32469i_discovery.c ****   * THIS SOFTWARE IS PROVIDED BY THE COPYRIGHT HOLDERS AND CONTRIBUTORS "AS IS"
  26:/home/paulo/Alexandria/STM32Cube_FW_F4_V1.23.0/Drivers/BSP/STM32469I-Discovery/stm32469i_discovery.c ****   * AND ANY EXPRESS OR IMPLIED WARRANTIES, INCLUDING, BUT NOT LIMITED TO, THE
  27:/home/paulo/Alexandria/STM32Cube_FW_F4_V1.23.0/Drivers/BSP/STM32469I-Discovery/stm32469i_discovery.c ****   * IMPLIED WARRANTIES OF MERCHANTABILITY AND FITNESS FOR A PARTICULAR PURPOSE ARE
  28:/home/paulo/Alexandria/STM32Cube_FW_F4_V1.23.0/Drivers/BSP/STM32469I-Discovery/stm32469i_discovery.c ****   * DISCLAIMED. IN NO EVENT SHALL THE COPYRIGHT HOLDER OR CONTRIBUTORS BE LIABLE
  29:/home/paulo/Alexandria/STM32Cube_FW_F4_V1.23.0/Drivers/BSP/STM32469I-Discovery/stm32469i_discovery.c ****   * FOR ANY DIRECT, INDIRECT, INCIDENTAL, SPECIAL, EXEMPLARY, OR CONSEQUENTIAL
  30:/home/paulo/Alexandria/STM32Cube_FW_F4_V1.23.0/Drivers/BSP/STM32469I-Discovery/stm32469i_discovery.c ****   * DAMAGES (INCLUDING, BUT NOT LIMITED TO, PROCUREMENT OF SUBSTITUTE GOODS OR
  31:/home/paulo/Alexandria/STM32Cube_FW_F4_V1.23.0/Drivers/BSP/STM32469I-Discovery/stm32469i_discovery.c ****   * SERVICES; LOSS OF USE, DATA, OR PROFITS; OR BUSINESS INTERRUPTION) HOWEVER
ARM GAS  /tmp/cc7YGL8m.s 			page 2


  32:/home/paulo/Alexandria/STM32Cube_FW_F4_V1.23.0/Drivers/BSP/STM32469I-Discovery/stm32469i_discovery.c ****   * CAUSED AND ON ANY THEORY OF LIABILITY, WHETHER IN CONTRACT, STRICT LIABILITY,
  33:/home/paulo/Alexandria/STM32Cube_FW_F4_V1.23.0/Drivers/BSP/STM32469I-Discovery/stm32469i_discovery.c ****   * OR TORT (INCLUDING NEGLIGENCE OR OTHERWISE) ARISING IN ANY WAY OUT OF THE USE
  34:/home/paulo/Alexandria/STM32Cube_FW_F4_V1.23.0/Drivers/BSP/STM32469I-Discovery/stm32469i_discovery.c ****   * OF THIS SOFTWARE, EVEN IF ADVISED OF THE POSSIBILITY OF SUCH DAMAGE.
  35:/home/paulo/Alexandria/STM32Cube_FW_F4_V1.23.0/Drivers/BSP/STM32469I-Discovery/stm32469i_discovery.c ****   *
  36:/home/paulo/Alexandria/STM32Cube_FW_F4_V1.23.0/Drivers/BSP/STM32469I-Discovery/stm32469i_discovery.c ****   ******************************************************************************
  37:/home/paulo/Alexandria/STM32Cube_FW_F4_V1.23.0/Drivers/BSP/STM32469I-Discovery/stm32469i_discovery.c ****   */
  38:/home/paulo/Alexandria/STM32Cube_FW_F4_V1.23.0/Drivers/BSP/STM32469I-Discovery/stm32469i_discovery.c **** 
  39:/home/paulo/Alexandria/STM32Cube_FW_F4_V1.23.0/Drivers/BSP/STM32469I-Discovery/stm32469i_discovery.c **** /* Includes ------------------------------------------------------------------*/
  40:/home/paulo/Alexandria/STM32Cube_FW_F4_V1.23.0/Drivers/BSP/STM32469I-Discovery/stm32469i_discovery.c **** #include "stm32469i_discovery.h"
  41:/home/paulo/Alexandria/STM32Cube_FW_F4_V1.23.0/Drivers/BSP/STM32469I-Discovery/stm32469i_discovery.c **** 
  42:/home/paulo/Alexandria/STM32Cube_FW_F4_V1.23.0/Drivers/BSP/STM32469I-Discovery/stm32469i_discovery.c **** /** @defgroup BSP BSP
  43:/home/paulo/Alexandria/STM32Cube_FW_F4_V1.23.0/Drivers/BSP/STM32469I-Discovery/stm32469i_discovery.c ****   * @{
  44:/home/paulo/Alexandria/STM32Cube_FW_F4_V1.23.0/Drivers/BSP/STM32469I-Discovery/stm32469i_discovery.c ****   */
  45:/home/paulo/Alexandria/STM32Cube_FW_F4_V1.23.0/Drivers/BSP/STM32469I-Discovery/stm32469i_discovery.c **** 
  46:/home/paulo/Alexandria/STM32Cube_FW_F4_V1.23.0/Drivers/BSP/STM32469I-Discovery/stm32469i_discovery.c **** /** @defgroup STM32469I_Discovery STM32469I Discovery
  47:/home/paulo/Alexandria/STM32Cube_FW_F4_V1.23.0/Drivers/BSP/STM32469I-Discovery/stm32469i_discovery.c ****   * @{
  48:/home/paulo/Alexandria/STM32Cube_FW_F4_V1.23.0/Drivers/BSP/STM32469I-Discovery/stm32469i_discovery.c ****   */
  49:/home/paulo/Alexandria/STM32Cube_FW_F4_V1.23.0/Drivers/BSP/STM32469I-Discovery/stm32469i_discovery.c **** 
  50:/home/paulo/Alexandria/STM32Cube_FW_F4_V1.23.0/Drivers/BSP/STM32469I-Discovery/stm32469i_discovery.c **** /** @defgroup STM32469I_Discovery_LOW_LEVEL STM32469I Discovery LOW LEVEL
  51:/home/paulo/Alexandria/STM32Cube_FW_F4_V1.23.0/Drivers/BSP/STM32469I-Discovery/stm32469i_discovery.c ****   * @{
  52:/home/paulo/Alexandria/STM32Cube_FW_F4_V1.23.0/Drivers/BSP/STM32469I-Discovery/stm32469i_discovery.c ****   */
  53:/home/paulo/Alexandria/STM32Cube_FW_F4_V1.23.0/Drivers/BSP/STM32469I-Discovery/stm32469i_discovery.c **** 
  54:/home/paulo/Alexandria/STM32Cube_FW_F4_V1.23.0/Drivers/BSP/STM32469I-Discovery/stm32469i_discovery.c **** /** @defgroup STM32469I_Discovery_LOW_LEVEL_Private_TypesDefinitions STM32469I Discovery LOW LEVEL 
  55:/home/paulo/Alexandria/STM32Cube_FW_F4_V1.23.0/Drivers/BSP/STM32469I-Discovery/stm32469i_discovery.c ****   * @{
  56:/home/paulo/Alexandria/STM32Cube_FW_F4_V1.23.0/Drivers/BSP/STM32469I-Discovery/stm32469i_discovery.c ****   */
  57:/home/paulo/Alexandria/STM32Cube_FW_F4_V1.23.0/Drivers/BSP/STM32469I-Discovery/stm32469i_discovery.c **** /**
  58:/home/paulo/Alexandria/STM32Cube_FW_F4_V1.23.0/Drivers/BSP/STM32469I-Discovery/stm32469i_discovery.c ****   * @}
  59:/home/paulo/Alexandria/STM32Cube_FW_F4_V1.23.0/Drivers/BSP/STM32469I-Discovery/stm32469i_discovery.c ****   */
  60:/home/paulo/Alexandria/STM32Cube_FW_F4_V1.23.0/Drivers/BSP/STM32469I-Discovery/stm32469i_discovery.c **** 
  61:/home/paulo/Alexandria/STM32Cube_FW_F4_V1.23.0/Drivers/BSP/STM32469I-Discovery/stm32469i_discovery.c **** /** @defgroup STM32469I_Discovery_LOW_LEVEL_Private_Defines STM32469I Discovery LOW LEVEL Private D
  62:/home/paulo/Alexandria/STM32Cube_FW_F4_V1.23.0/Drivers/BSP/STM32469I-Discovery/stm32469i_discovery.c ****   * @{
  63:/home/paulo/Alexandria/STM32Cube_FW_F4_V1.23.0/Drivers/BSP/STM32469I-Discovery/stm32469i_discovery.c ****   */
  64:/home/paulo/Alexandria/STM32Cube_FW_F4_V1.23.0/Drivers/BSP/STM32469I-Discovery/stm32469i_discovery.c **** /**
  65:/home/paulo/Alexandria/STM32Cube_FW_F4_V1.23.0/Drivers/BSP/STM32469I-Discovery/stm32469i_discovery.c ****  * @brief STM32469I Discovery BSP Driver version number V2.0.1
  66:/home/paulo/Alexandria/STM32Cube_FW_F4_V1.23.0/Drivers/BSP/STM32469I-Discovery/stm32469i_discovery.c ****    */
  67:/home/paulo/Alexandria/STM32Cube_FW_F4_V1.23.0/Drivers/BSP/STM32469I-Discovery/stm32469i_discovery.c **** #define __STM32469I_DISCOVERY_BSP_VERSION_MAIN   (0x02) /*!< [31:24] main version */
  68:/home/paulo/Alexandria/STM32Cube_FW_F4_V1.23.0/Drivers/BSP/STM32469I-Discovery/stm32469i_discovery.c **** #define __STM32469I_DISCOVERY_BSP_VERSION_SUB1   (0x00) /*!< [23:16] sub1 version */
  69:/home/paulo/Alexandria/STM32Cube_FW_F4_V1.23.0/Drivers/BSP/STM32469I-Discovery/stm32469i_discovery.c **** #define __STM32469I_DISCOVERY_BSP_VERSION_SUB2   (0x01) /*!< [15:8]  sub2 version */
  70:/home/paulo/Alexandria/STM32Cube_FW_F4_V1.23.0/Drivers/BSP/STM32469I-Discovery/stm32469i_discovery.c **** #define __STM32469I_DISCOVERY_BSP_VERSION_RC     (0x00) /*!< [7:0]  release candidate */
  71:/home/paulo/Alexandria/STM32Cube_FW_F4_V1.23.0/Drivers/BSP/STM32469I-Discovery/stm32469i_discovery.c **** #define __STM32469I_DISCOVERY_BSP_VERSION        ((__STM32469I_DISCOVERY_BSP_VERSION_MAIN << 24)\
  72:/home/paulo/Alexandria/STM32Cube_FW_F4_V1.23.0/Drivers/BSP/STM32469I-Discovery/stm32469i_discovery.c ****                                                  |(__STM32469I_DISCOVERY_BSP_VERSION_SUB1 << 16)\
  73:/home/paulo/Alexandria/STM32Cube_FW_F4_V1.23.0/Drivers/BSP/STM32469I-Discovery/stm32469i_discovery.c ****                                                  |(__STM32469I_DISCOVERY_BSP_VERSION_SUB2 << 8 )\
  74:/home/paulo/Alexandria/STM32Cube_FW_F4_V1.23.0/Drivers/BSP/STM32469I-Discovery/stm32469i_discovery.c ****                                                  |(__STM32469I_DISCOVERY_BSP_VERSION_RC))
  75:/home/paulo/Alexandria/STM32Cube_FW_F4_V1.23.0/Drivers/BSP/STM32469I-Discovery/stm32469i_discovery.c **** /**
  76:/home/paulo/Alexandria/STM32Cube_FW_F4_V1.23.0/Drivers/BSP/STM32469I-Discovery/stm32469i_discovery.c ****   * @}
  77:/home/paulo/Alexandria/STM32Cube_FW_F4_V1.23.0/Drivers/BSP/STM32469I-Discovery/stm32469i_discovery.c ****   */
  78:/home/paulo/Alexandria/STM32Cube_FW_F4_V1.23.0/Drivers/BSP/STM32469I-Discovery/stm32469i_discovery.c **** 
  79:/home/paulo/Alexandria/STM32Cube_FW_F4_V1.23.0/Drivers/BSP/STM32469I-Discovery/stm32469i_discovery.c **** /** @defgroup STM32469I_Discovery_LOW_LEVEL_Private_Macros  STM32469I Discovery LOW LEVEL Private M
  80:/home/paulo/Alexandria/STM32Cube_FW_F4_V1.23.0/Drivers/BSP/STM32469I-Discovery/stm32469i_discovery.c ****   * @{
  81:/home/paulo/Alexandria/STM32Cube_FW_F4_V1.23.0/Drivers/BSP/STM32469I-Discovery/stm32469i_discovery.c ****   */
  82:/home/paulo/Alexandria/STM32Cube_FW_F4_V1.23.0/Drivers/BSP/STM32469I-Discovery/stm32469i_discovery.c **** /**
  83:/home/paulo/Alexandria/STM32Cube_FW_F4_V1.23.0/Drivers/BSP/STM32469I-Discovery/stm32469i_discovery.c ****   * @}
  84:/home/paulo/Alexandria/STM32Cube_FW_F4_V1.23.0/Drivers/BSP/STM32469I-Discovery/stm32469i_discovery.c ****   */
  85:/home/paulo/Alexandria/STM32Cube_FW_F4_V1.23.0/Drivers/BSP/STM32469I-Discovery/stm32469i_discovery.c **** 
  86:/home/paulo/Alexandria/STM32Cube_FW_F4_V1.23.0/Drivers/BSP/STM32469I-Discovery/stm32469i_discovery.c **** /** @defgroup STM32469I_Discovery_LOW_LEVEL_Private_Variables STM32469I Discovery LOW LEVEL Private
  87:/home/paulo/Alexandria/STM32Cube_FW_F4_V1.23.0/Drivers/BSP/STM32469I-Discovery/stm32469i_discovery.c ****   * @{
  88:/home/paulo/Alexandria/STM32Cube_FW_F4_V1.23.0/Drivers/BSP/STM32469I-Discovery/stm32469i_discovery.c ****   */
ARM GAS  /tmp/cc7YGL8m.s 			page 3


  89:/home/paulo/Alexandria/STM32Cube_FW_F4_V1.23.0/Drivers/BSP/STM32469I-Discovery/stm32469i_discovery.c **** uint32_t GPIO_PIN[LEDn] = {LED1_PIN,
  90:/home/paulo/Alexandria/STM32Cube_FW_F4_V1.23.0/Drivers/BSP/STM32469I-Discovery/stm32469i_discovery.c ****                            LED2_PIN,
  91:/home/paulo/Alexandria/STM32Cube_FW_F4_V1.23.0/Drivers/BSP/STM32469I-Discovery/stm32469i_discovery.c ****                            LED3_PIN,
  92:/home/paulo/Alexandria/STM32Cube_FW_F4_V1.23.0/Drivers/BSP/STM32469I-Discovery/stm32469i_discovery.c ****                            LED4_PIN};
  93:/home/paulo/Alexandria/STM32Cube_FW_F4_V1.23.0/Drivers/BSP/STM32469I-Discovery/stm32469i_discovery.c **** 
  94:/home/paulo/Alexandria/STM32Cube_FW_F4_V1.23.0/Drivers/BSP/STM32469I-Discovery/stm32469i_discovery.c **** GPIO_TypeDef* GPIO_PORT[LEDn] = {LED1_GPIO_PORT,
  95:/home/paulo/Alexandria/STM32Cube_FW_F4_V1.23.0/Drivers/BSP/STM32469I-Discovery/stm32469i_discovery.c ****                                  LED2_GPIO_PORT,
  96:/home/paulo/Alexandria/STM32Cube_FW_F4_V1.23.0/Drivers/BSP/STM32469I-Discovery/stm32469i_discovery.c ****                                  LED3_GPIO_PORT,
  97:/home/paulo/Alexandria/STM32Cube_FW_F4_V1.23.0/Drivers/BSP/STM32469I-Discovery/stm32469i_discovery.c ****                                  LED4_GPIO_PORT};
  98:/home/paulo/Alexandria/STM32Cube_FW_F4_V1.23.0/Drivers/BSP/STM32469I-Discovery/stm32469i_discovery.c **** 
  99:/home/paulo/Alexandria/STM32Cube_FW_F4_V1.23.0/Drivers/BSP/STM32469I-Discovery/stm32469i_discovery.c **** GPIO_TypeDef* BUTTON_PORT[BUTTONn] = {WAKEUP_BUTTON_GPIO_PORT };
 100:/home/paulo/Alexandria/STM32Cube_FW_F4_V1.23.0/Drivers/BSP/STM32469I-Discovery/stm32469i_discovery.c **** 
 101:/home/paulo/Alexandria/STM32Cube_FW_F4_V1.23.0/Drivers/BSP/STM32469I-Discovery/stm32469i_discovery.c **** const uint16_t BUTTON_PIN[BUTTONn] = {WAKEUP_BUTTON_PIN };
 102:/home/paulo/Alexandria/STM32Cube_FW_F4_V1.23.0/Drivers/BSP/STM32469I-Discovery/stm32469i_discovery.c **** 
 103:/home/paulo/Alexandria/STM32Cube_FW_F4_V1.23.0/Drivers/BSP/STM32469I-Discovery/stm32469i_discovery.c **** const uint16_t BUTTON_IRQn[BUTTONn] = {WAKEUP_BUTTON_EXTI_IRQn };
 104:/home/paulo/Alexandria/STM32Cube_FW_F4_V1.23.0/Drivers/BSP/STM32469I-Discovery/stm32469i_discovery.c **** 
 105:/home/paulo/Alexandria/STM32Cube_FW_F4_V1.23.0/Drivers/BSP/STM32469I-Discovery/stm32469i_discovery.c **** 
 106:/home/paulo/Alexandria/STM32Cube_FW_F4_V1.23.0/Drivers/BSP/STM32469I-Discovery/stm32469i_discovery.c **** static I2C_HandleTypeDef heval_I2c1;
 107:/home/paulo/Alexandria/STM32Cube_FW_F4_V1.23.0/Drivers/BSP/STM32469I-Discovery/stm32469i_discovery.c **** static I2C_HandleTypeDef heval_I2c2;
 108:/home/paulo/Alexandria/STM32Cube_FW_F4_V1.23.0/Drivers/BSP/STM32469I-Discovery/stm32469i_discovery.c **** 
 109:/home/paulo/Alexandria/STM32Cube_FW_F4_V1.23.0/Drivers/BSP/STM32469I-Discovery/stm32469i_discovery.c **** /**
 110:/home/paulo/Alexandria/STM32Cube_FW_F4_V1.23.0/Drivers/BSP/STM32469I-Discovery/stm32469i_discovery.c ****   * @}
 111:/home/paulo/Alexandria/STM32Cube_FW_F4_V1.23.0/Drivers/BSP/STM32469I-Discovery/stm32469i_discovery.c ****   */
 112:/home/paulo/Alexandria/STM32Cube_FW_F4_V1.23.0/Drivers/BSP/STM32469I-Discovery/stm32469i_discovery.c **** 
 113:/home/paulo/Alexandria/STM32Cube_FW_F4_V1.23.0/Drivers/BSP/STM32469I-Discovery/stm32469i_discovery.c **** /** @defgroup STM32469I_Discovery_LOW_LEVEL_Private_FunctionPrototypes STM32469I Discovery LOW LEVE
 114:/home/paulo/Alexandria/STM32Cube_FW_F4_V1.23.0/Drivers/BSP/STM32469I-Discovery/stm32469i_discovery.c ****   * @{
 115:/home/paulo/Alexandria/STM32Cube_FW_F4_V1.23.0/Drivers/BSP/STM32469I-Discovery/stm32469i_discovery.c ****   */
 116:/home/paulo/Alexandria/STM32Cube_FW_F4_V1.23.0/Drivers/BSP/STM32469I-Discovery/stm32469i_discovery.c **** static void            I2C1_MspInit(void);
 117:/home/paulo/Alexandria/STM32Cube_FW_F4_V1.23.0/Drivers/BSP/STM32469I-Discovery/stm32469i_discovery.c **** static void            I2C2_MspInit(void);
 118:/home/paulo/Alexandria/STM32Cube_FW_F4_V1.23.0/Drivers/BSP/STM32469I-Discovery/stm32469i_discovery.c **** static void            I2C1_Init(void);
 119:/home/paulo/Alexandria/STM32Cube_FW_F4_V1.23.0/Drivers/BSP/STM32469I-Discovery/stm32469i_discovery.c **** static void            I2C2_Init(void);
 120:/home/paulo/Alexandria/STM32Cube_FW_F4_V1.23.0/Drivers/BSP/STM32469I-Discovery/stm32469i_discovery.c **** 
 121:/home/paulo/Alexandria/STM32Cube_FW_F4_V1.23.0/Drivers/BSP/STM32469I-Discovery/stm32469i_discovery.c **** #if defined(USE_IOEXPANDER)
 122:/home/paulo/Alexandria/STM32Cube_FW_F4_V1.23.0/Drivers/BSP/STM32469I-Discovery/stm32469i_discovery.c **** static void            I2C1_Write(uint8_t Addr, uint8_t Reg, uint8_t Value);
 123:/home/paulo/Alexandria/STM32Cube_FW_F4_V1.23.0/Drivers/BSP/STM32469I-Discovery/stm32469i_discovery.c **** static uint8_t       I2C1_Read(uint8_t Addr, uint8_t Reg);
 124:/home/paulo/Alexandria/STM32Cube_FW_F4_V1.23.0/Drivers/BSP/STM32469I-Discovery/stm32469i_discovery.c **** #endif /* USE_IOEXPANDER */
 125:/home/paulo/Alexandria/STM32Cube_FW_F4_V1.23.0/Drivers/BSP/STM32469I-Discovery/stm32469i_discovery.c **** static HAL_StatusTypeDef I2C1_ReadMultiple(uint8_t Addr, uint16_t Reg, uint16_t MemAddSize, uint8_t
 126:/home/paulo/Alexandria/STM32Cube_FW_F4_V1.23.0/Drivers/BSP/STM32469I-Discovery/stm32469i_discovery.c **** static HAL_StatusTypeDef I2C2_ReadMultiple(uint8_t Addr, uint16_t Reg, uint16_t MemAddSize, uint8_t
 127:/home/paulo/Alexandria/STM32Cube_FW_F4_V1.23.0/Drivers/BSP/STM32469I-Discovery/stm32469i_discovery.c **** static HAL_StatusTypeDef I2C1_WriteMultiple(uint8_t Addr, uint16_t Reg, uint16_t MemAddSize, uint8_
 128:/home/paulo/Alexandria/STM32Cube_FW_F4_V1.23.0/Drivers/BSP/STM32469I-Discovery/stm32469i_discovery.c **** static HAL_StatusTypeDef I2C2_WriteMultiple(uint8_t Addr, uint16_t Reg, uint16_t MemAddSize, uint8_
 129:/home/paulo/Alexandria/STM32Cube_FW_F4_V1.23.0/Drivers/BSP/STM32469I-Discovery/stm32469i_discovery.c **** static HAL_StatusTypeDef I2C1_IsDeviceReady(uint16_t DevAddress, uint32_t Trials);
 130:/home/paulo/Alexandria/STM32Cube_FW_F4_V1.23.0/Drivers/BSP/STM32469I-Discovery/stm32469i_discovery.c **** static void              I2C1_Error(uint8_t Addr);
 131:/home/paulo/Alexandria/STM32Cube_FW_F4_V1.23.0/Drivers/BSP/STM32469I-Discovery/stm32469i_discovery.c **** static void              I2C2_Error(uint8_t Addr);
 132:/home/paulo/Alexandria/STM32Cube_FW_F4_V1.23.0/Drivers/BSP/STM32469I-Discovery/stm32469i_discovery.c **** 
 133:/home/paulo/Alexandria/STM32Cube_FW_F4_V1.23.0/Drivers/BSP/STM32469I-Discovery/stm32469i_discovery.c **** /* AUDIO IO functions */
 134:/home/paulo/Alexandria/STM32Cube_FW_F4_V1.23.0/Drivers/BSP/STM32469I-Discovery/stm32469i_discovery.c **** void              AUDIO_IO_Init(void);
 135:/home/paulo/Alexandria/STM32Cube_FW_F4_V1.23.0/Drivers/BSP/STM32469I-Discovery/stm32469i_discovery.c **** void              AUDIO_IO_DeInit(void);
 136:/home/paulo/Alexandria/STM32Cube_FW_F4_V1.23.0/Drivers/BSP/STM32469I-Discovery/stm32469i_discovery.c **** void              AUDIO_IO_Write(uint8_t Addr, uint8_t Reg, uint8_t Value);
 137:/home/paulo/Alexandria/STM32Cube_FW_F4_V1.23.0/Drivers/BSP/STM32469I-Discovery/stm32469i_discovery.c **** uint8_t           AUDIO_IO_Read(uint8_t Addr, uint8_t Reg);
 138:/home/paulo/Alexandria/STM32Cube_FW_F4_V1.23.0/Drivers/BSP/STM32469I-Discovery/stm32469i_discovery.c **** void              AUDIO_IO_Delay(uint32_t Delay);
 139:/home/paulo/Alexandria/STM32Cube_FW_F4_V1.23.0/Drivers/BSP/STM32469I-Discovery/stm32469i_discovery.c **** 
 140:/home/paulo/Alexandria/STM32Cube_FW_F4_V1.23.0/Drivers/BSP/STM32469I-Discovery/stm32469i_discovery.c **** 
 141:/home/paulo/Alexandria/STM32Cube_FW_F4_V1.23.0/Drivers/BSP/STM32469I-Discovery/stm32469i_discovery.c **** /* I2C EEPROM IO function */
 142:/home/paulo/Alexandria/STM32Cube_FW_F4_V1.23.0/Drivers/BSP/STM32469I-Discovery/stm32469i_discovery.c **** void                EEPROM_IO_Init(void);
 143:/home/paulo/Alexandria/STM32Cube_FW_F4_V1.23.0/Drivers/BSP/STM32469I-Discovery/stm32469i_discovery.c **** HAL_StatusTypeDef   EEPROM_IO_WriteData(uint16_t DevAddress, uint16_t MemAddress, uint8_t* pBuffer,
 144:/home/paulo/Alexandria/STM32Cube_FW_F4_V1.23.0/Drivers/BSP/STM32469I-Discovery/stm32469i_discovery.c **** HAL_StatusTypeDef   EEPROM_IO_ReadData(uint16_t DevAddress, uint16_t MemAddress, uint8_t* pBuffer, 
 145:/home/paulo/Alexandria/STM32Cube_FW_F4_V1.23.0/Drivers/BSP/STM32469I-Discovery/stm32469i_discovery.c **** HAL_StatusTypeDef   EEPROM_IO_IsDeviceReady(uint16_t DevAddress, uint32_t Trials);
ARM GAS  /tmp/cc7YGL8m.s 			page 4


 146:/home/paulo/Alexandria/STM32Cube_FW_F4_V1.23.0/Drivers/BSP/STM32469I-Discovery/stm32469i_discovery.c **** 
 147:/home/paulo/Alexandria/STM32Cube_FW_F4_V1.23.0/Drivers/BSP/STM32469I-Discovery/stm32469i_discovery.c **** /* TouchScreen (TS) IO functions */
 148:/home/paulo/Alexandria/STM32Cube_FW_F4_V1.23.0/Drivers/BSP/STM32469I-Discovery/stm32469i_discovery.c **** void    TS_IO_Init(void);
 149:/home/paulo/Alexandria/STM32Cube_FW_F4_V1.23.0/Drivers/BSP/STM32469I-Discovery/stm32469i_discovery.c **** void    TS_IO_Write(uint8_t Addr, uint8_t Reg, uint8_t Value);
 150:/home/paulo/Alexandria/STM32Cube_FW_F4_V1.23.0/Drivers/BSP/STM32469I-Discovery/stm32469i_discovery.c **** uint8_t  TS_IO_Read(uint8_t Addr, uint8_t Reg);
 151:/home/paulo/Alexandria/STM32Cube_FW_F4_V1.23.0/Drivers/BSP/STM32469I-Discovery/stm32469i_discovery.c **** uint16_t TS_IO_ReadMultiple(uint8_t Addr, uint8_t Reg, uint8_t *Buffer, uint16_t Length);
 152:/home/paulo/Alexandria/STM32Cube_FW_F4_V1.23.0/Drivers/BSP/STM32469I-Discovery/stm32469i_discovery.c **** void    TS_IO_WriteMultiple(uint8_t Addr, uint8_t Reg, uint8_t *Buffer, uint16_t Length);
 153:/home/paulo/Alexandria/STM32Cube_FW_F4_V1.23.0/Drivers/BSP/STM32469I-Discovery/stm32469i_discovery.c **** void    TS_IO_Delay(uint32_t Delay);
 154:/home/paulo/Alexandria/STM32Cube_FW_F4_V1.23.0/Drivers/BSP/STM32469I-Discovery/stm32469i_discovery.c **** void     OTM8009A_IO_Delay(uint32_t Delay);
 155:/home/paulo/Alexandria/STM32Cube_FW_F4_V1.23.0/Drivers/BSP/STM32469I-Discovery/stm32469i_discovery.c **** /**
 156:/home/paulo/Alexandria/STM32Cube_FW_F4_V1.23.0/Drivers/BSP/STM32469I-Discovery/stm32469i_discovery.c ****   * @}
 157:/home/paulo/Alexandria/STM32Cube_FW_F4_V1.23.0/Drivers/BSP/STM32469I-Discovery/stm32469i_discovery.c ****   */
 158:/home/paulo/Alexandria/STM32Cube_FW_F4_V1.23.0/Drivers/BSP/STM32469I-Discovery/stm32469i_discovery.c **** 
 159:/home/paulo/Alexandria/STM32Cube_FW_F4_V1.23.0/Drivers/BSP/STM32469I-Discovery/stm32469i_discovery.c **** /** @defgroup STM32469I_Discovery_BSP_Public_Functions STM32469I Discovery BSP Public Functions
 160:/home/paulo/Alexandria/STM32Cube_FW_F4_V1.23.0/Drivers/BSP/STM32469I-Discovery/stm32469i_discovery.c ****   * @{
 161:/home/paulo/Alexandria/STM32Cube_FW_F4_V1.23.0/Drivers/BSP/STM32469I-Discovery/stm32469i_discovery.c ****   */
 162:/home/paulo/Alexandria/STM32Cube_FW_F4_V1.23.0/Drivers/BSP/STM32469I-Discovery/stm32469i_discovery.c **** 
 163:/home/paulo/Alexandria/STM32Cube_FW_F4_V1.23.0/Drivers/BSP/STM32469I-Discovery/stm32469i_discovery.c ****   /**
 164:/home/paulo/Alexandria/STM32Cube_FW_F4_V1.23.0/Drivers/BSP/STM32469I-Discovery/stm32469i_discovery.c ****   * @brief  This method returns the STM32469I Discovery BSP Driver revision
 165:/home/paulo/Alexandria/STM32Cube_FW_F4_V1.23.0/Drivers/BSP/STM32469I-Discovery/stm32469i_discovery.c ****   * @retval version: 0xXYZR (8bits for each decimal, R for RC)
 166:/home/paulo/Alexandria/STM32Cube_FW_F4_V1.23.0/Drivers/BSP/STM32469I-Discovery/stm32469i_discovery.c ****   */
 167:/home/paulo/Alexandria/STM32Cube_FW_F4_V1.23.0/Drivers/BSP/STM32469I-Discovery/stm32469i_discovery.c **** uint32_t BSP_GetVersion(void)
 168:/home/paulo/Alexandria/STM32Cube_FW_F4_V1.23.0/Drivers/BSP/STM32469I-Discovery/stm32469i_discovery.c **** {
 169:/home/paulo/Alexandria/STM32Cube_FW_F4_V1.23.0/Drivers/BSP/STM32469I-Discovery/stm32469i_discovery.c ****   return __STM32469I_DISCOVERY_BSP_VERSION;
 170:/home/paulo/Alexandria/STM32Cube_FW_F4_V1.23.0/Drivers/BSP/STM32469I-Discovery/stm32469i_discovery.c **** }
 171:/home/paulo/Alexandria/STM32Cube_FW_F4_V1.23.0/Drivers/BSP/STM32469I-Discovery/stm32469i_discovery.c **** 
 172:/home/paulo/Alexandria/STM32Cube_FW_F4_V1.23.0/Drivers/BSP/STM32469I-Discovery/stm32469i_discovery.c **** /**
 173:/home/paulo/Alexandria/STM32Cube_FW_F4_V1.23.0/Drivers/BSP/STM32469I-Discovery/stm32469i_discovery.c ****   * @brief  Configures LED GPIO.
 174:/home/paulo/Alexandria/STM32Cube_FW_F4_V1.23.0/Drivers/BSP/STM32469I-Discovery/stm32469i_discovery.c ****   * @param  Led: LED to be configured.
 175:/home/paulo/Alexandria/STM32Cube_FW_F4_V1.23.0/Drivers/BSP/STM32469I-Discovery/stm32469i_discovery.c ****   *          This parameter can be one of the following values:
 176:/home/paulo/Alexandria/STM32Cube_FW_F4_V1.23.0/Drivers/BSP/STM32469I-Discovery/stm32469i_discovery.c ****   *            @arg  LED1
 177:/home/paulo/Alexandria/STM32Cube_FW_F4_V1.23.0/Drivers/BSP/STM32469I-Discovery/stm32469i_discovery.c ****   *            @arg  LED2
 178:/home/paulo/Alexandria/STM32Cube_FW_F4_V1.23.0/Drivers/BSP/STM32469I-Discovery/stm32469i_discovery.c ****   *            @arg  LED3
 179:/home/paulo/Alexandria/STM32Cube_FW_F4_V1.23.0/Drivers/BSP/STM32469I-Discovery/stm32469i_discovery.c ****   *            @arg  LED4
 180:/home/paulo/Alexandria/STM32Cube_FW_F4_V1.23.0/Drivers/BSP/STM32469I-Discovery/stm32469i_discovery.c ****   */
 181:/home/paulo/Alexandria/STM32Cube_FW_F4_V1.23.0/Drivers/BSP/STM32469I-Discovery/stm32469i_discovery.c **** void BSP_LED_Init(Led_TypeDef Led)
 182:/home/paulo/Alexandria/STM32Cube_FW_F4_V1.23.0/Drivers/BSP/STM32469I-Discovery/stm32469i_discovery.c **** {
 183:/home/paulo/Alexandria/STM32Cube_FW_F4_V1.23.0/Drivers/BSP/STM32469I-Discovery/stm32469i_discovery.c ****   GPIO_InitTypeDef  gpio_init_structure;
 184:/home/paulo/Alexandria/STM32Cube_FW_F4_V1.23.0/Drivers/BSP/STM32469I-Discovery/stm32469i_discovery.c **** 
 185:/home/paulo/Alexandria/STM32Cube_FW_F4_V1.23.0/Drivers/BSP/STM32469I-Discovery/stm32469i_discovery.c ****   if (Led <= LED4)
 186:/home/paulo/Alexandria/STM32Cube_FW_F4_V1.23.0/Drivers/BSP/STM32469I-Discovery/stm32469i_discovery.c ****   {
 187:/home/paulo/Alexandria/STM32Cube_FW_F4_V1.23.0/Drivers/BSP/STM32469I-Discovery/stm32469i_discovery.c ****     /* Configure the GPIO_LED pin */
 188:/home/paulo/Alexandria/STM32Cube_FW_F4_V1.23.0/Drivers/BSP/STM32469I-Discovery/stm32469i_discovery.c ****     gpio_init_structure.Pin   = GPIO_PIN[Led];
 189:/home/paulo/Alexandria/STM32Cube_FW_F4_V1.23.0/Drivers/BSP/STM32469I-Discovery/stm32469i_discovery.c ****     gpio_init_structure.Mode  = GPIO_MODE_OUTPUT_PP;
 190:/home/paulo/Alexandria/STM32Cube_FW_F4_V1.23.0/Drivers/BSP/STM32469I-Discovery/stm32469i_discovery.c ****     gpio_init_structure.Pull  = GPIO_PULLUP;
 191:/home/paulo/Alexandria/STM32Cube_FW_F4_V1.23.0/Drivers/BSP/STM32469I-Discovery/stm32469i_discovery.c ****     gpio_init_structure.Speed = GPIO_SPEED_HIGH;
 192:/home/paulo/Alexandria/STM32Cube_FW_F4_V1.23.0/Drivers/BSP/STM32469I-Discovery/stm32469i_discovery.c **** 
 193:/home/paulo/Alexandria/STM32Cube_FW_F4_V1.23.0/Drivers/BSP/STM32469I-Discovery/stm32469i_discovery.c ****     switch(Led)
 194:/home/paulo/Alexandria/STM32Cube_FW_F4_V1.23.0/Drivers/BSP/STM32469I-Discovery/stm32469i_discovery.c ****     {
 195:/home/paulo/Alexandria/STM32Cube_FW_F4_V1.23.0/Drivers/BSP/STM32469I-Discovery/stm32469i_discovery.c ****     case LED1 :
 196:/home/paulo/Alexandria/STM32Cube_FW_F4_V1.23.0/Drivers/BSP/STM32469I-Discovery/stm32469i_discovery.c ****       LED1_GPIO_CLK_ENABLE();
 197:/home/paulo/Alexandria/STM32Cube_FW_F4_V1.23.0/Drivers/BSP/STM32469I-Discovery/stm32469i_discovery.c ****       break;
 198:/home/paulo/Alexandria/STM32Cube_FW_F4_V1.23.0/Drivers/BSP/STM32469I-Discovery/stm32469i_discovery.c ****     case LED2 :
 199:/home/paulo/Alexandria/STM32Cube_FW_F4_V1.23.0/Drivers/BSP/STM32469I-Discovery/stm32469i_discovery.c ****       LED2_GPIO_CLK_ENABLE();
 200:/home/paulo/Alexandria/STM32Cube_FW_F4_V1.23.0/Drivers/BSP/STM32469I-Discovery/stm32469i_discovery.c ****       break;
 201:/home/paulo/Alexandria/STM32Cube_FW_F4_V1.23.0/Drivers/BSP/STM32469I-Discovery/stm32469i_discovery.c ****     case LED3 :
 202:/home/paulo/Alexandria/STM32Cube_FW_F4_V1.23.0/Drivers/BSP/STM32469I-Discovery/stm32469i_discovery.c ****       LED3_GPIO_CLK_ENABLE();
ARM GAS  /tmp/cc7YGL8m.s 			page 5


 203:/home/paulo/Alexandria/STM32Cube_FW_F4_V1.23.0/Drivers/BSP/STM32469I-Discovery/stm32469i_discovery.c ****       break;
 204:/home/paulo/Alexandria/STM32Cube_FW_F4_V1.23.0/Drivers/BSP/STM32469I-Discovery/stm32469i_discovery.c ****     case LED4 :
 205:/home/paulo/Alexandria/STM32Cube_FW_F4_V1.23.0/Drivers/BSP/STM32469I-Discovery/stm32469i_discovery.c ****       LED4_GPIO_CLK_ENABLE();
 206:/home/paulo/Alexandria/STM32Cube_FW_F4_V1.23.0/Drivers/BSP/STM32469I-Discovery/stm32469i_discovery.c ****       break;
 207:/home/paulo/Alexandria/STM32Cube_FW_F4_V1.23.0/Drivers/BSP/STM32469I-Discovery/stm32469i_discovery.c ****     default :
 208:/home/paulo/Alexandria/STM32Cube_FW_F4_V1.23.0/Drivers/BSP/STM32469I-Discovery/stm32469i_discovery.c ****       break;
 209:/home/paulo/Alexandria/STM32Cube_FW_F4_V1.23.0/Drivers/BSP/STM32469I-Discovery/stm32469i_discovery.c **** 
 210:/home/paulo/Alexandria/STM32Cube_FW_F4_V1.23.0/Drivers/BSP/STM32469I-Discovery/stm32469i_discovery.c ****     } /* end switch */
 211:/home/paulo/Alexandria/STM32Cube_FW_F4_V1.23.0/Drivers/BSP/STM32469I-Discovery/stm32469i_discovery.c **** 
 212:/home/paulo/Alexandria/STM32Cube_FW_F4_V1.23.0/Drivers/BSP/STM32469I-Discovery/stm32469i_discovery.c ****     HAL_GPIO_Init(GPIO_PORT[Led], &gpio_init_structure);
 213:/home/paulo/Alexandria/STM32Cube_FW_F4_V1.23.0/Drivers/BSP/STM32469I-Discovery/stm32469i_discovery.c **** 
 214:/home/paulo/Alexandria/STM32Cube_FW_F4_V1.23.0/Drivers/BSP/STM32469I-Discovery/stm32469i_discovery.c ****     /* By default, turn off LED by setting a high level on corresponding GPIO */
 215:/home/paulo/Alexandria/STM32Cube_FW_F4_V1.23.0/Drivers/BSP/STM32469I-Discovery/stm32469i_discovery.c ****     HAL_GPIO_WritePin(GPIO_PORT[Led], GPIO_PIN[Led], GPIO_PIN_SET);
 216:/home/paulo/Alexandria/STM32Cube_FW_F4_V1.23.0/Drivers/BSP/STM32469I-Discovery/stm32469i_discovery.c **** 
 217:/home/paulo/Alexandria/STM32Cube_FW_F4_V1.23.0/Drivers/BSP/STM32469I-Discovery/stm32469i_discovery.c ****   } /* of if (Led <= LED4) */
 218:/home/paulo/Alexandria/STM32Cube_FW_F4_V1.23.0/Drivers/BSP/STM32469I-Discovery/stm32469i_discovery.c **** 
 219:/home/paulo/Alexandria/STM32Cube_FW_F4_V1.23.0/Drivers/BSP/STM32469I-Discovery/stm32469i_discovery.c **** }
 220:/home/paulo/Alexandria/STM32Cube_FW_F4_V1.23.0/Drivers/BSP/STM32469I-Discovery/stm32469i_discovery.c **** 
 221:/home/paulo/Alexandria/STM32Cube_FW_F4_V1.23.0/Drivers/BSP/STM32469I-Discovery/stm32469i_discovery.c **** 
 222:/home/paulo/Alexandria/STM32Cube_FW_F4_V1.23.0/Drivers/BSP/STM32469I-Discovery/stm32469i_discovery.c **** /**
 223:/home/paulo/Alexandria/STM32Cube_FW_F4_V1.23.0/Drivers/BSP/STM32469I-Discovery/stm32469i_discovery.c ****   * @brief  DeInit LEDs.
 224:/home/paulo/Alexandria/STM32Cube_FW_F4_V1.23.0/Drivers/BSP/STM32469I-Discovery/stm32469i_discovery.c ****   * @param  Led: LED to be configured.
 225:/home/paulo/Alexandria/STM32Cube_FW_F4_V1.23.0/Drivers/BSP/STM32469I-Discovery/stm32469i_discovery.c ****   *          This parameter can be one of the following values:
 226:/home/paulo/Alexandria/STM32Cube_FW_F4_V1.23.0/Drivers/BSP/STM32469I-Discovery/stm32469i_discovery.c ****   *            @arg  LED1
 227:/home/paulo/Alexandria/STM32Cube_FW_F4_V1.23.0/Drivers/BSP/STM32469I-Discovery/stm32469i_discovery.c ****   *            @arg  LED2
 228:/home/paulo/Alexandria/STM32Cube_FW_F4_V1.23.0/Drivers/BSP/STM32469I-Discovery/stm32469i_discovery.c ****   *            @arg  LED3
 229:/home/paulo/Alexandria/STM32Cube_FW_F4_V1.23.0/Drivers/BSP/STM32469I-Discovery/stm32469i_discovery.c ****   *            @arg  LED4
 230:/home/paulo/Alexandria/STM32Cube_FW_F4_V1.23.0/Drivers/BSP/STM32469I-Discovery/stm32469i_discovery.c ****   * @note Led DeInit does not disable the GPIO clock nor disable the Mfx
 231:/home/paulo/Alexandria/STM32Cube_FW_F4_V1.23.0/Drivers/BSP/STM32469I-Discovery/stm32469i_discovery.c ****   */
 232:/home/paulo/Alexandria/STM32Cube_FW_F4_V1.23.0/Drivers/BSP/STM32469I-Discovery/stm32469i_discovery.c **** void BSP_LED_DeInit(Led_TypeDef Led)
 233:/home/paulo/Alexandria/STM32Cube_FW_F4_V1.23.0/Drivers/BSP/STM32469I-Discovery/stm32469i_discovery.c **** {
 234:/home/paulo/Alexandria/STM32Cube_FW_F4_V1.23.0/Drivers/BSP/STM32469I-Discovery/stm32469i_discovery.c ****   GPIO_InitTypeDef  gpio_init_structure;
 235:/home/paulo/Alexandria/STM32Cube_FW_F4_V1.23.0/Drivers/BSP/STM32469I-Discovery/stm32469i_discovery.c **** 
 236:/home/paulo/Alexandria/STM32Cube_FW_F4_V1.23.0/Drivers/BSP/STM32469I-Discovery/stm32469i_discovery.c ****   if (Led <= LED4)
 237:/home/paulo/Alexandria/STM32Cube_FW_F4_V1.23.0/Drivers/BSP/STM32469I-Discovery/stm32469i_discovery.c ****   {
 238:/home/paulo/Alexandria/STM32Cube_FW_F4_V1.23.0/Drivers/BSP/STM32469I-Discovery/stm32469i_discovery.c ****     /* DeInit the GPIO_LED pin */
 239:/home/paulo/Alexandria/STM32Cube_FW_F4_V1.23.0/Drivers/BSP/STM32469I-Discovery/stm32469i_discovery.c ****     gpio_init_structure.Pin = GPIO_PIN[Led];
 240:/home/paulo/Alexandria/STM32Cube_FW_F4_V1.23.0/Drivers/BSP/STM32469I-Discovery/stm32469i_discovery.c **** 
 241:/home/paulo/Alexandria/STM32Cube_FW_F4_V1.23.0/Drivers/BSP/STM32469I-Discovery/stm32469i_discovery.c ****     /* Turn off LED */
 242:/home/paulo/Alexandria/STM32Cube_FW_F4_V1.23.0/Drivers/BSP/STM32469I-Discovery/stm32469i_discovery.c ****     HAL_GPIO_WritePin(GPIO_PORT[Led], GPIO_PIN[Led], GPIO_PIN_SET);
 243:/home/paulo/Alexandria/STM32Cube_FW_F4_V1.23.0/Drivers/BSP/STM32469I-Discovery/stm32469i_discovery.c ****     HAL_GPIO_DeInit(GPIO_PORT[Led], gpio_init_structure.Pin);
 244:/home/paulo/Alexandria/STM32Cube_FW_F4_V1.23.0/Drivers/BSP/STM32469I-Discovery/stm32469i_discovery.c ****   }
 245:/home/paulo/Alexandria/STM32Cube_FW_F4_V1.23.0/Drivers/BSP/STM32469I-Discovery/stm32469i_discovery.c **** 
 246:/home/paulo/Alexandria/STM32Cube_FW_F4_V1.23.0/Drivers/BSP/STM32469I-Discovery/stm32469i_discovery.c **** }
 247:/home/paulo/Alexandria/STM32Cube_FW_F4_V1.23.0/Drivers/BSP/STM32469I-Discovery/stm32469i_discovery.c **** 
 248:/home/paulo/Alexandria/STM32Cube_FW_F4_V1.23.0/Drivers/BSP/STM32469I-Discovery/stm32469i_discovery.c **** /**
 249:/home/paulo/Alexandria/STM32Cube_FW_F4_V1.23.0/Drivers/BSP/STM32469I-Discovery/stm32469i_discovery.c ****   * @brief  Turns selected LED On.
 250:/home/paulo/Alexandria/STM32Cube_FW_F4_V1.23.0/Drivers/BSP/STM32469I-Discovery/stm32469i_discovery.c ****   * @param  Led: LED to be set on
 251:/home/paulo/Alexandria/STM32Cube_FW_F4_V1.23.0/Drivers/BSP/STM32469I-Discovery/stm32469i_discovery.c ****   *          This parameter can be one of the following values:
 252:/home/paulo/Alexandria/STM32Cube_FW_F4_V1.23.0/Drivers/BSP/STM32469I-Discovery/stm32469i_discovery.c ****   *            @arg  LED1
 253:/home/paulo/Alexandria/STM32Cube_FW_F4_V1.23.0/Drivers/BSP/STM32469I-Discovery/stm32469i_discovery.c ****   *            @arg  LED2
 254:/home/paulo/Alexandria/STM32Cube_FW_F4_V1.23.0/Drivers/BSP/STM32469I-Discovery/stm32469i_discovery.c ****   *            @arg  LED3
 255:/home/paulo/Alexandria/STM32Cube_FW_F4_V1.23.0/Drivers/BSP/STM32469I-Discovery/stm32469i_discovery.c ****   *            @arg  LED4
 256:/home/paulo/Alexandria/STM32Cube_FW_F4_V1.23.0/Drivers/BSP/STM32469I-Discovery/stm32469i_discovery.c ****   */
 257:/home/paulo/Alexandria/STM32Cube_FW_F4_V1.23.0/Drivers/BSP/STM32469I-Discovery/stm32469i_discovery.c **** void BSP_LED_On(Led_TypeDef Led)
 258:/home/paulo/Alexandria/STM32Cube_FW_F4_V1.23.0/Drivers/BSP/STM32469I-Discovery/stm32469i_discovery.c **** {
 259:/home/paulo/Alexandria/STM32Cube_FW_F4_V1.23.0/Drivers/BSP/STM32469I-Discovery/stm32469i_discovery.c ****   if (Led <= LED4)
ARM GAS  /tmp/cc7YGL8m.s 			page 6


 260:/home/paulo/Alexandria/STM32Cube_FW_F4_V1.23.0/Drivers/BSP/STM32469I-Discovery/stm32469i_discovery.c ****   {
 261:/home/paulo/Alexandria/STM32Cube_FW_F4_V1.23.0/Drivers/BSP/STM32469I-Discovery/stm32469i_discovery.c ****      HAL_GPIO_WritePin(GPIO_PORT[Led], GPIO_PIN[Led], GPIO_PIN_RESET);
 262:/home/paulo/Alexandria/STM32Cube_FW_F4_V1.23.0/Drivers/BSP/STM32469I-Discovery/stm32469i_discovery.c ****   }
 263:/home/paulo/Alexandria/STM32Cube_FW_F4_V1.23.0/Drivers/BSP/STM32469I-Discovery/stm32469i_discovery.c **** 
 264:/home/paulo/Alexandria/STM32Cube_FW_F4_V1.23.0/Drivers/BSP/STM32469I-Discovery/stm32469i_discovery.c **** }
 265:/home/paulo/Alexandria/STM32Cube_FW_F4_V1.23.0/Drivers/BSP/STM32469I-Discovery/stm32469i_discovery.c **** 
 266:/home/paulo/Alexandria/STM32Cube_FW_F4_V1.23.0/Drivers/BSP/STM32469I-Discovery/stm32469i_discovery.c **** /**
 267:/home/paulo/Alexandria/STM32Cube_FW_F4_V1.23.0/Drivers/BSP/STM32469I-Discovery/stm32469i_discovery.c ****   * @brief  Turns selected LED Off.
 268:/home/paulo/Alexandria/STM32Cube_FW_F4_V1.23.0/Drivers/BSP/STM32469I-Discovery/stm32469i_discovery.c ****   * @param  Led: LED to be set off
 269:/home/paulo/Alexandria/STM32Cube_FW_F4_V1.23.0/Drivers/BSP/STM32469I-Discovery/stm32469i_discovery.c ****   *          This parameter can be one of the following values:
 270:/home/paulo/Alexandria/STM32Cube_FW_F4_V1.23.0/Drivers/BSP/STM32469I-Discovery/stm32469i_discovery.c ****   *            @arg  LED1
 271:/home/paulo/Alexandria/STM32Cube_FW_F4_V1.23.0/Drivers/BSP/STM32469I-Discovery/stm32469i_discovery.c ****   *            @arg  LED2
 272:/home/paulo/Alexandria/STM32Cube_FW_F4_V1.23.0/Drivers/BSP/STM32469I-Discovery/stm32469i_discovery.c ****   *            @arg  LED3
 273:/home/paulo/Alexandria/STM32Cube_FW_F4_V1.23.0/Drivers/BSP/STM32469I-Discovery/stm32469i_discovery.c ****   *            @arg  LED4
 274:/home/paulo/Alexandria/STM32Cube_FW_F4_V1.23.0/Drivers/BSP/STM32469I-Discovery/stm32469i_discovery.c ****   */
 275:/home/paulo/Alexandria/STM32Cube_FW_F4_V1.23.0/Drivers/BSP/STM32469I-Discovery/stm32469i_discovery.c **** void BSP_LED_Off(Led_TypeDef Led)
 276:/home/paulo/Alexandria/STM32Cube_FW_F4_V1.23.0/Drivers/BSP/STM32469I-Discovery/stm32469i_discovery.c **** {
 277:/home/paulo/Alexandria/STM32Cube_FW_F4_V1.23.0/Drivers/BSP/STM32469I-Discovery/stm32469i_discovery.c ****   if (Led <= LED4)
 278:/home/paulo/Alexandria/STM32Cube_FW_F4_V1.23.0/Drivers/BSP/STM32469I-Discovery/stm32469i_discovery.c ****   {
 279:/home/paulo/Alexandria/STM32Cube_FW_F4_V1.23.0/Drivers/BSP/STM32469I-Discovery/stm32469i_discovery.c ****     HAL_GPIO_WritePin(GPIO_PORT[Led], GPIO_PIN[Led], GPIO_PIN_SET);
 280:/home/paulo/Alexandria/STM32Cube_FW_F4_V1.23.0/Drivers/BSP/STM32469I-Discovery/stm32469i_discovery.c ****   }
 281:/home/paulo/Alexandria/STM32Cube_FW_F4_V1.23.0/Drivers/BSP/STM32469I-Discovery/stm32469i_discovery.c **** }
 282:/home/paulo/Alexandria/STM32Cube_FW_F4_V1.23.0/Drivers/BSP/STM32469I-Discovery/stm32469i_discovery.c **** 
 283:/home/paulo/Alexandria/STM32Cube_FW_F4_V1.23.0/Drivers/BSP/STM32469I-Discovery/stm32469i_discovery.c **** /**
 284:/home/paulo/Alexandria/STM32Cube_FW_F4_V1.23.0/Drivers/BSP/STM32469I-Discovery/stm32469i_discovery.c ****   * @brief  Toggles the selected LED.
 285:/home/paulo/Alexandria/STM32Cube_FW_F4_V1.23.0/Drivers/BSP/STM32469I-Discovery/stm32469i_discovery.c ****   * @param  Led: LED to be toggled
 286:/home/paulo/Alexandria/STM32Cube_FW_F4_V1.23.0/Drivers/BSP/STM32469I-Discovery/stm32469i_discovery.c ****   *          This parameter can be one of the following values:
 287:/home/paulo/Alexandria/STM32Cube_FW_F4_V1.23.0/Drivers/BSP/STM32469I-Discovery/stm32469i_discovery.c ****   *            @arg  LED1
 288:/home/paulo/Alexandria/STM32Cube_FW_F4_V1.23.0/Drivers/BSP/STM32469I-Discovery/stm32469i_discovery.c ****   *            @arg  LED2
 289:/home/paulo/Alexandria/STM32Cube_FW_F4_V1.23.0/Drivers/BSP/STM32469I-Discovery/stm32469i_discovery.c ****   *            @arg  LED3
 290:/home/paulo/Alexandria/STM32Cube_FW_F4_V1.23.0/Drivers/BSP/STM32469I-Discovery/stm32469i_discovery.c ****   *            @arg  LED4
 291:/home/paulo/Alexandria/STM32Cube_FW_F4_V1.23.0/Drivers/BSP/STM32469I-Discovery/stm32469i_discovery.c ****   */
 292:/home/paulo/Alexandria/STM32Cube_FW_F4_V1.23.0/Drivers/BSP/STM32469I-Discovery/stm32469i_discovery.c **** void BSP_LED_Toggle(Led_TypeDef Led)
 293:/home/paulo/Alexandria/STM32Cube_FW_F4_V1.23.0/Drivers/BSP/STM32469I-Discovery/stm32469i_discovery.c **** {
 294:/home/paulo/Alexandria/STM32Cube_FW_F4_V1.23.0/Drivers/BSP/STM32469I-Discovery/stm32469i_discovery.c ****   if (Led <= LED4)
 295:/home/paulo/Alexandria/STM32Cube_FW_F4_V1.23.0/Drivers/BSP/STM32469I-Discovery/stm32469i_discovery.c ****   {
 296:/home/paulo/Alexandria/STM32Cube_FW_F4_V1.23.0/Drivers/BSP/STM32469I-Discovery/stm32469i_discovery.c ****      HAL_GPIO_TogglePin(GPIO_PORT[Led], GPIO_PIN[Led]);
 297:/home/paulo/Alexandria/STM32Cube_FW_F4_V1.23.0/Drivers/BSP/STM32469I-Discovery/stm32469i_discovery.c ****   }
 298:/home/paulo/Alexandria/STM32Cube_FW_F4_V1.23.0/Drivers/BSP/STM32469I-Discovery/stm32469i_discovery.c **** }
 299:/home/paulo/Alexandria/STM32Cube_FW_F4_V1.23.0/Drivers/BSP/STM32469I-Discovery/stm32469i_discovery.c **** 
 300:/home/paulo/Alexandria/STM32Cube_FW_F4_V1.23.0/Drivers/BSP/STM32469I-Discovery/stm32469i_discovery.c **** /**
 301:/home/paulo/Alexandria/STM32Cube_FW_F4_V1.23.0/Drivers/BSP/STM32469I-Discovery/stm32469i_discovery.c ****   * @brief  Configures button GPIO and EXTI Line.
 302:/home/paulo/Alexandria/STM32Cube_FW_F4_V1.23.0/Drivers/BSP/STM32469I-Discovery/stm32469i_discovery.c ****   * @param  Button: Button to be configured
 303:/home/paulo/Alexandria/STM32Cube_FW_F4_V1.23.0/Drivers/BSP/STM32469I-Discovery/stm32469i_discovery.c ****   *          This parameter can be one of the following values:
 304:/home/paulo/Alexandria/STM32Cube_FW_F4_V1.23.0/Drivers/BSP/STM32469I-Discovery/stm32469i_discovery.c ****   *            @arg  BUTTON_WAKEUP: Wakeup Push Button
 305:/home/paulo/Alexandria/STM32Cube_FW_F4_V1.23.0/Drivers/BSP/STM32469I-Discovery/stm32469i_discovery.c ****   *            @arg  BUTTON_USER: User Push Button
 306:/home/paulo/Alexandria/STM32Cube_FW_F4_V1.23.0/Drivers/BSP/STM32469I-Discovery/stm32469i_discovery.c ****   * @param  Button_Mode: Button mode
 307:/home/paulo/Alexandria/STM32Cube_FW_F4_V1.23.0/Drivers/BSP/STM32469I-Discovery/stm32469i_discovery.c ****   *          This parameter can be one of the following values:
 308:/home/paulo/Alexandria/STM32Cube_FW_F4_V1.23.0/Drivers/BSP/STM32469I-Discovery/stm32469i_discovery.c ****   *            @arg  BUTTON_MODE_GPIO: Button will be used as simple IO
 309:/home/paulo/Alexandria/STM32Cube_FW_F4_V1.23.0/Drivers/BSP/STM32469I-Discovery/stm32469i_discovery.c ****   *            @arg  BUTTON_MODE_EXTI: Button will be connected to EXTI line
 310:/home/paulo/Alexandria/STM32Cube_FW_F4_V1.23.0/Drivers/BSP/STM32469I-Discovery/stm32469i_discovery.c ****   *                                    with interrupt generation capability
 311:/home/paulo/Alexandria/STM32Cube_FW_F4_V1.23.0/Drivers/BSP/STM32469I-Discovery/stm32469i_discovery.c ****   */
 312:/home/paulo/Alexandria/STM32Cube_FW_F4_V1.23.0/Drivers/BSP/STM32469I-Discovery/stm32469i_discovery.c **** void BSP_PB_Init(Button_TypeDef Button, ButtonMode_TypeDef Button_Mode)
 313:/home/paulo/Alexandria/STM32Cube_FW_F4_V1.23.0/Drivers/BSP/STM32469I-Discovery/stm32469i_discovery.c **** {
 314:/home/paulo/Alexandria/STM32Cube_FW_F4_V1.23.0/Drivers/BSP/STM32469I-Discovery/stm32469i_discovery.c ****   GPIO_InitTypeDef gpio_init_structure;
 315:/home/paulo/Alexandria/STM32Cube_FW_F4_V1.23.0/Drivers/BSP/STM32469I-Discovery/stm32469i_discovery.c **** 
 316:/home/paulo/Alexandria/STM32Cube_FW_F4_V1.23.0/Drivers/BSP/STM32469I-Discovery/stm32469i_discovery.c ****   /* Enable the BUTTON clock */
ARM GAS  /tmp/cc7YGL8m.s 			page 7


 317:/home/paulo/Alexandria/STM32Cube_FW_F4_V1.23.0/Drivers/BSP/STM32469I-Discovery/stm32469i_discovery.c ****   BUTTON_GPIO_CLK_ENABLE();
 318:/home/paulo/Alexandria/STM32Cube_FW_F4_V1.23.0/Drivers/BSP/STM32469I-Discovery/stm32469i_discovery.c **** 
 319:/home/paulo/Alexandria/STM32Cube_FW_F4_V1.23.0/Drivers/BSP/STM32469I-Discovery/stm32469i_discovery.c ****   if(Button_Mode == BUTTON_MODE_GPIO)
 320:/home/paulo/Alexandria/STM32Cube_FW_F4_V1.23.0/Drivers/BSP/STM32469I-Discovery/stm32469i_discovery.c ****   {
 321:/home/paulo/Alexandria/STM32Cube_FW_F4_V1.23.0/Drivers/BSP/STM32469I-Discovery/stm32469i_discovery.c ****     /* Configure Button pin as input */
 322:/home/paulo/Alexandria/STM32Cube_FW_F4_V1.23.0/Drivers/BSP/STM32469I-Discovery/stm32469i_discovery.c ****     gpio_init_structure.Pin = BUTTON_PIN[Button];
 323:/home/paulo/Alexandria/STM32Cube_FW_F4_V1.23.0/Drivers/BSP/STM32469I-Discovery/stm32469i_discovery.c ****     gpio_init_structure.Mode = GPIO_MODE_INPUT;
 324:/home/paulo/Alexandria/STM32Cube_FW_F4_V1.23.0/Drivers/BSP/STM32469I-Discovery/stm32469i_discovery.c ****     gpio_init_structure.Pull = GPIO_NOPULL;
 325:/home/paulo/Alexandria/STM32Cube_FW_F4_V1.23.0/Drivers/BSP/STM32469I-Discovery/stm32469i_discovery.c ****     gpio_init_structure.Speed = GPIO_SPEED_FAST;
 326:/home/paulo/Alexandria/STM32Cube_FW_F4_V1.23.0/Drivers/BSP/STM32469I-Discovery/stm32469i_discovery.c ****     HAL_GPIO_Init(BUTTON_PORT[Button], &gpio_init_structure);
 327:/home/paulo/Alexandria/STM32Cube_FW_F4_V1.23.0/Drivers/BSP/STM32469I-Discovery/stm32469i_discovery.c ****   }
 328:/home/paulo/Alexandria/STM32Cube_FW_F4_V1.23.0/Drivers/BSP/STM32469I-Discovery/stm32469i_discovery.c **** 
 329:/home/paulo/Alexandria/STM32Cube_FW_F4_V1.23.0/Drivers/BSP/STM32469I-Discovery/stm32469i_discovery.c ****   if(Button_Mode == BUTTON_MODE_EXTI)
 330:/home/paulo/Alexandria/STM32Cube_FW_F4_V1.23.0/Drivers/BSP/STM32469I-Discovery/stm32469i_discovery.c ****   {
 331:/home/paulo/Alexandria/STM32Cube_FW_F4_V1.23.0/Drivers/BSP/STM32469I-Discovery/stm32469i_discovery.c ****     /* Configure Button pin as input with External interrupt */
 332:/home/paulo/Alexandria/STM32Cube_FW_F4_V1.23.0/Drivers/BSP/STM32469I-Discovery/stm32469i_discovery.c ****     gpio_init_structure.Pin = BUTTON_PIN[Button];
 333:/home/paulo/Alexandria/STM32Cube_FW_F4_V1.23.0/Drivers/BSP/STM32469I-Discovery/stm32469i_discovery.c ****     gpio_init_structure.Pull = GPIO_NOPULL;
 334:/home/paulo/Alexandria/STM32Cube_FW_F4_V1.23.0/Drivers/BSP/STM32469I-Discovery/stm32469i_discovery.c ****     gpio_init_structure.Speed = GPIO_SPEED_FAST;
 335:/home/paulo/Alexandria/STM32Cube_FW_F4_V1.23.0/Drivers/BSP/STM32469I-Discovery/stm32469i_discovery.c **** 
 336:/home/paulo/Alexandria/STM32Cube_FW_F4_V1.23.0/Drivers/BSP/STM32469I-Discovery/stm32469i_discovery.c ****     gpio_init_structure.Mode = GPIO_MODE_IT_RISING;
 337:/home/paulo/Alexandria/STM32Cube_FW_F4_V1.23.0/Drivers/BSP/STM32469I-Discovery/stm32469i_discovery.c **** 
 338:/home/paulo/Alexandria/STM32Cube_FW_F4_V1.23.0/Drivers/BSP/STM32469I-Discovery/stm32469i_discovery.c ****     HAL_GPIO_Init(BUTTON_PORT[Button], &gpio_init_structure);
 339:/home/paulo/Alexandria/STM32Cube_FW_F4_V1.23.0/Drivers/BSP/STM32469I-Discovery/stm32469i_discovery.c **** 
 340:/home/paulo/Alexandria/STM32Cube_FW_F4_V1.23.0/Drivers/BSP/STM32469I-Discovery/stm32469i_discovery.c ****     /* Enable and set Button EXTI Interrupt to the lowest priority */
 341:/home/paulo/Alexandria/STM32Cube_FW_F4_V1.23.0/Drivers/BSP/STM32469I-Discovery/stm32469i_discovery.c ****     HAL_NVIC_SetPriority((IRQn_Type)(BUTTON_IRQn[Button]), 0x0F, 0x00);
 342:/home/paulo/Alexandria/STM32Cube_FW_F4_V1.23.0/Drivers/BSP/STM32469I-Discovery/stm32469i_discovery.c ****     HAL_NVIC_EnableIRQ((IRQn_Type)(BUTTON_IRQn[Button]));
 343:/home/paulo/Alexandria/STM32Cube_FW_F4_V1.23.0/Drivers/BSP/STM32469I-Discovery/stm32469i_discovery.c ****   }
 344:/home/paulo/Alexandria/STM32Cube_FW_F4_V1.23.0/Drivers/BSP/STM32469I-Discovery/stm32469i_discovery.c **** }
 345:/home/paulo/Alexandria/STM32Cube_FW_F4_V1.23.0/Drivers/BSP/STM32469I-Discovery/stm32469i_discovery.c **** 
 346:/home/paulo/Alexandria/STM32Cube_FW_F4_V1.23.0/Drivers/BSP/STM32469I-Discovery/stm32469i_discovery.c **** /**
 347:/home/paulo/Alexandria/STM32Cube_FW_F4_V1.23.0/Drivers/BSP/STM32469I-Discovery/stm32469i_discovery.c ****   * @brief  Push Button DeInit.
 348:/home/paulo/Alexandria/STM32Cube_FW_F4_V1.23.0/Drivers/BSP/STM32469I-Discovery/stm32469i_discovery.c ****   * @param  Button: Button to be configured
 349:/home/paulo/Alexandria/STM32Cube_FW_F4_V1.23.0/Drivers/BSP/STM32469I-Discovery/stm32469i_discovery.c ****   *          This parameter can be one of the following values:
 350:/home/paulo/Alexandria/STM32Cube_FW_F4_V1.23.0/Drivers/BSP/STM32469I-Discovery/stm32469i_discovery.c ****   *            @arg  BUTTON_WAKEUP: Wakeup Push Button
 351:/home/paulo/Alexandria/STM32Cube_FW_F4_V1.23.0/Drivers/BSP/STM32469I-Discovery/stm32469i_discovery.c ****   *            @arg  BUTTON_USER: User Push Button
 352:/home/paulo/Alexandria/STM32Cube_FW_F4_V1.23.0/Drivers/BSP/STM32469I-Discovery/stm32469i_discovery.c ****   * @note PB DeInit does not disable the GPIO clock
 353:/home/paulo/Alexandria/STM32Cube_FW_F4_V1.23.0/Drivers/BSP/STM32469I-Discovery/stm32469i_discovery.c ****   */
 354:/home/paulo/Alexandria/STM32Cube_FW_F4_V1.23.0/Drivers/BSP/STM32469I-Discovery/stm32469i_discovery.c **** void BSP_PB_DeInit(Button_TypeDef Button)
 355:/home/paulo/Alexandria/STM32Cube_FW_F4_V1.23.0/Drivers/BSP/STM32469I-Discovery/stm32469i_discovery.c **** {
 356:/home/paulo/Alexandria/STM32Cube_FW_F4_V1.23.0/Drivers/BSP/STM32469I-Discovery/stm32469i_discovery.c ****     GPIO_InitTypeDef gpio_init_structure;
 357:/home/paulo/Alexandria/STM32Cube_FW_F4_V1.23.0/Drivers/BSP/STM32469I-Discovery/stm32469i_discovery.c **** 
 358:/home/paulo/Alexandria/STM32Cube_FW_F4_V1.23.0/Drivers/BSP/STM32469I-Discovery/stm32469i_discovery.c ****     gpio_init_structure.Pin = BUTTON_PIN[Button];
 359:/home/paulo/Alexandria/STM32Cube_FW_F4_V1.23.0/Drivers/BSP/STM32469I-Discovery/stm32469i_discovery.c ****     HAL_NVIC_DisableIRQ((IRQn_Type)(BUTTON_IRQn[Button]));
 360:/home/paulo/Alexandria/STM32Cube_FW_F4_V1.23.0/Drivers/BSP/STM32469I-Discovery/stm32469i_discovery.c ****     HAL_GPIO_DeInit(BUTTON_PORT[Button], gpio_init_structure.Pin);
 361:/home/paulo/Alexandria/STM32Cube_FW_F4_V1.23.0/Drivers/BSP/STM32469I-Discovery/stm32469i_discovery.c **** }
 362:/home/paulo/Alexandria/STM32Cube_FW_F4_V1.23.0/Drivers/BSP/STM32469I-Discovery/stm32469i_discovery.c **** 
 363:/home/paulo/Alexandria/STM32Cube_FW_F4_V1.23.0/Drivers/BSP/STM32469I-Discovery/stm32469i_discovery.c **** 
 364:/home/paulo/Alexandria/STM32Cube_FW_F4_V1.23.0/Drivers/BSP/STM32469I-Discovery/stm32469i_discovery.c **** /**
 365:/home/paulo/Alexandria/STM32Cube_FW_F4_V1.23.0/Drivers/BSP/STM32469I-Discovery/stm32469i_discovery.c ****   * @brief  Returns the selected button state.
 366:/home/paulo/Alexandria/STM32Cube_FW_F4_V1.23.0/Drivers/BSP/STM32469I-Discovery/stm32469i_discovery.c ****   * @param  Button: Button to be checked
 367:/home/paulo/Alexandria/STM32Cube_FW_F4_V1.23.0/Drivers/BSP/STM32469I-Discovery/stm32469i_discovery.c ****   *          This parameter can be one of the following values:
 368:/home/paulo/Alexandria/STM32Cube_FW_F4_V1.23.0/Drivers/BSP/STM32469I-Discovery/stm32469i_discovery.c ****   *            @arg  BUTTON_WAKEUP: Wakeup Push Button
 369:/home/paulo/Alexandria/STM32Cube_FW_F4_V1.23.0/Drivers/BSP/STM32469I-Discovery/stm32469i_discovery.c ****   *            @arg  BUTTON_USER: User Push Button
 370:/home/paulo/Alexandria/STM32Cube_FW_F4_V1.23.0/Drivers/BSP/STM32469I-Discovery/stm32469i_discovery.c ****   * @retval The Button GPIO pin value
 371:/home/paulo/Alexandria/STM32Cube_FW_F4_V1.23.0/Drivers/BSP/STM32469I-Discovery/stm32469i_discovery.c ****   */
 372:/home/paulo/Alexandria/STM32Cube_FW_F4_V1.23.0/Drivers/BSP/STM32469I-Discovery/stm32469i_discovery.c **** uint32_t BSP_PB_GetState(Button_TypeDef Button)
 373:/home/paulo/Alexandria/STM32Cube_FW_F4_V1.23.0/Drivers/BSP/STM32469I-Discovery/stm32469i_discovery.c **** {
ARM GAS  /tmp/cc7YGL8m.s 			page 8


 374:/home/paulo/Alexandria/STM32Cube_FW_F4_V1.23.0/Drivers/BSP/STM32469I-Discovery/stm32469i_discovery.c ****   return HAL_GPIO_ReadPin(BUTTON_PORT[Button], BUTTON_PIN[Button]);
 375:/home/paulo/Alexandria/STM32Cube_FW_F4_V1.23.0/Drivers/BSP/STM32469I-Discovery/stm32469i_discovery.c **** }
 376:/home/paulo/Alexandria/STM32Cube_FW_F4_V1.23.0/Drivers/BSP/STM32469I-Discovery/stm32469i_discovery.c **** 
 377:/home/paulo/Alexandria/STM32Cube_FW_F4_V1.23.0/Drivers/BSP/STM32469I-Discovery/stm32469i_discovery.c **** /**
 378:/home/paulo/Alexandria/STM32Cube_FW_F4_V1.23.0/Drivers/BSP/STM32469I-Discovery/stm32469i_discovery.c ****   * @}
 379:/home/paulo/Alexandria/STM32Cube_FW_F4_V1.23.0/Drivers/BSP/STM32469I-Discovery/stm32469i_discovery.c ****   */
 380:/home/paulo/Alexandria/STM32Cube_FW_F4_V1.23.0/Drivers/BSP/STM32469I-Discovery/stm32469i_discovery.c **** 
 381:/home/paulo/Alexandria/STM32Cube_FW_F4_V1.23.0/Drivers/BSP/STM32469I-Discovery/stm32469i_discovery.c **** /** @defgroup STM32469I_Discovery_LOW_LEVEL_Private_Functions STM32469I Discovery LOW LEVEL Private
 382:/home/paulo/Alexandria/STM32Cube_FW_F4_V1.23.0/Drivers/BSP/STM32469I-Discovery/stm32469i_discovery.c ****   * @{
 383:/home/paulo/Alexandria/STM32Cube_FW_F4_V1.23.0/Drivers/BSP/STM32469I-Discovery/stm32469i_discovery.c ****   */
 384:/home/paulo/Alexandria/STM32Cube_FW_F4_V1.23.0/Drivers/BSP/STM32469I-Discovery/stm32469i_discovery.c **** 
 385:/home/paulo/Alexandria/STM32Cube_FW_F4_V1.23.0/Drivers/BSP/STM32469I-Discovery/stm32469i_discovery.c **** 
 386:/home/paulo/Alexandria/STM32Cube_FW_F4_V1.23.0/Drivers/BSP/STM32469I-Discovery/stm32469i_discovery.c **** /*******************************************************************************
 387:/home/paulo/Alexandria/STM32Cube_FW_F4_V1.23.0/Drivers/BSP/STM32469I-Discovery/stm32469i_discovery.c ****                             BUS OPERATIONS
 388:/home/paulo/Alexandria/STM32Cube_FW_F4_V1.23.0/Drivers/BSP/STM32469I-Discovery/stm32469i_discovery.c **** *******************************************************************************/
 389:/home/paulo/Alexandria/STM32Cube_FW_F4_V1.23.0/Drivers/BSP/STM32469I-Discovery/stm32469i_discovery.c **** 
 390:/home/paulo/Alexandria/STM32Cube_FW_F4_V1.23.0/Drivers/BSP/STM32469I-Discovery/stm32469i_discovery.c **** /******************************* I2C Routines *********************************/
 391:/home/paulo/Alexandria/STM32Cube_FW_F4_V1.23.0/Drivers/BSP/STM32469I-Discovery/stm32469i_discovery.c **** /**
 392:/home/paulo/Alexandria/STM32Cube_FW_F4_V1.23.0/Drivers/BSP/STM32469I-Discovery/stm32469i_discovery.c ****   * @brief  Initializes I2C MSP.
 393:/home/paulo/Alexandria/STM32Cube_FW_F4_V1.23.0/Drivers/BSP/STM32469I-Discovery/stm32469i_discovery.c ****   */
 394:/home/paulo/Alexandria/STM32Cube_FW_F4_V1.23.0/Drivers/BSP/STM32469I-Discovery/stm32469i_discovery.c **** static void I2C1_MspInit(void)
 395:/home/paulo/Alexandria/STM32Cube_FW_F4_V1.23.0/Drivers/BSP/STM32469I-Discovery/stm32469i_discovery.c **** {
 396:/home/paulo/Alexandria/STM32Cube_FW_F4_V1.23.0/Drivers/BSP/STM32469I-Discovery/stm32469i_discovery.c ****   GPIO_InitTypeDef  gpio_init_structure;
 397:/home/paulo/Alexandria/STM32Cube_FW_F4_V1.23.0/Drivers/BSP/STM32469I-Discovery/stm32469i_discovery.c **** 
 398:/home/paulo/Alexandria/STM32Cube_FW_F4_V1.23.0/Drivers/BSP/STM32469I-Discovery/stm32469i_discovery.c ****   /*** Configure the GPIOs ***/
 399:/home/paulo/Alexandria/STM32Cube_FW_F4_V1.23.0/Drivers/BSP/STM32469I-Discovery/stm32469i_discovery.c ****   /* Enable GPIO clock */
 400:/home/paulo/Alexandria/STM32Cube_FW_F4_V1.23.0/Drivers/BSP/STM32469I-Discovery/stm32469i_discovery.c ****   DISCO_I2C1_SCL_SDA_GPIO_CLK_ENABLE();
 401:/home/paulo/Alexandria/STM32Cube_FW_F4_V1.23.0/Drivers/BSP/STM32469I-Discovery/stm32469i_discovery.c **** 
 402:/home/paulo/Alexandria/STM32Cube_FW_F4_V1.23.0/Drivers/BSP/STM32469I-Discovery/stm32469i_discovery.c ****   /* Configure I2C Tx as alternate function */
 403:/home/paulo/Alexandria/STM32Cube_FW_F4_V1.23.0/Drivers/BSP/STM32469I-Discovery/stm32469i_discovery.c ****   gpio_init_structure.Pin = DISCO_I2C1_SCL_PIN;
 404:/home/paulo/Alexandria/STM32Cube_FW_F4_V1.23.0/Drivers/BSP/STM32469I-Discovery/stm32469i_discovery.c ****   gpio_init_structure.Mode = GPIO_MODE_AF_OD;
 405:/home/paulo/Alexandria/STM32Cube_FW_F4_V1.23.0/Drivers/BSP/STM32469I-Discovery/stm32469i_discovery.c ****   gpio_init_structure.Pull = GPIO_NOPULL;
 406:/home/paulo/Alexandria/STM32Cube_FW_F4_V1.23.0/Drivers/BSP/STM32469I-Discovery/stm32469i_discovery.c ****   gpio_init_structure.Speed = GPIO_SPEED_FAST;
 407:/home/paulo/Alexandria/STM32Cube_FW_F4_V1.23.0/Drivers/BSP/STM32469I-Discovery/stm32469i_discovery.c ****   gpio_init_structure.Alternate = DISCO_I2C1_SCL_SDA_AF;
 408:/home/paulo/Alexandria/STM32Cube_FW_F4_V1.23.0/Drivers/BSP/STM32469I-Discovery/stm32469i_discovery.c ****   HAL_GPIO_Init(DISCO_I2C1_SCL_SDA_GPIO_PORT, &gpio_init_structure);
 409:/home/paulo/Alexandria/STM32Cube_FW_F4_V1.23.0/Drivers/BSP/STM32469I-Discovery/stm32469i_discovery.c **** 
 410:/home/paulo/Alexandria/STM32Cube_FW_F4_V1.23.0/Drivers/BSP/STM32469I-Discovery/stm32469i_discovery.c ****   /* Configure I2C Rx as alternate function */
 411:/home/paulo/Alexandria/STM32Cube_FW_F4_V1.23.0/Drivers/BSP/STM32469I-Discovery/stm32469i_discovery.c ****   gpio_init_structure.Pin = DISCO_I2C1_SDA_PIN;
 412:/home/paulo/Alexandria/STM32Cube_FW_F4_V1.23.0/Drivers/BSP/STM32469I-Discovery/stm32469i_discovery.c ****   HAL_GPIO_Init(DISCO_I2C1_SCL_SDA_GPIO_PORT, &gpio_init_structure);
 413:/home/paulo/Alexandria/STM32Cube_FW_F4_V1.23.0/Drivers/BSP/STM32469I-Discovery/stm32469i_discovery.c **** 
 414:/home/paulo/Alexandria/STM32Cube_FW_F4_V1.23.0/Drivers/BSP/STM32469I-Discovery/stm32469i_discovery.c ****   /*** Configure the I2C peripheral ***/
 415:/home/paulo/Alexandria/STM32Cube_FW_F4_V1.23.0/Drivers/BSP/STM32469I-Discovery/stm32469i_discovery.c ****   /* Enable I2C clock */
 416:/home/paulo/Alexandria/STM32Cube_FW_F4_V1.23.0/Drivers/BSP/STM32469I-Discovery/stm32469i_discovery.c ****   DISCO_I2C1_CLK_ENABLE();
 417:/home/paulo/Alexandria/STM32Cube_FW_F4_V1.23.0/Drivers/BSP/STM32469I-Discovery/stm32469i_discovery.c **** 
 418:/home/paulo/Alexandria/STM32Cube_FW_F4_V1.23.0/Drivers/BSP/STM32469I-Discovery/stm32469i_discovery.c ****   /* Force the I2C peripheral clock reset */
 419:/home/paulo/Alexandria/STM32Cube_FW_F4_V1.23.0/Drivers/BSP/STM32469I-Discovery/stm32469i_discovery.c ****   DISCO_I2C1_FORCE_RESET();
 420:/home/paulo/Alexandria/STM32Cube_FW_F4_V1.23.0/Drivers/BSP/STM32469I-Discovery/stm32469i_discovery.c **** 
 421:/home/paulo/Alexandria/STM32Cube_FW_F4_V1.23.0/Drivers/BSP/STM32469I-Discovery/stm32469i_discovery.c ****   /* Release the I2C peripheral clock reset */
 422:/home/paulo/Alexandria/STM32Cube_FW_F4_V1.23.0/Drivers/BSP/STM32469I-Discovery/stm32469i_discovery.c ****   DISCO_I2C1_RELEASE_RESET();
 423:/home/paulo/Alexandria/STM32Cube_FW_F4_V1.23.0/Drivers/BSP/STM32469I-Discovery/stm32469i_discovery.c **** 
 424:/home/paulo/Alexandria/STM32Cube_FW_F4_V1.23.0/Drivers/BSP/STM32469I-Discovery/stm32469i_discovery.c ****   /* Enable and set I2C1 Interrupt to a lower priority */
 425:/home/paulo/Alexandria/STM32Cube_FW_F4_V1.23.0/Drivers/BSP/STM32469I-Discovery/stm32469i_discovery.c ****   HAL_NVIC_SetPriority(DISCO_I2C1_EV_IRQn, 0x05, 0);
 426:/home/paulo/Alexandria/STM32Cube_FW_F4_V1.23.0/Drivers/BSP/STM32469I-Discovery/stm32469i_discovery.c ****   HAL_NVIC_EnableIRQ(DISCO_I2C1_EV_IRQn);
 427:/home/paulo/Alexandria/STM32Cube_FW_F4_V1.23.0/Drivers/BSP/STM32469I-Discovery/stm32469i_discovery.c **** 
 428:/home/paulo/Alexandria/STM32Cube_FW_F4_V1.23.0/Drivers/BSP/STM32469I-Discovery/stm32469i_discovery.c ****   /* Enable and set I2C1 Interrupt to a lower priority */
 429:/home/paulo/Alexandria/STM32Cube_FW_F4_V1.23.0/Drivers/BSP/STM32469I-Discovery/stm32469i_discovery.c ****   HAL_NVIC_SetPriority(DISCO_I2C1_ER_IRQn, 0x05, 0);
 430:/home/paulo/Alexandria/STM32Cube_FW_F4_V1.23.0/Drivers/BSP/STM32469I-Discovery/stm32469i_discovery.c ****   HAL_NVIC_EnableIRQ(DISCO_I2C1_ER_IRQn);
ARM GAS  /tmp/cc7YGL8m.s 			page 9


 431:/home/paulo/Alexandria/STM32Cube_FW_F4_V1.23.0/Drivers/BSP/STM32469I-Discovery/stm32469i_discovery.c **** }
 432:/home/paulo/Alexandria/STM32Cube_FW_F4_V1.23.0/Drivers/BSP/STM32469I-Discovery/stm32469i_discovery.c **** 
 433:/home/paulo/Alexandria/STM32Cube_FW_F4_V1.23.0/Drivers/BSP/STM32469I-Discovery/stm32469i_discovery.c **** /**
 434:/home/paulo/Alexandria/STM32Cube_FW_F4_V1.23.0/Drivers/BSP/STM32469I-Discovery/stm32469i_discovery.c ****   * @brief  Initializes I2C MSP.
 435:/home/paulo/Alexandria/STM32Cube_FW_F4_V1.23.0/Drivers/BSP/STM32469I-Discovery/stm32469i_discovery.c ****   */
 436:/home/paulo/Alexandria/STM32Cube_FW_F4_V1.23.0/Drivers/BSP/STM32469I-Discovery/stm32469i_discovery.c **** static void I2C2_MspInit(void)
 437:/home/paulo/Alexandria/STM32Cube_FW_F4_V1.23.0/Drivers/BSP/STM32469I-Discovery/stm32469i_discovery.c **** {
  28              		.loc 1 437 1 view -0
  29              		.cfi_startproc
  30              		@ args = 0, pretend = 0, frame = 32
  31              		@ frame_needed = 0, uses_anonymous_args = 0
  32 0000 70B5     		push	{r4, r5, r6, lr}
  33              	.LCFI0:
  34              		.cfi_def_cfa_offset 16
  35              		.cfi_offset 4, -16
  36              		.cfi_offset 5, -12
  37              		.cfi_offset 6, -8
  38              		.cfi_offset 14, -4
  39 0002 88B0     		sub	sp, sp, #32
  40              	.LCFI1:
  41              		.cfi_def_cfa_offset 48
 438:/home/paulo/Alexandria/STM32Cube_FW_F4_V1.23.0/Drivers/BSP/STM32469I-Discovery/stm32469i_discovery.c ****   GPIO_InitTypeDef  gpio_init_structure;
  42              		.loc 1 438 3 view .LVU1
 439:/home/paulo/Alexandria/STM32Cube_FW_F4_V1.23.0/Drivers/BSP/STM32469I-Discovery/stm32469i_discovery.c **** 
 440:/home/paulo/Alexandria/STM32Cube_FW_F4_V1.23.0/Drivers/BSP/STM32469I-Discovery/stm32469i_discovery.c ****   /*** Configure the GPIOs ***/
 441:/home/paulo/Alexandria/STM32Cube_FW_F4_V1.23.0/Drivers/BSP/STM32469I-Discovery/stm32469i_discovery.c ****   /* Enable GPIO clock */
 442:/home/paulo/Alexandria/STM32Cube_FW_F4_V1.23.0/Drivers/BSP/STM32469I-Discovery/stm32469i_discovery.c ****   DISCO_I2C2_SCL_SDA_GPIO_CLK_ENABLE();
  43              		.loc 1 442 3 view .LVU2
  44              	.LBB2:
  45              		.loc 1 442 3 view .LVU3
  46 0004 0025     		movs	r5, #0
  47 0006 0195     		str	r5, [sp, #4]
  48              		.loc 1 442 3 view .LVU4
  49 0008 204C     		ldr	r4, .L3
  50 000a 236B     		ldr	r3, [r4, #48]
  51 000c 43F08003 		orr	r3, r3, #128
  52 0010 2363     		str	r3, [r4, #48]
  53              		.loc 1 442 3 view .LVU5
  54 0012 236B     		ldr	r3, [r4, #48]
  55 0014 03F08003 		and	r3, r3, #128
  56 0018 0193     		str	r3, [sp, #4]
  57              		.loc 1 442 3 view .LVU6
  58 001a 019B     		ldr	r3, [sp, #4]
  59              	.LBE2:
 443:/home/paulo/Alexandria/STM32Cube_FW_F4_V1.23.0/Drivers/BSP/STM32469I-Discovery/stm32469i_discovery.c **** 
 444:/home/paulo/Alexandria/STM32Cube_FW_F4_V1.23.0/Drivers/BSP/STM32469I-Discovery/stm32469i_discovery.c ****   /* Configure I2C Tx as alternate function */
 445:/home/paulo/Alexandria/STM32Cube_FW_F4_V1.23.0/Drivers/BSP/STM32469I-Discovery/stm32469i_discovery.c ****   gpio_init_structure.Pin = DISCO_I2C2_SCL_PIN;
  60              		.loc 1 445 3 view .LVU7
  61              		.loc 1 445 27 is_stmt 0 view .LVU8
  62 001c 1023     		movs	r3, #16
  63 001e 0393     		str	r3, [sp, #12]
 446:/home/paulo/Alexandria/STM32Cube_FW_F4_V1.23.0/Drivers/BSP/STM32469I-Discovery/stm32469i_discovery.c ****   gpio_init_structure.Mode = GPIO_MODE_AF_OD;
  64              		.loc 1 446 3 is_stmt 1 view .LVU9
  65              		.loc 1 446 28 is_stmt 0 view .LVU10
  66 0020 1223     		movs	r3, #18
  67 0022 0493     		str	r3, [sp, #16]
 447:/home/paulo/Alexandria/STM32Cube_FW_F4_V1.23.0/Drivers/BSP/STM32469I-Discovery/stm32469i_discovery.c ****   gpio_init_structure.Pull = GPIO_NOPULL;
ARM GAS  /tmp/cc7YGL8m.s 			page 10


  68              		.loc 1 447 3 is_stmt 1 view .LVU11
  69              		.loc 1 447 28 is_stmt 0 view .LVU12
  70 0024 0595     		str	r5, [sp, #20]
 448:/home/paulo/Alexandria/STM32Cube_FW_F4_V1.23.0/Drivers/BSP/STM32469I-Discovery/stm32469i_discovery.c ****   gpio_init_structure.Speed = GPIO_SPEED_FAST;
  71              		.loc 1 448 3 is_stmt 1 view .LVU13
  72              		.loc 1 448 29 is_stmt 0 view .LVU14
  73 0026 0223     		movs	r3, #2
  74 0028 0693     		str	r3, [sp, #24]
 449:/home/paulo/Alexandria/STM32Cube_FW_F4_V1.23.0/Drivers/BSP/STM32469I-Discovery/stm32469i_discovery.c ****   gpio_init_structure.Alternate = DISCO_I2C2_SCL_SDA_AF;
  75              		.loc 1 449 3 is_stmt 1 view .LVU15
  76              		.loc 1 449 33 is_stmt 0 view .LVU16
  77 002a 0423     		movs	r3, #4
  78 002c 0793     		str	r3, [sp, #28]
 450:/home/paulo/Alexandria/STM32Cube_FW_F4_V1.23.0/Drivers/BSP/STM32469I-Discovery/stm32469i_discovery.c ****   HAL_GPIO_Init(DISCO_I2C2_SCL_SDA_GPIO_PORT, &gpio_init_structure);
  79              		.loc 1 450 3 is_stmt 1 view .LVU17
  80 002e 184E     		ldr	r6, .L3+4
  81 0030 03A9     		add	r1, sp, #12
  82 0032 3046     		mov	r0, r6
  83 0034 FFF7FEFF 		bl	HAL_GPIO_Init
  84              	.LVL0:
 451:/home/paulo/Alexandria/STM32Cube_FW_F4_V1.23.0/Drivers/BSP/STM32469I-Discovery/stm32469i_discovery.c **** 
 452:/home/paulo/Alexandria/STM32Cube_FW_F4_V1.23.0/Drivers/BSP/STM32469I-Discovery/stm32469i_discovery.c ****   /* Configure I2C Rx as alternate function */
 453:/home/paulo/Alexandria/STM32Cube_FW_F4_V1.23.0/Drivers/BSP/STM32469I-Discovery/stm32469i_discovery.c ****   gpio_init_structure.Pin = DISCO_I2C2_SDA_PIN;
  85              		.loc 1 453 3 view .LVU18
  86              		.loc 1 453 27 is_stmt 0 view .LVU19
  87 0038 2023     		movs	r3, #32
  88 003a 0393     		str	r3, [sp, #12]
 454:/home/paulo/Alexandria/STM32Cube_FW_F4_V1.23.0/Drivers/BSP/STM32469I-Discovery/stm32469i_discovery.c ****   HAL_GPIO_Init(DISCO_I2C2_SCL_SDA_GPIO_PORT, &gpio_init_structure);
  89              		.loc 1 454 3 is_stmt 1 view .LVU20
  90 003c 03A9     		add	r1, sp, #12
  91 003e 3046     		mov	r0, r6
  92 0040 FFF7FEFF 		bl	HAL_GPIO_Init
  93              	.LVL1:
 455:/home/paulo/Alexandria/STM32Cube_FW_F4_V1.23.0/Drivers/BSP/STM32469I-Discovery/stm32469i_discovery.c **** 
 456:/home/paulo/Alexandria/STM32Cube_FW_F4_V1.23.0/Drivers/BSP/STM32469I-Discovery/stm32469i_discovery.c ****   /*** Configure the I2C peripheral ***/
 457:/home/paulo/Alexandria/STM32Cube_FW_F4_V1.23.0/Drivers/BSP/STM32469I-Discovery/stm32469i_discovery.c ****   /* Enable I2C clock */
 458:/home/paulo/Alexandria/STM32Cube_FW_F4_V1.23.0/Drivers/BSP/STM32469I-Discovery/stm32469i_discovery.c ****   DISCO_I2C2_CLK_ENABLE();
  94              		.loc 1 458 3 view .LVU21
  95              	.LBB3:
  96              		.loc 1 458 3 view .LVU22
  97 0044 0295     		str	r5, [sp, #8]
  98              		.loc 1 458 3 view .LVU23
  99 0046 236C     		ldr	r3, [r4, #64]
 100 0048 43F48003 		orr	r3, r3, #4194304
 101 004c 2364     		str	r3, [r4, #64]
 102              		.loc 1 458 3 view .LVU24
 103 004e 236C     		ldr	r3, [r4, #64]
 104 0050 03F48003 		and	r3, r3, #4194304
 105 0054 0293     		str	r3, [sp, #8]
 106              		.loc 1 458 3 view .LVU25
 107 0056 029B     		ldr	r3, [sp, #8]
 108              	.LBE3:
 459:/home/paulo/Alexandria/STM32Cube_FW_F4_V1.23.0/Drivers/BSP/STM32469I-Discovery/stm32469i_discovery.c **** 
 460:/home/paulo/Alexandria/STM32Cube_FW_F4_V1.23.0/Drivers/BSP/STM32469I-Discovery/stm32469i_discovery.c ****   /* Force the I2C peripheral clock reset */
 461:/home/paulo/Alexandria/STM32Cube_FW_F4_V1.23.0/Drivers/BSP/STM32469I-Discovery/stm32469i_discovery.c ****   DISCO_I2C2_FORCE_RESET();
 109              		.loc 1 461 3 view .LVU26
 110 0058 236A     		ldr	r3, [r4, #32]
ARM GAS  /tmp/cc7YGL8m.s 			page 11


 111 005a 43F48003 		orr	r3, r3, #4194304
 112 005e 2362     		str	r3, [r4, #32]
 462:/home/paulo/Alexandria/STM32Cube_FW_F4_V1.23.0/Drivers/BSP/STM32469I-Discovery/stm32469i_discovery.c **** 
 463:/home/paulo/Alexandria/STM32Cube_FW_F4_V1.23.0/Drivers/BSP/STM32469I-Discovery/stm32469i_discovery.c ****   /* Release the I2C peripheral clock reset */
 464:/home/paulo/Alexandria/STM32Cube_FW_F4_V1.23.0/Drivers/BSP/STM32469I-Discovery/stm32469i_discovery.c ****   DISCO_I2C2_RELEASE_RESET();
 113              		.loc 1 464 3 view .LVU27
 114 0060 236A     		ldr	r3, [r4, #32]
 115 0062 23F48003 		bic	r3, r3, #4194304
 116 0066 2362     		str	r3, [r4, #32]
 465:/home/paulo/Alexandria/STM32Cube_FW_F4_V1.23.0/Drivers/BSP/STM32469I-Discovery/stm32469i_discovery.c **** 
 466:/home/paulo/Alexandria/STM32Cube_FW_F4_V1.23.0/Drivers/BSP/STM32469I-Discovery/stm32469i_discovery.c ****   /* Enable and set I2C1 Interrupt to a lower priority */
 467:/home/paulo/Alexandria/STM32Cube_FW_F4_V1.23.0/Drivers/BSP/STM32469I-Discovery/stm32469i_discovery.c ****   HAL_NVIC_SetPriority(DISCO_I2C2_EV_IRQn, 0x05, 0);
 117              		.loc 1 467 3 view .LVU28
 118 0068 2A46     		mov	r2, r5
 119 006a 0521     		movs	r1, #5
 120 006c 2120     		movs	r0, #33
 121 006e FFF7FEFF 		bl	HAL_NVIC_SetPriority
 122              	.LVL2:
 468:/home/paulo/Alexandria/STM32Cube_FW_F4_V1.23.0/Drivers/BSP/STM32469I-Discovery/stm32469i_discovery.c ****   HAL_NVIC_EnableIRQ(DISCO_I2C2_EV_IRQn);
 123              		.loc 1 468 3 view .LVU29
 124 0072 2120     		movs	r0, #33
 125 0074 FFF7FEFF 		bl	HAL_NVIC_EnableIRQ
 126              	.LVL3:
 469:/home/paulo/Alexandria/STM32Cube_FW_F4_V1.23.0/Drivers/BSP/STM32469I-Discovery/stm32469i_discovery.c **** 
 470:/home/paulo/Alexandria/STM32Cube_FW_F4_V1.23.0/Drivers/BSP/STM32469I-Discovery/stm32469i_discovery.c ****   /* Enable and set I2C1 Interrupt to a lower priority */
 471:/home/paulo/Alexandria/STM32Cube_FW_F4_V1.23.0/Drivers/BSP/STM32469I-Discovery/stm32469i_discovery.c ****   HAL_NVIC_SetPriority(DISCO_I2C2_ER_IRQn, 0x05, 0);
 127              		.loc 1 471 3 view .LVU30
 128 0078 2A46     		mov	r2, r5
 129 007a 0521     		movs	r1, #5
 130 007c 2220     		movs	r0, #34
 131 007e FFF7FEFF 		bl	HAL_NVIC_SetPriority
 132              	.LVL4:
 472:/home/paulo/Alexandria/STM32Cube_FW_F4_V1.23.0/Drivers/BSP/STM32469I-Discovery/stm32469i_discovery.c ****   HAL_NVIC_EnableIRQ(DISCO_I2C2_ER_IRQn);
 133              		.loc 1 472 3 view .LVU31
 134 0082 2220     		movs	r0, #34
 135 0084 FFF7FEFF 		bl	HAL_NVIC_EnableIRQ
 136              	.LVL5:
 473:/home/paulo/Alexandria/STM32Cube_FW_F4_V1.23.0/Drivers/BSP/STM32469I-Discovery/stm32469i_discovery.c **** }
 137              		.loc 1 473 1 is_stmt 0 view .LVU32
 138 0088 08B0     		add	sp, sp, #32
 139              	.LCFI2:
 140              		.cfi_def_cfa_offset 16
 141              		@ sp needed
 142 008a 70BD     		pop	{r4, r5, r6, pc}
 143              	.L4:
 144              		.align	2
 145              	.L3:
 146 008c 00380240 		.word	1073887232
 147 0090 001C0240 		.word	1073880064
 148              		.cfi_endproc
 149              	.LFE136:
 151              		.section	.text.I2C1_MspInit,"ax",%progbits
 152              		.align	1
 153              		.syntax unified
 154              		.thumb
 155              		.thumb_func
 156              		.fpu fpv4-sp-d16
ARM GAS  /tmp/cc7YGL8m.s 			page 12


 158              	I2C1_MspInit:
 159              	.LFB135:
 395:/home/paulo/Alexandria/STM32Cube_FW_F4_V1.23.0/Drivers/BSP/STM32469I-Discovery/stm32469i_discovery.c ****   GPIO_InitTypeDef  gpio_init_structure;
 160              		.loc 1 395 1 is_stmt 1 view -0
 161              		.cfi_startproc
 162              		@ args = 0, pretend = 0, frame = 32
 163              		@ frame_needed = 0, uses_anonymous_args = 0
 164 0000 70B5     		push	{r4, r5, r6, lr}
 165              	.LCFI3:
 166              		.cfi_def_cfa_offset 16
 167              		.cfi_offset 4, -16
 168              		.cfi_offset 5, -12
 169              		.cfi_offset 6, -8
 170              		.cfi_offset 14, -4
 171 0002 88B0     		sub	sp, sp, #32
 172              	.LCFI4:
 173              		.cfi_def_cfa_offset 48
 396:/home/paulo/Alexandria/STM32Cube_FW_F4_V1.23.0/Drivers/BSP/STM32469I-Discovery/stm32469i_discovery.c **** 
 174              		.loc 1 396 3 view .LVU34
 400:/home/paulo/Alexandria/STM32Cube_FW_F4_V1.23.0/Drivers/BSP/STM32469I-Discovery/stm32469i_discovery.c **** 
 175              		.loc 1 400 3 view .LVU35
 176              	.LBB4:
 400:/home/paulo/Alexandria/STM32Cube_FW_F4_V1.23.0/Drivers/BSP/STM32469I-Discovery/stm32469i_discovery.c **** 
 177              		.loc 1 400 3 view .LVU36
 178 0004 0025     		movs	r5, #0
 179 0006 0195     		str	r5, [sp, #4]
 400:/home/paulo/Alexandria/STM32Cube_FW_F4_V1.23.0/Drivers/BSP/STM32469I-Discovery/stm32469i_discovery.c **** 
 180              		.loc 1 400 3 view .LVU37
 181 0008 214C     		ldr	r4, .L7
 182 000a 236B     		ldr	r3, [r4, #48]
 183 000c 43F00203 		orr	r3, r3, #2
 184 0010 2363     		str	r3, [r4, #48]
 400:/home/paulo/Alexandria/STM32Cube_FW_F4_V1.23.0/Drivers/BSP/STM32469I-Discovery/stm32469i_discovery.c **** 
 185              		.loc 1 400 3 view .LVU38
 186 0012 236B     		ldr	r3, [r4, #48]
 187 0014 03F00203 		and	r3, r3, #2
 188 0018 0193     		str	r3, [sp, #4]
 400:/home/paulo/Alexandria/STM32Cube_FW_F4_V1.23.0/Drivers/BSP/STM32469I-Discovery/stm32469i_discovery.c **** 
 189              		.loc 1 400 3 view .LVU39
 190 001a 019B     		ldr	r3, [sp, #4]
 191              	.LBE4:
 403:/home/paulo/Alexandria/STM32Cube_FW_F4_V1.23.0/Drivers/BSP/STM32469I-Discovery/stm32469i_discovery.c ****   gpio_init_structure.Mode = GPIO_MODE_AF_OD;
 192              		.loc 1 403 3 view .LVU40
 403:/home/paulo/Alexandria/STM32Cube_FW_F4_V1.23.0/Drivers/BSP/STM32469I-Discovery/stm32469i_discovery.c ****   gpio_init_structure.Mode = GPIO_MODE_AF_OD;
 193              		.loc 1 403 27 is_stmt 0 view .LVU41
 194 001c 4FF48073 		mov	r3, #256
 195 0020 0393     		str	r3, [sp, #12]
 404:/home/paulo/Alexandria/STM32Cube_FW_F4_V1.23.0/Drivers/BSP/STM32469I-Discovery/stm32469i_discovery.c ****   gpio_init_structure.Pull = GPIO_NOPULL;
 196              		.loc 1 404 3 is_stmt 1 view .LVU42
 404:/home/paulo/Alexandria/STM32Cube_FW_F4_V1.23.0/Drivers/BSP/STM32469I-Discovery/stm32469i_discovery.c ****   gpio_init_structure.Pull = GPIO_NOPULL;
 197              		.loc 1 404 28 is_stmt 0 view .LVU43
 198 0022 1223     		movs	r3, #18
 199 0024 0493     		str	r3, [sp, #16]
 405:/home/paulo/Alexandria/STM32Cube_FW_F4_V1.23.0/Drivers/BSP/STM32469I-Discovery/stm32469i_discovery.c ****   gpio_init_structure.Speed = GPIO_SPEED_FAST;
 200              		.loc 1 405 3 is_stmt 1 view .LVU44
 405:/home/paulo/Alexandria/STM32Cube_FW_F4_V1.23.0/Drivers/BSP/STM32469I-Discovery/stm32469i_discovery.c ****   gpio_init_structure.Speed = GPIO_SPEED_FAST;
 201              		.loc 1 405 28 is_stmt 0 view .LVU45
ARM GAS  /tmp/cc7YGL8m.s 			page 13


 202 0026 0595     		str	r5, [sp, #20]
 406:/home/paulo/Alexandria/STM32Cube_FW_F4_V1.23.0/Drivers/BSP/STM32469I-Discovery/stm32469i_discovery.c ****   gpio_init_structure.Alternate = DISCO_I2C1_SCL_SDA_AF;
 203              		.loc 1 406 3 is_stmt 1 view .LVU46
 406:/home/paulo/Alexandria/STM32Cube_FW_F4_V1.23.0/Drivers/BSP/STM32469I-Discovery/stm32469i_discovery.c ****   gpio_init_structure.Alternate = DISCO_I2C1_SCL_SDA_AF;
 204              		.loc 1 406 29 is_stmt 0 view .LVU47
 205 0028 0223     		movs	r3, #2
 206 002a 0693     		str	r3, [sp, #24]
 407:/home/paulo/Alexandria/STM32Cube_FW_F4_V1.23.0/Drivers/BSP/STM32469I-Discovery/stm32469i_discovery.c ****   HAL_GPIO_Init(DISCO_I2C1_SCL_SDA_GPIO_PORT, &gpio_init_structure);
 207              		.loc 1 407 3 is_stmt 1 view .LVU48
 407:/home/paulo/Alexandria/STM32Cube_FW_F4_V1.23.0/Drivers/BSP/STM32469I-Discovery/stm32469i_discovery.c ****   HAL_GPIO_Init(DISCO_I2C1_SCL_SDA_GPIO_PORT, &gpio_init_structure);
 208              		.loc 1 407 33 is_stmt 0 view .LVU49
 209 002c 0423     		movs	r3, #4
 210 002e 0793     		str	r3, [sp, #28]
 408:/home/paulo/Alexandria/STM32Cube_FW_F4_V1.23.0/Drivers/BSP/STM32469I-Discovery/stm32469i_discovery.c **** 
 211              		.loc 1 408 3 is_stmt 1 view .LVU50
 212 0030 184E     		ldr	r6, .L7+4
 213 0032 03A9     		add	r1, sp, #12
 214 0034 3046     		mov	r0, r6
 215 0036 FFF7FEFF 		bl	HAL_GPIO_Init
 216              	.LVL6:
 411:/home/paulo/Alexandria/STM32Cube_FW_F4_V1.23.0/Drivers/BSP/STM32469I-Discovery/stm32469i_discovery.c ****   HAL_GPIO_Init(DISCO_I2C1_SCL_SDA_GPIO_PORT, &gpio_init_structure);
 217              		.loc 1 411 3 view .LVU51
 411:/home/paulo/Alexandria/STM32Cube_FW_F4_V1.23.0/Drivers/BSP/STM32469I-Discovery/stm32469i_discovery.c ****   HAL_GPIO_Init(DISCO_I2C1_SCL_SDA_GPIO_PORT, &gpio_init_structure);
 218              		.loc 1 411 27 is_stmt 0 view .LVU52
 219 003a 4FF40073 		mov	r3, #512
 220 003e 0393     		str	r3, [sp, #12]
 412:/home/paulo/Alexandria/STM32Cube_FW_F4_V1.23.0/Drivers/BSP/STM32469I-Discovery/stm32469i_discovery.c **** 
 221              		.loc 1 412 3 is_stmt 1 view .LVU53
 222 0040 03A9     		add	r1, sp, #12
 223 0042 3046     		mov	r0, r6
 224 0044 FFF7FEFF 		bl	HAL_GPIO_Init
 225              	.LVL7:
 416:/home/paulo/Alexandria/STM32Cube_FW_F4_V1.23.0/Drivers/BSP/STM32469I-Discovery/stm32469i_discovery.c **** 
 226              		.loc 1 416 3 view .LVU54
 227              	.LBB5:
 416:/home/paulo/Alexandria/STM32Cube_FW_F4_V1.23.0/Drivers/BSP/STM32469I-Discovery/stm32469i_discovery.c **** 
 228              		.loc 1 416 3 view .LVU55
 229 0048 0295     		str	r5, [sp, #8]
 416:/home/paulo/Alexandria/STM32Cube_FW_F4_V1.23.0/Drivers/BSP/STM32469I-Discovery/stm32469i_discovery.c **** 
 230              		.loc 1 416 3 view .LVU56
 231 004a 236C     		ldr	r3, [r4, #64]
 232 004c 43F40013 		orr	r3, r3, #2097152
 233 0050 2364     		str	r3, [r4, #64]
 416:/home/paulo/Alexandria/STM32Cube_FW_F4_V1.23.0/Drivers/BSP/STM32469I-Discovery/stm32469i_discovery.c **** 
 234              		.loc 1 416 3 view .LVU57
 235 0052 236C     		ldr	r3, [r4, #64]
 236 0054 03F40013 		and	r3, r3, #2097152
 237 0058 0293     		str	r3, [sp, #8]
 416:/home/paulo/Alexandria/STM32Cube_FW_F4_V1.23.0/Drivers/BSP/STM32469I-Discovery/stm32469i_discovery.c **** 
 238              		.loc 1 416 3 view .LVU58
 239 005a 029B     		ldr	r3, [sp, #8]
 240              	.LBE5:
 419:/home/paulo/Alexandria/STM32Cube_FW_F4_V1.23.0/Drivers/BSP/STM32469I-Discovery/stm32469i_discovery.c **** 
 241              		.loc 1 419 3 view .LVU59
 242 005c 236A     		ldr	r3, [r4, #32]
 243 005e 43F40013 		orr	r3, r3, #2097152
 244 0062 2362     		str	r3, [r4, #32]
ARM GAS  /tmp/cc7YGL8m.s 			page 14


 422:/home/paulo/Alexandria/STM32Cube_FW_F4_V1.23.0/Drivers/BSP/STM32469I-Discovery/stm32469i_discovery.c **** 
 245              		.loc 1 422 3 view .LVU60
 246 0064 236A     		ldr	r3, [r4, #32]
 247 0066 23F40013 		bic	r3, r3, #2097152
 248 006a 2362     		str	r3, [r4, #32]
 425:/home/paulo/Alexandria/STM32Cube_FW_F4_V1.23.0/Drivers/BSP/STM32469I-Discovery/stm32469i_discovery.c ****   HAL_NVIC_EnableIRQ(DISCO_I2C1_EV_IRQn);
 249              		.loc 1 425 3 view .LVU61
 250 006c 2A46     		mov	r2, r5
 251 006e 0521     		movs	r1, #5
 252 0070 1F20     		movs	r0, #31
 253 0072 FFF7FEFF 		bl	HAL_NVIC_SetPriority
 254              	.LVL8:
 426:/home/paulo/Alexandria/STM32Cube_FW_F4_V1.23.0/Drivers/BSP/STM32469I-Discovery/stm32469i_discovery.c **** 
 255              		.loc 1 426 3 view .LVU62
 256 0076 1F20     		movs	r0, #31
 257 0078 FFF7FEFF 		bl	HAL_NVIC_EnableIRQ
 258              	.LVL9:
 429:/home/paulo/Alexandria/STM32Cube_FW_F4_V1.23.0/Drivers/BSP/STM32469I-Discovery/stm32469i_discovery.c ****   HAL_NVIC_EnableIRQ(DISCO_I2C1_ER_IRQn);
 259              		.loc 1 429 3 view .LVU63
 260 007c 2A46     		mov	r2, r5
 261 007e 0521     		movs	r1, #5
 262 0080 2020     		movs	r0, #32
 263 0082 FFF7FEFF 		bl	HAL_NVIC_SetPriority
 264              	.LVL10:
 430:/home/paulo/Alexandria/STM32Cube_FW_F4_V1.23.0/Drivers/BSP/STM32469I-Discovery/stm32469i_discovery.c **** }
 265              		.loc 1 430 3 view .LVU64
 266 0086 2020     		movs	r0, #32
 267 0088 FFF7FEFF 		bl	HAL_NVIC_EnableIRQ
 268              	.LVL11:
 431:/home/paulo/Alexandria/STM32Cube_FW_F4_V1.23.0/Drivers/BSP/STM32469I-Discovery/stm32469i_discovery.c **** 
 269              		.loc 1 431 1 is_stmt 0 view .LVU65
 270 008c 08B0     		add	sp, sp, #32
 271              	.LCFI5:
 272              		.cfi_def_cfa_offset 16
 273              		@ sp needed
 274 008e 70BD     		pop	{r4, r5, r6, pc}
 275              	.L8:
 276              		.align	2
 277              	.L7:
 278 0090 00380240 		.word	1073887232
 279 0094 00040240 		.word	1073873920
 280              		.cfi_endproc
 281              	.LFE135:
 283              		.section	.text.I2C2_Init,"ax",%progbits
 284              		.align	1
 285              		.syntax unified
 286              		.thumb
 287              		.thumb_func
 288              		.fpu fpv4-sp-d16
 290              	I2C2_Init:
 291              	.LFB138:
 474:/home/paulo/Alexandria/STM32Cube_FW_F4_V1.23.0/Drivers/BSP/STM32469I-Discovery/stm32469i_discovery.c **** 
 475:/home/paulo/Alexandria/STM32Cube_FW_F4_V1.23.0/Drivers/BSP/STM32469I-Discovery/stm32469i_discovery.c **** /**
 476:/home/paulo/Alexandria/STM32Cube_FW_F4_V1.23.0/Drivers/BSP/STM32469I-Discovery/stm32469i_discovery.c ****   * @brief  Initializes I2C HAL.
 477:/home/paulo/Alexandria/STM32Cube_FW_F4_V1.23.0/Drivers/BSP/STM32469I-Discovery/stm32469i_discovery.c ****   */
 478:/home/paulo/Alexandria/STM32Cube_FW_F4_V1.23.0/Drivers/BSP/STM32469I-Discovery/stm32469i_discovery.c **** static void I2C1_Init(void)
 479:/home/paulo/Alexandria/STM32Cube_FW_F4_V1.23.0/Drivers/BSP/STM32469I-Discovery/stm32469i_discovery.c **** {
ARM GAS  /tmp/cc7YGL8m.s 			page 15


 480:/home/paulo/Alexandria/STM32Cube_FW_F4_V1.23.0/Drivers/BSP/STM32469I-Discovery/stm32469i_discovery.c ****   if(HAL_I2C_GetState(&heval_I2c1) == HAL_I2C_STATE_RESET)
 481:/home/paulo/Alexandria/STM32Cube_FW_F4_V1.23.0/Drivers/BSP/STM32469I-Discovery/stm32469i_discovery.c ****   {
 482:/home/paulo/Alexandria/STM32Cube_FW_F4_V1.23.0/Drivers/BSP/STM32469I-Discovery/stm32469i_discovery.c ****     heval_I2c1.Instance = I2C1;
 483:/home/paulo/Alexandria/STM32Cube_FW_F4_V1.23.0/Drivers/BSP/STM32469I-Discovery/stm32469i_discovery.c ****     heval_I2c1.Init.ClockSpeed      = I2C1_SCL_FREQ_KHZ;
 484:/home/paulo/Alexandria/STM32Cube_FW_F4_V1.23.0/Drivers/BSP/STM32469I-Discovery/stm32469i_discovery.c ****     heval_I2c1.Init.DutyCycle       = I2C_DUTYCYCLE_2;
 485:/home/paulo/Alexandria/STM32Cube_FW_F4_V1.23.0/Drivers/BSP/STM32469I-Discovery/stm32469i_discovery.c ****     heval_I2c1.Init.OwnAddress1     = 0;
 486:/home/paulo/Alexandria/STM32Cube_FW_F4_V1.23.0/Drivers/BSP/STM32469I-Discovery/stm32469i_discovery.c ****     heval_I2c1.Init.AddressingMode  = I2C_ADDRESSINGMODE_7BIT;
 487:/home/paulo/Alexandria/STM32Cube_FW_F4_V1.23.0/Drivers/BSP/STM32469I-Discovery/stm32469i_discovery.c ****     heval_I2c1.Init.DualAddressMode = I2C_DUALADDRESS_DISABLE;
 488:/home/paulo/Alexandria/STM32Cube_FW_F4_V1.23.0/Drivers/BSP/STM32469I-Discovery/stm32469i_discovery.c ****     heval_I2c1.Init.OwnAddress2     = 0;
 489:/home/paulo/Alexandria/STM32Cube_FW_F4_V1.23.0/Drivers/BSP/STM32469I-Discovery/stm32469i_discovery.c ****     heval_I2c1.Init.GeneralCallMode = I2C_GENERALCALL_DISABLE;
 490:/home/paulo/Alexandria/STM32Cube_FW_F4_V1.23.0/Drivers/BSP/STM32469I-Discovery/stm32469i_discovery.c ****     heval_I2c1.Init.NoStretchMode   = I2C_NOSTRETCH_DISABLE;
 491:/home/paulo/Alexandria/STM32Cube_FW_F4_V1.23.0/Drivers/BSP/STM32469I-Discovery/stm32469i_discovery.c **** 
 492:/home/paulo/Alexandria/STM32Cube_FW_F4_V1.23.0/Drivers/BSP/STM32469I-Discovery/stm32469i_discovery.c ****     /* Init the I2C */
 493:/home/paulo/Alexandria/STM32Cube_FW_F4_V1.23.0/Drivers/BSP/STM32469I-Discovery/stm32469i_discovery.c ****     I2C1_MspInit();
 494:/home/paulo/Alexandria/STM32Cube_FW_F4_V1.23.0/Drivers/BSP/STM32469I-Discovery/stm32469i_discovery.c ****     HAL_I2C_Init(&heval_I2c1);
 495:/home/paulo/Alexandria/STM32Cube_FW_F4_V1.23.0/Drivers/BSP/STM32469I-Discovery/stm32469i_discovery.c ****   }
 496:/home/paulo/Alexandria/STM32Cube_FW_F4_V1.23.0/Drivers/BSP/STM32469I-Discovery/stm32469i_discovery.c **** }
 497:/home/paulo/Alexandria/STM32Cube_FW_F4_V1.23.0/Drivers/BSP/STM32469I-Discovery/stm32469i_discovery.c **** 
 498:/home/paulo/Alexandria/STM32Cube_FW_F4_V1.23.0/Drivers/BSP/STM32469I-Discovery/stm32469i_discovery.c **** /**
 499:/home/paulo/Alexandria/STM32Cube_FW_F4_V1.23.0/Drivers/BSP/STM32469I-Discovery/stm32469i_discovery.c ****   * @brief  Initializes I2C HAL.
 500:/home/paulo/Alexandria/STM32Cube_FW_F4_V1.23.0/Drivers/BSP/STM32469I-Discovery/stm32469i_discovery.c ****   */
 501:/home/paulo/Alexandria/STM32Cube_FW_F4_V1.23.0/Drivers/BSP/STM32469I-Discovery/stm32469i_discovery.c **** static void I2C2_Init(void)
 502:/home/paulo/Alexandria/STM32Cube_FW_F4_V1.23.0/Drivers/BSP/STM32469I-Discovery/stm32469i_discovery.c **** {
 292              		.loc 1 502 1 is_stmt 1 view -0
 293              		.cfi_startproc
 294              		@ args = 0, pretend = 0, frame = 0
 295              		@ frame_needed = 0, uses_anonymous_args = 0
 296 0000 10B5     		push	{r4, lr}
 297              	.LCFI6:
 298              		.cfi_def_cfa_offset 8
 299              		.cfi_offset 4, -8
 300              		.cfi_offset 14, -4
 503:/home/paulo/Alexandria/STM32Cube_FW_F4_V1.23.0/Drivers/BSP/STM32469I-Discovery/stm32469i_discovery.c ****   if(HAL_I2C_GetState(&heval_I2c2) == HAL_I2C_STATE_RESET)
 301              		.loc 1 503 3 view .LVU67
 302              		.loc 1 503 6 is_stmt 0 view .LVU68
 303 0002 0D48     		ldr	r0, .L13
 304 0004 FFF7FEFF 		bl	HAL_I2C_GetState
 305              	.LVL12:
 306              		.loc 1 503 5 view .LVU69
 307 0008 00B1     		cbz	r0, .L12
 308              	.L9:
 504:/home/paulo/Alexandria/STM32Cube_FW_F4_V1.23.0/Drivers/BSP/STM32469I-Discovery/stm32469i_discovery.c ****   {
 505:/home/paulo/Alexandria/STM32Cube_FW_F4_V1.23.0/Drivers/BSP/STM32469I-Discovery/stm32469i_discovery.c ****     heval_I2c2.Instance = I2C2;
 506:/home/paulo/Alexandria/STM32Cube_FW_F4_V1.23.0/Drivers/BSP/STM32469I-Discovery/stm32469i_discovery.c ****     heval_I2c2.Init.ClockSpeed      = I2C2_SCL_FREQ_KHZ;
 507:/home/paulo/Alexandria/STM32Cube_FW_F4_V1.23.0/Drivers/BSP/STM32469I-Discovery/stm32469i_discovery.c ****     heval_I2c2.Init.DutyCycle       = I2C_DUTYCYCLE_2;
 508:/home/paulo/Alexandria/STM32Cube_FW_F4_V1.23.0/Drivers/BSP/STM32469I-Discovery/stm32469i_discovery.c ****     heval_I2c2.Init.OwnAddress1     = 0;
 509:/home/paulo/Alexandria/STM32Cube_FW_F4_V1.23.0/Drivers/BSP/STM32469I-Discovery/stm32469i_discovery.c ****     heval_I2c2.Init.AddressingMode  = I2C_ADDRESSINGMODE_7BIT;
 510:/home/paulo/Alexandria/STM32Cube_FW_F4_V1.23.0/Drivers/BSP/STM32469I-Discovery/stm32469i_discovery.c ****     heval_I2c2.Init.DualAddressMode = I2C_DUALADDRESS_DISABLE;
 511:/home/paulo/Alexandria/STM32Cube_FW_F4_V1.23.0/Drivers/BSP/STM32469I-Discovery/stm32469i_discovery.c ****     heval_I2c2.Init.OwnAddress2     = 0;
 512:/home/paulo/Alexandria/STM32Cube_FW_F4_V1.23.0/Drivers/BSP/STM32469I-Discovery/stm32469i_discovery.c ****     heval_I2c2.Init.GeneralCallMode = I2C_GENERALCALL_DISABLE;
 513:/home/paulo/Alexandria/STM32Cube_FW_F4_V1.23.0/Drivers/BSP/STM32469I-Discovery/stm32469i_discovery.c ****     heval_I2c2.Init.NoStretchMode   = I2C_NOSTRETCH_DISABLE;
 514:/home/paulo/Alexandria/STM32Cube_FW_F4_V1.23.0/Drivers/BSP/STM32469I-Discovery/stm32469i_discovery.c **** 
 515:/home/paulo/Alexandria/STM32Cube_FW_F4_V1.23.0/Drivers/BSP/STM32469I-Discovery/stm32469i_discovery.c ****     /* Init the I2C */
 516:/home/paulo/Alexandria/STM32Cube_FW_F4_V1.23.0/Drivers/BSP/STM32469I-Discovery/stm32469i_discovery.c ****     I2C2_MspInit();
 517:/home/paulo/Alexandria/STM32Cube_FW_F4_V1.23.0/Drivers/BSP/STM32469I-Discovery/stm32469i_discovery.c ****     HAL_I2C_Init(&heval_I2c2);
 518:/home/paulo/Alexandria/STM32Cube_FW_F4_V1.23.0/Drivers/BSP/STM32469I-Discovery/stm32469i_discovery.c ****   }
 519:/home/paulo/Alexandria/STM32Cube_FW_F4_V1.23.0/Drivers/BSP/STM32469I-Discovery/stm32469i_discovery.c **** }
ARM GAS  /tmp/cc7YGL8m.s 			page 16


 309              		.loc 1 519 1 view .LVU70
 310 000a 10BD     		pop	{r4, pc}
 311              	.L12:
 505:/home/paulo/Alexandria/STM32Cube_FW_F4_V1.23.0/Drivers/BSP/STM32469I-Discovery/stm32469i_discovery.c ****     heval_I2c2.Init.ClockSpeed      = I2C2_SCL_FREQ_KHZ;
 312              		.loc 1 505 5 is_stmt 1 view .LVU71
 505:/home/paulo/Alexandria/STM32Cube_FW_F4_V1.23.0/Drivers/BSP/STM32469I-Discovery/stm32469i_discovery.c ****     heval_I2c2.Init.ClockSpeed      = I2C2_SCL_FREQ_KHZ;
 313              		.loc 1 505 25 is_stmt 0 view .LVU72
 314 000c 0A4C     		ldr	r4, .L13
 315 000e 0B4B     		ldr	r3, .L13+4
 316 0010 2360     		str	r3, [r4]
 506:/home/paulo/Alexandria/STM32Cube_FW_F4_V1.23.0/Drivers/BSP/STM32469I-Discovery/stm32469i_discovery.c ****     heval_I2c2.Init.DutyCycle       = I2C_DUTYCYCLE_2;
 317              		.loc 1 506 5 is_stmt 1 view .LVU73
 506:/home/paulo/Alexandria/STM32Cube_FW_F4_V1.23.0/Drivers/BSP/STM32469I-Discovery/stm32469i_discovery.c ****     heval_I2c2.Init.DutyCycle       = I2C_DUTYCYCLE_2;
 318              		.loc 1 506 37 is_stmt 0 view .LVU74
 319 0012 0B4B     		ldr	r3, .L13+8
 320 0014 6360     		str	r3, [r4, #4]
 507:/home/paulo/Alexandria/STM32Cube_FW_F4_V1.23.0/Drivers/BSP/STM32469I-Discovery/stm32469i_discovery.c ****     heval_I2c2.Init.OwnAddress1     = 0;
 321              		.loc 1 507 5 is_stmt 1 view .LVU75
 507:/home/paulo/Alexandria/STM32Cube_FW_F4_V1.23.0/Drivers/BSP/STM32469I-Discovery/stm32469i_discovery.c ****     heval_I2c2.Init.OwnAddress1     = 0;
 322              		.loc 1 507 37 is_stmt 0 view .LVU76
 323 0016 0023     		movs	r3, #0
 324 0018 A360     		str	r3, [r4, #8]
 508:/home/paulo/Alexandria/STM32Cube_FW_F4_V1.23.0/Drivers/BSP/STM32469I-Discovery/stm32469i_discovery.c ****     heval_I2c2.Init.AddressingMode  = I2C_ADDRESSINGMODE_7BIT;
 325              		.loc 1 508 5 is_stmt 1 view .LVU77
 508:/home/paulo/Alexandria/STM32Cube_FW_F4_V1.23.0/Drivers/BSP/STM32469I-Discovery/stm32469i_discovery.c ****     heval_I2c2.Init.AddressingMode  = I2C_ADDRESSINGMODE_7BIT;
 326              		.loc 1 508 37 is_stmt 0 view .LVU78
 327 001a E360     		str	r3, [r4, #12]
 509:/home/paulo/Alexandria/STM32Cube_FW_F4_V1.23.0/Drivers/BSP/STM32469I-Discovery/stm32469i_discovery.c ****     heval_I2c2.Init.DualAddressMode = I2C_DUALADDRESS_DISABLE;
 328              		.loc 1 509 5 is_stmt 1 view .LVU79
 509:/home/paulo/Alexandria/STM32Cube_FW_F4_V1.23.0/Drivers/BSP/STM32469I-Discovery/stm32469i_discovery.c ****     heval_I2c2.Init.DualAddressMode = I2C_DUALADDRESS_DISABLE;
 329              		.loc 1 509 37 is_stmt 0 view .LVU80
 330 001c 4FF48042 		mov	r2, #16384
 331 0020 2261     		str	r2, [r4, #16]
 510:/home/paulo/Alexandria/STM32Cube_FW_F4_V1.23.0/Drivers/BSP/STM32469I-Discovery/stm32469i_discovery.c ****     heval_I2c2.Init.OwnAddress2     = 0;
 332              		.loc 1 510 5 is_stmt 1 view .LVU81
 510:/home/paulo/Alexandria/STM32Cube_FW_F4_V1.23.0/Drivers/BSP/STM32469I-Discovery/stm32469i_discovery.c ****     heval_I2c2.Init.OwnAddress2     = 0;
 333              		.loc 1 510 37 is_stmt 0 view .LVU82
 334 0022 6361     		str	r3, [r4, #20]
 511:/home/paulo/Alexandria/STM32Cube_FW_F4_V1.23.0/Drivers/BSP/STM32469I-Discovery/stm32469i_discovery.c ****     heval_I2c2.Init.GeneralCallMode = I2C_GENERALCALL_DISABLE;
 335              		.loc 1 511 5 is_stmt 1 view .LVU83
 511:/home/paulo/Alexandria/STM32Cube_FW_F4_V1.23.0/Drivers/BSP/STM32469I-Discovery/stm32469i_discovery.c ****     heval_I2c2.Init.GeneralCallMode = I2C_GENERALCALL_DISABLE;
 336              		.loc 1 511 37 is_stmt 0 view .LVU84
 337 0024 A361     		str	r3, [r4, #24]
 512:/home/paulo/Alexandria/STM32Cube_FW_F4_V1.23.0/Drivers/BSP/STM32469I-Discovery/stm32469i_discovery.c ****     heval_I2c2.Init.NoStretchMode   = I2C_NOSTRETCH_DISABLE;
 338              		.loc 1 512 5 is_stmt 1 view .LVU85
 512:/home/paulo/Alexandria/STM32Cube_FW_F4_V1.23.0/Drivers/BSP/STM32469I-Discovery/stm32469i_discovery.c ****     heval_I2c2.Init.NoStretchMode   = I2C_NOSTRETCH_DISABLE;
 339              		.loc 1 512 37 is_stmt 0 view .LVU86
 340 0026 E361     		str	r3, [r4, #28]
 513:/home/paulo/Alexandria/STM32Cube_FW_F4_V1.23.0/Drivers/BSP/STM32469I-Discovery/stm32469i_discovery.c **** 
 341              		.loc 1 513 5 is_stmt 1 view .LVU87
 513:/home/paulo/Alexandria/STM32Cube_FW_F4_V1.23.0/Drivers/BSP/STM32469I-Discovery/stm32469i_discovery.c **** 
 342              		.loc 1 513 37 is_stmt 0 view .LVU88
 343 0028 2362     		str	r3, [r4, #32]
 516:/home/paulo/Alexandria/STM32Cube_FW_F4_V1.23.0/Drivers/BSP/STM32469I-Discovery/stm32469i_discovery.c ****     HAL_I2C_Init(&heval_I2c2);
 344              		.loc 1 516 5 is_stmt 1 view .LVU89
 345 002a FFF7FEFF 		bl	I2C2_MspInit
 346              	.LVL13:
ARM GAS  /tmp/cc7YGL8m.s 			page 17


 517:/home/paulo/Alexandria/STM32Cube_FW_F4_V1.23.0/Drivers/BSP/STM32469I-Discovery/stm32469i_discovery.c ****   }
 347              		.loc 1 517 5 view .LVU90
 348 002e 2046     		mov	r0, r4
 349 0030 FFF7FEFF 		bl	HAL_I2C_Init
 350              	.LVL14:
 351              		.loc 1 519 1 is_stmt 0 view .LVU91
 352 0034 E9E7     		b	.L9
 353              	.L14:
 354 0036 00BF     		.align	2
 355              	.L13:
 356 0038 00000000 		.word	.LANCHOR0
 357 003c 00580040 		.word	1073764352
 358 0040 A0860100 		.word	100000
 359              		.cfi_endproc
 360              	.LFE138:
 362              		.section	.text.I2C1_Init,"ax",%progbits
 363              		.align	1
 364              		.syntax unified
 365              		.thumb
 366              		.thumb_func
 367              		.fpu fpv4-sp-d16
 369              	I2C1_Init:
 370              	.LFB137:
 479:/home/paulo/Alexandria/STM32Cube_FW_F4_V1.23.0/Drivers/BSP/STM32469I-Discovery/stm32469i_discovery.c ****   if(HAL_I2C_GetState(&heval_I2c1) == HAL_I2C_STATE_RESET)
 371              		.loc 1 479 1 is_stmt 1 view -0
 372              		.cfi_startproc
 373              		@ args = 0, pretend = 0, frame = 0
 374              		@ frame_needed = 0, uses_anonymous_args = 0
 375 0000 10B5     		push	{r4, lr}
 376              	.LCFI7:
 377              		.cfi_def_cfa_offset 8
 378              		.cfi_offset 4, -8
 379              		.cfi_offset 14, -4
 480:/home/paulo/Alexandria/STM32Cube_FW_F4_V1.23.0/Drivers/BSP/STM32469I-Discovery/stm32469i_discovery.c ****   {
 380              		.loc 1 480 3 view .LVU93
 480:/home/paulo/Alexandria/STM32Cube_FW_F4_V1.23.0/Drivers/BSP/STM32469I-Discovery/stm32469i_discovery.c ****   {
 381              		.loc 1 480 6 is_stmt 0 view .LVU94
 382 0002 0D48     		ldr	r0, .L19
 383 0004 FFF7FEFF 		bl	HAL_I2C_GetState
 384              	.LVL15:
 480:/home/paulo/Alexandria/STM32Cube_FW_F4_V1.23.0/Drivers/BSP/STM32469I-Discovery/stm32469i_discovery.c ****   {
 385              		.loc 1 480 5 view .LVU95
 386 0008 00B1     		cbz	r0, .L18
 387              	.L15:
 496:/home/paulo/Alexandria/STM32Cube_FW_F4_V1.23.0/Drivers/BSP/STM32469I-Discovery/stm32469i_discovery.c **** 
 388              		.loc 1 496 1 view .LVU96
 389 000a 10BD     		pop	{r4, pc}
 390              	.L18:
 482:/home/paulo/Alexandria/STM32Cube_FW_F4_V1.23.0/Drivers/BSP/STM32469I-Discovery/stm32469i_discovery.c ****     heval_I2c1.Init.ClockSpeed      = I2C1_SCL_FREQ_KHZ;
 391              		.loc 1 482 5 is_stmt 1 view .LVU97
 482:/home/paulo/Alexandria/STM32Cube_FW_F4_V1.23.0/Drivers/BSP/STM32469I-Discovery/stm32469i_discovery.c ****     heval_I2c1.Init.ClockSpeed      = I2C1_SCL_FREQ_KHZ;
 392              		.loc 1 482 25 is_stmt 0 view .LVU98
 393 000c 0A4C     		ldr	r4, .L19
 394 000e 0B4B     		ldr	r3, .L19+4
 395 0010 2360     		str	r3, [r4]
 483:/home/paulo/Alexandria/STM32Cube_FW_F4_V1.23.0/Drivers/BSP/STM32469I-Discovery/stm32469i_discovery.c ****     heval_I2c1.Init.DutyCycle       = I2C_DUTYCYCLE_2;
 396              		.loc 1 483 5 is_stmt 1 view .LVU99
ARM GAS  /tmp/cc7YGL8m.s 			page 18


 483:/home/paulo/Alexandria/STM32Cube_FW_F4_V1.23.0/Drivers/BSP/STM32469I-Discovery/stm32469i_discovery.c ****     heval_I2c1.Init.DutyCycle       = I2C_DUTYCYCLE_2;
 397              		.loc 1 483 37 is_stmt 0 view .LVU100
 398 0012 0B4B     		ldr	r3, .L19+8
 399 0014 6360     		str	r3, [r4, #4]
 484:/home/paulo/Alexandria/STM32Cube_FW_F4_V1.23.0/Drivers/BSP/STM32469I-Discovery/stm32469i_discovery.c ****     heval_I2c1.Init.OwnAddress1     = 0;
 400              		.loc 1 484 5 is_stmt 1 view .LVU101
 484:/home/paulo/Alexandria/STM32Cube_FW_F4_V1.23.0/Drivers/BSP/STM32469I-Discovery/stm32469i_discovery.c ****     heval_I2c1.Init.OwnAddress1     = 0;
 401              		.loc 1 484 37 is_stmt 0 view .LVU102
 402 0016 0023     		movs	r3, #0
 403 0018 A360     		str	r3, [r4, #8]
 485:/home/paulo/Alexandria/STM32Cube_FW_F4_V1.23.0/Drivers/BSP/STM32469I-Discovery/stm32469i_discovery.c ****     heval_I2c1.Init.AddressingMode  = I2C_ADDRESSINGMODE_7BIT;
 404              		.loc 1 485 5 is_stmt 1 view .LVU103
 485:/home/paulo/Alexandria/STM32Cube_FW_F4_V1.23.0/Drivers/BSP/STM32469I-Discovery/stm32469i_discovery.c ****     heval_I2c1.Init.AddressingMode  = I2C_ADDRESSINGMODE_7BIT;
 405              		.loc 1 485 37 is_stmt 0 view .LVU104
 406 001a E360     		str	r3, [r4, #12]
 486:/home/paulo/Alexandria/STM32Cube_FW_F4_V1.23.0/Drivers/BSP/STM32469I-Discovery/stm32469i_discovery.c ****     heval_I2c1.Init.DualAddressMode = I2C_DUALADDRESS_DISABLE;
 407              		.loc 1 486 5 is_stmt 1 view .LVU105
 486:/home/paulo/Alexandria/STM32Cube_FW_F4_V1.23.0/Drivers/BSP/STM32469I-Discovery/stm32469i_discovery.c ****     heval_I2c1.Init.DualAddressMode = I2C_DUALADDRESS_DISABLE;
 408              		.loc 1 486 37 is_stmt 0 view .LVU106
 409 001c 4FF48042 		mov	r2, #16384
 410 0020 2261     		str	r2, [r4, #16]
 487:/home/paulo/Alexandria/STM32Cube_FW_F4_V1.23.0/Drivers/BSP/STM32469I-Discovery/stm32469i_discovery.c ****     heval_I2c1.Init.OwnAddress2     = 0;
 411              		.loc 1 487 5 is_stmt 1 view .LVU107
 487:/home/paulo/Alexandria/STM32Cube_FW_F4_V1.23.0/Drivers/BSP/STM32469I-Discovery/stm32469i_discovery.c ****     heval_I2c1.Init.OwnAddress2     = 0;
 412              		.loc 1 487 37 is_stmt 0 view .LVU108
 413 0022 6361     		str	r3, [r4, #20]
 488:/home/paulo/Alexandria/STM32Cube_FW_F4_V1.23.0/Drivers/BSP/STM32469I-Discovery/stm32469i_discovery.c ****     heval_I2c1.Init.GeneralCallMode = I2C_GENERALCALL_DISABLE;
 414              		.loc 1 488 5 is_stmt 1 view .LVU109
 488:/home/paulo/Alexandria/STM32Cube_FW_F4_V1.23.0/Drivers/BSP/STM32469I-Discovery/stm32469i_discovery.c ****     heval_I2c1.Init.GeneralCallMode = I2C_GENERALCALL_DISABLE;
 415              		.loc 1 488 37 is_stmt 0 view .LVU110
 416 0024 A361     		str	r3, [r4, #24]
 489:/home/paulo/Alexandria/STM32Cube_FW_F4_V1.23.0/Drivers/BSP/STM32469I-Discovery/stm32469i_discovery.c ****     heval_I2c1.Init.NoStretchMode   = I2C_NOSTRETCH_DISABLE;
 417              		.loc 1 489 5 is_stmt 1 view .LVU111
 489:/home/paulo/Alexandria/STM32Cube_FW_F4_V1.23.0/Drivers/BSP/STM32469I-Discovery/stm32469i_discovery.c ****     heval_I2c1.Init.NoStretchMode   = I2C_NOSTRETCH_DISABLE;
 418              		.loc 1 489 37 is_stmt 0 view .LVU112
 419 0026 E361     		str	r3, [r4, #28]
 490:/home/paulo/Alexandria/STM32Cube_FW_F4_V1.23.0/Drivers/BSP/STM32469I-Discovery/stm32469i_discovery.c **** 
 420              		.loc 1 490 5 is_stmt 1 view .LVU113
 490:/home/paulo/Alexandria/STM32Cube_FW_F4_V1.23.0/Drivers/BSP/STM32469I-Discovery/stm32469i_discovery.c **** 
 421              		.loc 1 490 37 is_stmt 0 view .LVU114
 422 0028 2362     		str	r3, [r4, #32]
 493:/home/paulo/Alexandria/STM32Cube_FW_F4_V1.23.0/Drivers/BSP/STM32469I-Discovery/stm32469i_discovery.c ****     HAL_I2C_Init(&heval_I2c1);
 423              		.loc 1 493 5 is_stmt 1 view .LVU115
 424 002a FFF7FEFF 		bl	I2C1_MspInit
 425              	.LVL16:
 494:/home/paulo/Alexandria/STM32Cube_FW_F4_V1.23.0/Drivers/BSP/STM32469I-Discovery/stm32469i_discovery.c ****   }
 426              		.loc 1 494 5 view .LVU116
 427 002e 2046     		mov	r0, r4
 428 0030 FFF7FEFF 		bl	HAL_I2C_Init
 429              	.LVL17:
 496:/home/paulo/Alexandria/STM32Cube_FW_F4_V1.23.0/Drivers/BSP/STM32469I-Discovery/stm32469i_discovery.c **** 
 430              		.loc 1 496 1 is_stmt 0 view .LVU117
 431 0034 E9E7     		b	.L15
 432              	.L20:
 433 0036 00BF     		.align	2
 434              	.L19:
 435 0038 00000000 		.word	.LANCHOR1
ARM GAS  /tmp/cc7YGL8m.s 			page 19


 436 003c 00540040 		.word	1073763328
 437 0040 801A0600 		.word	400000
 438              		.cfi_endproc
 439              	.LFE137:
 441              		.section	.text.I2C2_Error,"ax",%progbits
 442              		.align	1
 443              		.syntax unified
 444              		.thumb
 445              		.thumb_func
 446              		.fpu fpv4-sp-d16
 448              	I2C2_Error:
 449              	.LVL18:
 450              	.LFB147:
 520:/home/paulo/Alexandria/STM32Cube_FW_F4_V1.23.0/Drivers/BSP/STM32469I-Discovery/stm32469i_discovery.c **** 
 521:/home/paulo/Alexandria/STM32Cube_FW_F4_V1.23.0/Drivers/BSP/STM32469I-Discovery/stm32469i_discovery.c **** /**
 522:/home/paulo/Alexandria/STM32Cube_FW_F4_V1.23.0/Drivers/BSP/STM32469I-Discovery/stm32469i_discovery.c ****   * @brief  Writes a single data.
 523:/home/paulo/Alexandria/STM32Cube_FW_F4_V1.23.0/Drivers/BSP/STM32469I-Discovery/stm32469i_discovery.c ****   * @param  Addr: I2C address
 524:/home/paulo/Alexandria/STM32Cube_FW_F4_V1.23.0/Drivers/BSP/STM32469I-Discovery/stm32469i_discovery.c ****   * @param  Reg: Register address
 525:/home/paulo/Alexandria/STM32Cube_FW_F4_V1.23.0/Drivers/BSP/STM32469I-Discovery/stm32469i_discovery.c ****   * @param  Value: Data to be written
 526:/home/paulo/Alexandria/STM32Cube_FW_F4_V1.23.0/Drivers/BSP/STM32469I-Discovery/stm32469i_discovery.c ****   */
 527:/home/paulo/Alexandria/STM32Cube_FW_F4_V1.23.0/Drivers/BSP/STM32469I-Discovery/stm32469i_discovery.c **** static void I2C1_Write(uint8_t Addr, uint8_t Reg, uint8_t Value)
 528:/home/paulo/Alexandria/STM32Cube_FW_F4_V1.23.0/Drivers/BSP/STM32469I-Discovery/stm32469i_discovery.c **** {
 529:/home/paulo/Alexandria/STM32Cube_FW_F4_V1.23.0/Drivers/BSP/STM32469I-Discovery/stm32469i_discovery.c ****   HAL_StatusTypeDef status = HAL_OK;
 530:/home/paulo/Alexandria/STM32Cube_FW_F4_V1.23.0/Drivers/BSP/STM32469I-Discovery/stm32469i_discovery.c **** 
 531:/home/paulo/Alexandria/STM32Cube_FW_F4_V1.23.0/Drivers/BSP/STM32469I-Discovery/stm32469i_discovery.c ****   status = HAL_I2C_Mem_Write(&heval_I2c1,
 532:/home/paulo/Alexandria/STM32Cube_FW_F4_V1.23.0/Drivers/BSP/STM32469I-Discovery/stm32469i_discovery.c ****                          Addr,
 533:/home/paulo/Alexandria/STM32Cube_FW_F4_V1.23.0/Drivers/BSP/STM32469I-Discovery/stm32469i_discovery.c ****                          (uint16_t)Reg,
 534:/home/paulo/Alexandria/STM32Cube_FW_F4_V1.23.0/Drivers/BSP/STM32469I-Discovery/stm32469i_discovery.c ****                          I2C_MEMADD_SIZE_8BIT,
 535:/home/paulo/Alexandria/STM32Cube_FW_F4_V1.23.0/Drivers/BSP/STM32469I-Discovery/stm32469i_discovery.c ****                          &Value,
 536:/home/paulo/Alexandria/STM32Cube_FW_F4_V1.23.0/Drivers/BSP/STM32469I-Discovery/stm32469i_discovery.c ****                          1,
 537:/home/paulo/Alexandria/STM32Cube_FW_F4_V1.23.0/Drivers/BSP/STM32469I-Discovery/stm32469i_discovery.c ****                          100);
 538:/home/paulo/Alexandria/STM32Cube_FW_F4_V1.23.0/Drivers/BSP/STM32469I-Discovery/stm32469i_discovery.c **** 
 539:/home/paulo/Alexandria/STM32Cube_FW_F4_V1.23.0/Drivers/BSP/STM32469I-Discovery/stm32469i_discovery.c ****   /* Check the communication status */
 540:/home/paulo/Alexandria/STM32Cube_FW_F4_V1.23.0/Drivers/BSP/STM32469I-Discovery/stm32469i_discovery.c ****   if(status != HAL_OK)
 541:/home/paulo/Alexandria/STM32Cube_FW_F4_V1.23.0/Drivers/BSP/STM32469I-Discovery/stm32469i_discovery.c ****   {
 542:/home/paulo/Alexandria/STM32Cube_FW_F4_V1.23.0/Drivers/BSP/STM32469I-Discovery/stm32469i_discovery.c ****     /* Execute user timeout callback */
 543:/home/paulo/Alexandria/STM32Cube_FW_F4_V1.23.0/Drivers/BSP/STM32469I-Discovery/stm32469i_discovery.c ****     I2C1_Error(Addr);
 544:/home/paulo/Alexandria/STM32Cube_FW_F4_V1.23.0/Drivers/BSP/STM32469I-Discovery/stm32469i_discovery.c ****   }
 545:/home/paulo/Alexandria/STM32Cube_FW_F4_V1.23.0/Drivers/BSP/STM32469I-Discovery/stm32469i_discovery.c **** }
 546:/home/paulo/Alexandria/STM32Cube_FW_F4_V1.23.0/Drivers/BSP/STM32469I-Discovery/stm32469i_discovery.c **** 
 547:/home/paulo/Alexandria/STM32Cube_FW_F4_V1.23.0/Drivers/BSP/STM32469I-Discovery/stm32469i_discovery.c **** /**
 548:/home/paulo/Alexandria/STM32Cube_FW_F4_V1.23.0/Drivers/BSP/STM32469I-Discovery/stm32469i_discovery.c ****   * @brief  Reads a single data.
 549:/home/paulo/Alexandria/STM32Cube_FW_F4_V1.23.0/Drivers/BSP/STM32469I-Discovery/stm32469i_discovery.c ****   * @param  Addr: I2C address
 550:/home/paulo/Alexandria/STM32Cube_FW_F4_V1.23.0/Drivers/BSP/STM32469I-Discovery/stm32469i_discovery.c ****   * @param  Reg: Register address
 551:/home/paulo/Alexandria/STM32Cube_FW_F4_V1.23.0/Drivers/BSP/STM32469I-Discovery/stm32469i_discovery.c ****   * @retval Read data
 552:/home/paulo/Alexandria/STM32Cube_FW_F4_V1.23.0/Drivers/BSP/STM32469I-Discovery/stm32469i_discovery.c ****   */
 553:/home/paulo/Alexandria/STM32Cube_FW_F4_V1.23.0/Drivers/BSP/STM32469I-Discovery/stm32469i_discovery.c **** static uint8_t I2C1_Read(uint8_t Addr, uint8_t Reg)
 554:/home/paulo/Alexandria/STM32Cube_FW_F4_V1.23.0/Drivers/BSP/STM32469I-Discovery/stm32469i_discovery.c **** {
 555:/home/paulo/Alexandria/STM32Cube_FW_F4_V1.23.0/Drivers/BSP/STM32469I-Discovery/stm32469i_discovery.c ****   HAL_StatusTypeDef status = HAL_OK;
 556:/home/paulo/Alexandria/STM32Cube_FW_F4_V1.23.0/Drivers/BSP/STM32469I-Discovery/stm32469i_discovery.c ****   uint8_t Value = 0;
 557:/home/paulo/Alexandria/STM32Cube_FW_F4_V1.23.0/Drivers/BSP/STM32469I-Discovery/stm32469i_discovery.c **** 
 558:/home/paulo/Alexandria/STM32Cube_FW_F4_V1.23.0/Drivers/BSP/STM32469I-Discovery/stm32469i_discovery.c ****   status = HAL_I2C_Mem_Read(&heval_I2c1,
 559:/home/paulo/Alexandria/STM32Cube_FW_F4_V1.23.0/Drivers/BSP/STM32469I-Discovery/stm32469i_discovery.c ****                         Addr,
 560:/home/paulo/Alexandria/STM32Cube_FW_F4_V1.23.0/Drivers/BSP/STM32469I-Discovery/stm32469i_discovery.c ****                         Reg,
 561:/home/paulo/Alexandria/STM32Cube_FW_F4_V1.23.0/Drivers/BSP/STM32469I-Discovery/stm32469i_discovery.c ****                         I2C_MEMADD_SIZE_8BIT,
 562:/home/paulo/Alexandria/STM32Cube_FW_F4_V1.23.0/Drivers/BSP/STM32469I-Discovery/stm32469i_discovery.c ****                         &Value,
 563:/home/paulo/Alexandria/STM32Cube_FW_F4_V1.23.0/Drivers/BSP/STM32469I-Discovery/stm32469i_discovery.c ****                         1,
ARM GAS  /tmp/cc7YGL8m.s 			page 20


 564:/home/paulo/Alexandria/STM32Cube_FW_F4_V1.23.0/Drivers/BSP/STM32469I-Discovery/stm32469i_discovery.c ****                         1000);
 565:/home/paulo/Alexandria/STM32Cube_FW_F4_V1.23.0/Drivers/BSP/STM32469I-Discovery/stm32469i_discovery.c **** 
 566:/home/paulo/Alexandria/STM32Cube_FW_F4_V1.23.0/Drivers/BSP/STM32469I-Discovery/stm32469i_discovery.c ****   /* Check the communication status */
 567:/home/paulo/Alexandria/STM32Cube_FW_F4_V1.23.0/Drivers/BSP/STM32469I-Discovery/stm32469i_discovery.c ****   if(status != HAL_OK)
 568:/home/paulo/Alexandria/STM32Cube_FW_F4_V1.23.0/Drivers/BSP/STM32469I-Discovery/stm32469i_discovery.c ****   {
 569:/home/paulo/Alexandria/STM32Cube_FW_F4_V1.23.0/Drivers/BSP/STM32469I-Discovery/stm32469i_discovery.c ****     /* Execute user timeout callback */
 570:/home/paulo/Alexandria/STM32Cube_FW_F4_V1.23.0/Drivers/BSP/STM32469I-Discovery/stm32469i_discovery.c ****     I2C1_Error(Addr);
 571:/home/paulo/Alexandria/STM32Cube_FW_F4_V1.23.0/Drivers/BSP/STM32469I-Discovery/stm32469i_discovery.c ****   }
 572:/home/paulo/Alexandria/STM32Cube_FW_F4_V1.23.0/Drivers/BSP/STM32469I-Discovery/stm32469i_discovery.c ****   return Value;
 573:/home/paulo/Alexandria/STM32Cube_FW_F4_V1.23.0/Drivers/BSP/STM32469I-Discovery/stm32469i_discovery.c **** }
 574:/home/paulo/Alexandria/STM32Cube_FW_F4_V1.23.0/Drivers/BSP/STM32469I-Discovery/stm32469i_discovery.c **** 
 575:/home/paulo/Alexandria/STM32Cube_FW_F4_V1.23.0/Drivers/BSP/STM32469I-Discovery/stm32469i_discovery.c **** /**
 576:/home/paulo/Alexandria/STM32Cube_FW_F4_V1.23.0/Drivers/BSP/STM32469I-Discovery/stm32469i_discovery.c ****   * @brief  Reads multiple data.
 577:/home/paulo/Alexandria/STM32Cube_FW_F4_V1.23.0/Drivers/BSP/STM32469I-Discovery/stm32469i_discovery.c ****   * @param  Addr: I2C address
 578:/home/paulo/Alexandria/STM32Cube_FW_F4_V1.23.0/Drivers/BSP/STM32469I-Discovery/stm32469i_discovery.c ****   * @param  Reg: Reg address
 579:/home/paulo/Alexandria/STM32Cube_FW_F4_V1.23.0/Drivers/BSP/STM32469I-Discovery/stm32469i_discovery.c ****   * @param  MemAddress: memory address
 580:/home/paulo/Alexandria/STM32Cube_FW_F4_V1.23.0/Drivers/BSP/STM32469I-Discovery/stm32469i_discovery.c ****   * @param  Buffer: Pointer to data buffer
 581:/home/paulo/Alexandria/STM32Cube_FW_F4_V1.23.0/Drivers/BSP/STM32469I-Discovery/stm32469i_discovery.c ****   * @param  Length: Length of the data
 582:/home/paulo/Alexandria/STM32Cube_FW_F4_V1.23.0/Drivers/BSP/STM32469I-Discovery/stm32469i_discovery.c ****   * @retval HAL status
 583:/home/paulo/Alexandria/STM32Cube_FW_F4_V1.23.0/Drivers/BSP/STM32469I-Discovery/stm32469i_discovery.c ****   */
 584:/home/paulo/Alexandria/STM32Cube_FW_F4_V1.23.0/Drivers/BSP/STM32469I-Discovery/stm32469i_discovery.c **** static HAL_StatusTypeDef I2C1_ReadMultiple(uint8_t Addr,
 585:/home/paulo/Alexandria/STM32Cube_FW_F4_V1.23.0/Drivers/BSP/STM32469I-Discovery/stm32469i_discovery.c ****                                        uint16_t Reg,
 586:/home/paulo/Alexandria/STM32Cube_FW_F4_V1.23.0/Drivers/BSP/STM32469I-Discovery/stm32469i_discovery.c ****                                        uint16_t MemAddress,
 587:/home/paulo/Alexandria/STM32Cube_FW_F4_V1.23.0/Drivers/BSP/STM32469I-Discovery/stm32469i_discovery.c ****                                        uint8_t *Buffer,
 588:/home/paulo/Alexandria/STM32Cube_FW_F4_V1.23.0/Drivers/BSP/STM32469I-Discovery/stm32469i_discovery.c ****                                        uint16_t Length)
 589:/home/paulo/Alexandria/STM32Cube_FW_F4_V1.23.0/Drivers/BSP/STM32469I-Discovery/stm32469i_discovery.c **** {
 590:/home/paulo/Alexandria/STM32Cube_FW_F4_V1.23.0/Drivers/BSP/STM32469I-Discovery/stm32469i_discovery.c ****   HAL_StatusTypeDef status = HAL_OK;
 591:/home/paulo/Alexandria/STM32Cube_FW_F4_V1.23.0/Drivers/BSP/STM32469I-Discovery/stm32469i_discovery.c **** 
 592:/home/paulo/Alexandria/STM32Cube_FW_F4_V1.23.0/Drivers/BSP/STM32469I-Discovery/stm32469i_discovery.c ****   status = HAL_I2C_Mem_Read(&heval_I2c1,
 593:/home/paulo/Alexandria/STM32Cube_FW_F4_V1.23.0/Drivers/BSP/STM32469I-Discovery/stm32469i_discovery.c ****                         Addr,
 594:/home/paulo/Alexandria/STM32Cube_FW_F4_V1.23.0/Drivers/BSP/STM32469I-Discovery/stm32469i_discovery.c ****                         (uint16_t)Reg,
 595:/home/paulo/Alexandria/STM32Cube_FW_F4_V1.23.0/Drivers/BSP/STM32469I-Discovery/stm32469i_discovery.c ****                         MemAddress,
 596:/home/paulo/Alexandria/STM32Cube_FW_F4_V1.23.0/Drivers/BSP/STM32469I-Discovery/stm32469i_discovery.c ****                         Buffer,
 597:/home/paulo/Alexandria/STM32Cube_FW_F4_V1.23.0/Drivers/BSP/STM32469I-Discovery/stm32469i_discovery.c ****                         Length,
 598:/home/paulo/Alexandria/STM32Cube_FW_F4_V1.23.0/Drivers/BSP/STM32469I-Discovery/stm32469i_discovery.c ****                         1000);
 599:/home/paulo/Alexandria/STM32Cube_FW_F4_V1.23.0/Drivers/BSP/STM32469I-Discovery/stm32469i_discovery.c **** 
 600:/home/paulo/Alexandria/STM32Cube_FW_F4_V1.23.0/Drivers/BSP/STM32469I-Discovery/stm32469i_discovery.c ****   /* Check the communication status */
 601:/home/paulo/Alexandria/STM32Cube_FW_F4_V1.23.0/Drivers/BSP/STM32469I-Discovery/stm32469i_discovery.c ****   if(status != HAL_OK)
 602:/home/paulo/Alexandria/STM32Cube_FW_F4_V1.23.0/Drivers/BSP/STM32469I-Discovery/stm32469i_discovery.c ****   {
 603:/home/paulo/Alexandria/STM32Cube_FW_F4_V1.23.0/Drivers/BSP/STM32469I-Discovery/stm32469i_discovery.c ****     /* I2C error occured */
 604:/home/paulo/Alexandria/STM32Cube_FW_F4_V1.23.0/Drivers/BSP/STM32469I-Discovery/stm32469i_discovery.c ****     I2C1_Error(Addr);
 605:/home/paulo/Alexandria/STM32Cube_FW_F4_V1.23.0/Drivers/BSP/STM32469I-Discovery/stm32469i_discovery.c ****   }
 606:/home/paulo/Alexandria/STM32Cube_FW_F4_V1.23.0/Drivers/BSP/STM32469I-Discovery/stm32469i_discovery.c ****   return status;
 607:/home/paulo/Alexandria/STM32Cube_FW_F4_V1.23.0/Drivers/BSP/STM32469I-Discovery/stm32469i_discovery.c **** }
 608:/home/paulo/Alexandria/STM32Cube_FW_F4_V1.23.0/Drivers/BSP/STM32469I-Discovery/stm32469i_discovery.c **** 
 609:/home/paulo/Alexandria/STM32Cube_FW_F4_V1.23.0/Drivers/BSP/STM32469I-Discovery/stm32469i_discovery.c **** static HAL_StatusTypeDef I2C2_ReadMultiple(uint8_t Addr,
 610:/home/paulo/Alexandria/STM32Cube_FW_F4_V1.23.0/Drivers/BSP/STM32469I-Discovery/stm32469i_discovery.c ****                                        uint16_t Reg,
 611:/home/paulo/Alexandria/STM32Cube_FW_F4_V1.23.0/Drivers/BSP/STM32469I-Discovery/stm32469i_discovery.c ****                                        uint16_t MemAddress,
 612:/home/paulo/Alexandria/STM32Cube_FW_F4_V1.23.0/Drivers/BSP/STM32469I-Discovery/stm32469i_discovery.c ****                                        uint8_t *Buffer,
 613:/home/paulo/Alexandria/STM32Cube_FW_F4_V1.23.0/Drivers/BSP/STM32469I-Discovery/stm32469i_discovery.c ****                                        uint16_t Length)
 614:/home/paulo/Alexandria/STM32Cube_FW_F4_V1.23.0/Drivers/BSP/STM32469I-Discovery/stm32469i_discovery.c **** {
 615:/home/paulo/Alexandria/STM32Cube_FW_F4_V1.23.0/Drivers/BSP/STM32469I-Discovery/stm32469i_discovery.c ****   HAL_StatusTypeDef status = HAL_OK;
 616:/home/paulo/Alexandria/STM32Cube_FW_F4_V1.23.0/Drivers/BSP/STM32469I-Discovery/stm32469i_discovery.c **** 
 617:/home/paulo/Alexandria/STM32Cube_FW_F4_V1.23.0/Drivers/BSP/STM32469I-Discovery/stm32469i_discovery.c ****   status = HAL_I2C_Mem_Read(&heval_I2c2,
 618:/home/paulo/Alexandria/STM32Cube_FW_F4_V1.23.0/Drivers/BSP/STM32469I-Discovery/stm32469i_discovery.c ****                         Addr,
 619:/home/paulo/Alexandria/STM32Cube_FW_F4_V1.23.0/Drivers/BSP/STM32469I-Discovery/stm32469i_discovery.c ****                         (uint16_t)Reg,
 620:/home/paulo/Alexandria/STM32Cube_FW_F4_V1.23.0/Drivers/BSP/STM32469I-Discovery/stm32469i_discovery.c ****                         MemAddress,
ARM GAS  /tmp/cc7YGL8m.s 			page 21


 621:/home/paulo/Alexandria/STM32Cube_FW_F4_V1.23.0/Drivers/BSP/STM32469I-Discovery/stm32469i_discovery.c ****                         Buffer,
 622:/home/paulo/Alexandria/STM32Cube_FW_F4_V1.23.0/Drivers/BSP/STM32469I-Discovery/stm32469i_discovery.c ****                         Length,
 623:/home/paulo/Alexandria/STM32Cube_FW_F4_V1.23.0/Drivers/BSP/STM32469I-Discovery/stm32469i_discovery.c ****                         1000);
 624:/home/paulo/Alexandria/STM32Cube_FW_F4_V1.23.0/Drivers/BSP/STM32469I-Discovery/stm32469i_discovery.c **** 
 625:/home/paulo/Alexandria/STM32Cube_FW_F4_V1.23.0/Drivers/BSP/STM32469I-Discovery/stm32469i_discovery.c ****   /* Check the communication status */
 626:/home/paulo/Alexandria/STM32Cube_FW_F4_V1.23.0/Drivers/BSP/STM32469I-Discovery/stm32469i_discovery.c ****   if(status != HAL_OK)
 627:/home/paulo/Alexandria/STM32Cube_FW_F4_V1.23.0/Drivers/BSP/STM32469I-Discovery/stm32469i_discovery.c ****   {
 628:/home/paulo/Alexandria/STM32Cube_FW_F4_V1.23.0/Drivers/BSP/STM32469I-Discovery/stm32469i_discovery.c ****     /* I2C2 error occured */
 629:/home/paulo/Alexandria/STM32Cube_FW_F4_V1.23.0/Drivers/BSP/STM32469I-Discovery/stm32469i_discovery.c ****     I2C2_Error(Addr);
 630:/home/paulo/Alexandria/STM32Cube_FW_F4_V1.23.0/Drivers/BSP/STM32469I-Discovery/stm32469i_discovery.c ****   }
 631:/home/paulo/Alexandria/STM32Cube_FW_F4_V1.23.0/Drivers/BSP/STM32469I-Discovery/stm32469i_discovery.c ****   return status;
 632:/home/paulo/Alexandria/STM32Cube_FW_F4_V1.23.0/Drivers/BSP/STM32469I-Discovery/stm32469i_discovery.c **** }
 633:/home/paulo/Alexandria/STM32Cube_FW_F4_V1.23.0/Drivers/BSP/STM32469I-Discovery/stm32469i_discovery.c **** 
 634:/home/paulo/Alexandria/STM32Cube_FW_F4_V1.23.0/Drivers/BSP/STM32469I-Discovery/stm32469i_discovery.c **** /**
 635:/home/paulo/Alexandria/STM32Cube_FW_F4_V1.23.0/Drivers/BSP/STM32469I-Discovery/stm32469i_discovery.c ****   * @brief  Writes a value in a register of the device through BUS in using DMA mode.
 636:/home/paulo/Alexandria/STM32Cube_FW_F4_V1.23.0/Drivers/BSP/STM32469I-Discovery/stm32469i_discovery.c ****   * @param  Addr: Device address on BUS Bus.
 637:/home/paulo/Alexandria/STM32Cube_FW_F4_V1.23.0/Drivers/BSP/STM32469I-Discovery/stm32469i_discovery.c ****   * @param  Reg: The target register address to write
 638:/home/paulo/Alexandria/STM32Cube_FW_F4_V1.23.0/Drivers/BSP/STM32469I-Discovery/stm32469i_discovery.c ****   * @param  MemAddress: memory address
 639:/home/paulo/Alexandria/STM32Cube_FW_F4_V1.23.0/Drivers/BSP/STM32469I-Discovery/stm32469i_discovery.c ****   * @param  Buffer: The target register value to be written
 640:/home/paulo/Alexandria/STM32Cube_FW_F4_V1.23.0/Drivers/BSP/STM32469I-Discovery/stm32469i_discovery.c ****   * @param  Length: buffer size to be written
 641:/home/paulo/Alexandria/STM32Cube_FW_F4_V1.23.0/Drivers/BSP/STM32469I-Discovery/stm32469i_discovery.c ****   * @retval HAL status
 642:/home/paulo/Alexandria/STM32Cube_FW_F4_V1.23.0/Drivers/BSP/STM32469I-Discovery/stm32469i_discovery.c ****   */
 643:/home/paulo/Alexandria/STM32Cube_FW_F4_V1.23.0/Drivers/BSP/STM32469I-Discovery/stm32469i_discovery.c **** static HAL_StatusTypeDef I2C1_WriteMultiple(uint8_t Addr,
 644:/home/paulo/Alexandria/STM32Cube_FW_F4_V1.23.0/Drivers/BSP/STM32469I-Discovery/stm32469i_discovery.c ****                                         uint16_t Reg,
 645:/home/paulo/Alexandria/STM32Cube_FW_F4_V1.23.0/Drivers/BSP/STM32469I-Discovery/stm32469i_discovery.c ****                                         uint16_t MemAddress,
 646:/home/paulo/Alexandria/STM32Cube_FW_F4_V1.23.0/Drivers/BSP/STM32469I-Discovery/stm32469i_discovery.c ****                                         uint8_t *Buffer,
 647:/home/paulo/Alexandria/STM32Cube_FW_F4_V1.23.0/Drivers/BSP/STM32469I-Discovery/stm32469i_discovery.c ****                                         uint16_t Length)
 648:/home/paulo/Alexandria/STM32Cube_FW_F4_V1.23.0/Drivers/BSP/STM32469I-Discovery/stm32469i_discovery.c **** {
 649:/home/paulo/Alexandria/STM32Cube_FW_F4_V1.23.0/Drivers/BSP/STM32469I-Discovery/stm32469i_discovery.c ****   HAL_StatusTypeDef status = HAL_OK;
 650:/home/paulo/Alexandria/STM32Cube_FW_F4_V1.23.0/Drivers/BSP/STM32469I-Discovery/stm32469i_discovery.c **** 
 651:/home/paulo/Alexandria/STM32Cube_FW_F4_V1.23.0/Drivers/BSP/STM32469I-Discovery/stm32469i_discovery.c ****   status = HAL_I2C_Mem_Write(&heval_I2c1,
 652:/home/paulo/Alexandria/STM32Cube_FW_F4_V1.23.0/Drivers/BSP/STM32469I-Discovery/stm32469i_discovery.c ****                          Addr,
 653:/home/paulo/Alexandria/STM32Cube_FW_F4_V1.23.0/Drivers/BSP/STM32469I-Discovery/stm32469i_discovery.c ****                          (uint16_t)Reg,
 654:/home/paulo/Alexandria/STM32Cube_FW_F4_V1.23.0/Drivers/BSP/STM32469I-Discovery/stm32469i_discovery.c ****                          MemAddress,
 655:/home/paulo/Alexandria/STM32Cube_FW_F4_V1.23.0/Drivers/BSP/STM32469I-Discovery/stm32469i_discovery.c ****                          Buffer,
 656:/home/paulo/Alexandria/STM32Cube_FW_F4_V1.23.0/Drivers/BSP/STM32469I-Discovery/stm32469i_discovery.c ****                          Length,
 657:/home/paulo/Alexandria/STM32Cube_FW_F4_V1.23.0/Drivers/BSP/STM32469I-Discovery/stm32469i_discovery.c ****                          1000);
 658:/home/paulo/Alexandria/STM32Cube_FW_F4_V1.23.0/Drivers/BSP/STM32469I-Discovery/stm32469i_discovery.c **** 
 659:/home/paulo/Alexandria/STM32Cube_FW_F4_V1.23.0/Drivers/BSP/STM32469I-Discovery/stm32469i_discovery.c ****   /* Check the communication status */
 660:/home/paulo/Alexandria/STM32Cube_FW_F4_V1.23.0/Drivers/BSP/STM32469I-Discovery/stm32469i_discovery.c ****   if(status != HAL_OK)
 661:/home/paulo/Alexandria/STM32Cube_FW_F4_V1.23.0/Drivers/BSP/STM32469I-Discovery/stm32469i_discovery.c ****   {
 662:/home/paulo/Alexandria/STM32Cube_FW_F4_V1.23.0/Drivers/BSP/STM32469I-Discovery/stm32469i_discovery.c ****     /* Re-Initiaize the I2C Bus */
 663:/home/paulo/Alexandria/STM32Cube_FW_F4_V1.23.0/Drivers/BSP/STM32469I-Discovery/stm32469i_discovery.c ****     I2C1_Error(Addr);
 664:/home/paulo/Alexandria/STM32Cube_FW_F4_V1.23.0/Drivers/BSP/STM32469I-Discovery/stm32469i_discovery.c ****   }
 665:/home/paulo/Alexandria/STM32Cube_FW_F4_V1.23.0/Drivers/BSP/STM32469I-Discovery/stm32469i_discovery.c ****   return status;
 666:/home/paulo/Alexandria/STM32Cube_FW_F4_V1.23.0/Drivers/BSP/STM32469I-Discovery/stm32469i_discovery.c **** }
 667:/home/paulo/Alexandria/STM32Cube_FW_F4_V1.23.0/Drivers/BSP/STM32469I-Discovery/stm32469i_discovery.c **** 
 668:/home/paulo/Alexandria/STM32Cube_FW_F4_V1.23.0/Drivers/BSP/STM32469I-Discovery/stm32469i_discovery.c **** static HAL_StatusTypeDef I2C2_WriteMultiple(uint8_t Addr,
 669:/home/paulo/Alexandria/STM32Cube_FW_F4_V1.23.0/Drivers/BSP/STM32469I-Discovery/stm32469i_discovery.c ****                                         uint16_t Reg,
 670:/home/paulo/Alexandria/STM32Cube_FW_F4_V1.23.0/Drivers/BSP/STM32469I-Discovery/stm32469i_discovery.c ****                                         uint16_t MemAddress,
 671:/home/paulo/Alexandria/STM32Cube_FW_F4_V1.23.0/Drivers/BSP/STM32469I-Discovery/stm32469i_discovery.c ****                                         uint8_t *Buffer,
 672:/home/paulo/Alexandria/STM32Cube_FW_F4_V1.23.0/Drivers/BSP/STM32469I-Discovery/stm32469i_discovery.c ****                                         uint16_t Length)
 673:/home/paulo/Alexandria/STM32Cube_FW_F4_V1.23.0/Drivers/BSP/STM32469I-Discovery/stm32469i_discovery.c **** {
 674:/home/paulo/Alexandria/STM32Cube_FW_F4_V1.23.0/Drivers/BSP/STM32469I-Discovery/stm32469i_discovery.c ****   HAL_StatusTypeDef status = HAL_OK;
 675:/home/paulo/Alexandria/STM32Cube_FW_F4_V1.23.0/Drivers/BSP/STM32469I-Discovery/stm32469i_discovery.c **** 
 676:/home/paulo/Alexandria/STM32Cube_FW_F4_V1.23.0/Drivers/BSP/STM32469I-Discovery/stm32469i_discovery.c ****   status = HAL_I2C_Mem_Write(&heval_I2c2,
 677:/home/paulo/Alexandria/STM32Cube_FW_F4_V1.23.0/Drivers/BSP/STM32469I-Discovery/stm32469i_discovery.c ****                          Addr,
ARM GAS  /tmp/cc7YGL8m.s 			page 22


 678:/home/paulo/Alexandria/STM32Cube_FW_F4_V1.23.0/Drivers/BSP/STM32469I-Discovery/stm32469i_discovery.c ****                          (uint16_t)Reg,
 679:/home/paulo/Alexandria/STM32Cube_FW_F4_V1.23.0/Drivers/BSP/STM32469I-Discovery/stm32469i_discovery.c ****                          MemAddress,
 680:/home/paulo/Alexandria/STM32Cube_FW_F4_V1.23.0/Drivers/BSP/STM32469I-Discovery/stm32469i_discovery.c ****                          Buffer,
 681:/home/paulo/Alexandria/STM32Cube_FW_F4_V1.23.0/Drivers/BSP/STM32469I-Discovery/stm32469i_discovery.c ****                          Length,
 682:/home/paulo/Alexandria/STM32Cube_FW_F4_V1.23.0/Drivers/BSP/STM32469I-Discovery/stm32469i_discovery.c ****                          1000);
 683:/home/paulo/Alexandria/STM32Cube_FW_F4_V1.23.0/Drivers/BSP/STM32469I-Discovery/stm32469i_discovery.c **** 
 684:/home/paulo/Alexandria/STM32Cube_FW_F4_V1.23.0/Drivers/BSP/STM32469I-Discovery/stm32469i_discovery.c ****   /* Check the communication status */
 685:/home/paulo/Alexandria/STM32Cube_FW_F4_V1.23.0/Drivers/BSP/STM32469I-Discovery/stm32469i_discovery.c ****   if(status != HAL_OK)
 686:/home/paulo/Alexandria/STM32Cube_FW_F4_V1.23.0/Drivers/BSP/STM32469I-Discovery/stm32469i_discovery.c ****   {
 687:/home/paulo/Alexandria/STM32Cube_FW_F4_V1.23.0/Drivers/BSP/STM32469I-Discovery/stm32469i_discovery.c ****     /* Re-Initiaize the I2C2 Bus */
 688:/home/paulo/Alexandria/STM32Cube_FW_F4_V1.23.0/Drivers/BSP/STM32469I-Discovery/stm32469i_discovery.c ****     I2C2_Error(Addr);
 689:/home/paulo/Alexandria/STM32Cube_FW_F4_V1.23.0/Drivers/BSP/STM32469I-Discovery/stm32469i_discovery.c ****   }
 690:/home/paulo/Alexandria/STM32Cube_FW_F4_V1.23.0/Drivers/BSP/STM32469I-Discovery/stm32469i_discovery.c ****   return status;
 691:/home/paulo/Alexandria/STM32Cube_FW_F4_V1.23.0/Drivers/BSP/STM32469I-Discovery/stm32469i_discovery.c **** }
 692:/home/paulo/Alexandria/STM32Cube_FW_F4_V1.23.0/Drivers/BSP/STM32469I-Discovery/stm32469i_discovery.c **** 
 693:/home/paulo/Alexandria/STM32Cube_FW_F4_V1.23.0/Drivers/BSP/STM32469I-Discovery/stm32469i_discovery.c **** /**
 694:/home/paulo/Alexandria/STM32Cube_FW_F4_V1.23.0/Drivers/BSP/STM32469I-Discovery/stm32469i_discovery.c ****   * @brief  Checks if target device is ready for communication.
 695:/home/paulo/Alexandria/STM32Cube_FW_F4_V1.23.0/Drivers/BSP/STM32469I-Discovery/stm32469i_discovery.c ****   * @note   This function is used with Memory devices
 696:/home/paulo/Alexandria/STM32Cube_FW_F4_V1.23.0/Drivers/BSP/STM32469I-Discovery/stm32469i_discovery.c ****   * @param  DevAddress: Target device address
 697:/home/paulo/Alexandria/STM32Cube_FW_F4_V1.23.0/Drivers/BSP/STM32469I-Discovery/stm32469i_discovery.c ****   * @param  Trials: Number of trials
 698:/home/paulo/Alexandria/STM32Cube_FW_F4_V1.23.0/Drivers/BSP/STM32469I-Discovery/stm32469i_discovery.c ****   * @retval HAL status
 699:/home/paulo/Alexandria/STM32Cube_FW_F4_V1.23.0/Drivers/BSP/STM32469I-Discovery/stm32469i_discovery.c ****   */
 700:/home/paulo/Alexandria/STM32Cube_FW_F4_V1.23.0/Drivers/BSP/STM32469I-Discovery/stm32469i_discovery.c **** static HAL_StatusTypeDef I2C1_IsDeviceReady(uint16_t DevAddress, uint32_t Trials)
 701:/home/paulo/Alexandria/STM32Cube_FW_F4_V1.23.0/Drivers/BSP/STM32469I-Discovery/stm32469i_discovery.c **** {
 702:/home/paulo/Alexandria/STM32Cube_FW_F4_V1.23.0/Drivers/BSP/STM32469I-Discovery/stm32469i_discovery.c ****   return (HAL_I2C_IsDeviceReady(&heval_I2c1, DevAddress, Trials, 1000));
 703:/home/paulo/Alexandria/STM32Cube_FW_F4_V1.23.0/Drivers/BSP/STM32469I-Discovery/stm32469i_discovery.c **** }
 704:/home/paulo/Alexandria/STM32Cube_FW_F4_V1.23.0/Drivers/BSP/STM32469I-Discovery/stm32469i_discovery.c **** 
 705:/home/paulo/Alexandria/STM32Cube_FW_F4_V1.23.0/Drivers/BSP/STM32469I-Discovery/stm32469i_discovery.c **** /**
 706:/home/paulo/Alexandria/STM32Cube_FW_F4_V1.23.0/Drivers/BSP/STM32469I-Discovery/stm32469i_discovery.c ****   * @brief  Manages error callback by re-initializing I2C.
 707:/home/paulo/Alexandria/STM32Cube_FW_F4_V1.23.0/Drivers/BSP/STM32469I-Discovery/stm32469i_discovery.c ****   * @param  Addr: I2C Address
 708:/home/paulo/Alexandria/STM32Cube_FW_F4_V1.23.0/Drivers/BSP/STM32469I-Discovery/stm32469i_discovery.c ****   */
 709:/home/paulo/Alexandria/STM32Cube_FW_F4_V1.23.0/Drivers/BSP/STM32469I-Discovery/stm32469i_discovery.c **** static void I2C1_Error(uint8_t Addr)
 710:/home/paulo/Alexandria/STM32Cube_FW_F4_V1.23.0/Drivers/BSP/STM32469I-Discovery/stm32469i_discovery.c **** {
 711:/home/paulo/Alexandria/STM32Cube_FW_F4_V1.23.0/Drivers/BSP/STM32469I-Discovery/stm32469i_discovery.c ****   /* De-initialize the I2C comunication bus */
 712:/home/paulo/Alexandria/STM32Cube_FW_F4_V1.23.0/Drivers/BSP/STM32469I-Discovery/stm32469i_discovery.c ****   HAL_I2C_DeInit(&heval_I2c1);
 713:/home/paulo/Alexandria/STM32Cube_FW_F4_V1.23.0/Drivers/BSP/STM32469I-Discovery/stm32469i_discovery.c **** 
 714:/home/paulo/Alexandria/STM32Cube_FW_F4_V1.23.0/Drivers/BSP/STM32469I-Discovery/stm32469i_discovery.c ****   /* Re-Initiaize the I2C comunication bus */
 715:/home/paulo/Alexandria/STM32Cube_FW_F4_V1.23.0/Drivers/BSP/STM32469I-Discovery/stm32469i_discovery.c ****   I2C1_Init();
 716:/home/paulo/Alexandria/STM32Cube_FW_F4_V1.23.0/Drivers/BSP/STM32469I-Discovery/stm32469i_discovery.c **** }
 717:/home/paulo/Alexandria/STM32Cube_FW_F4_V1.23.0/Drivers/BSP/STM32469I-Discovery/stm32469i_discovery.c **** 
 718:/home/paulo/Alexandria/STM32Cube_FW_F4_V1.23.0/Drivers/BSP/STM32469I-Discovery/stm32469i_discovery.c **** static void I2C2_Error(uint8_t Addr)
 719:/home/paulo/Alexandria/STM32Cube_FW_F4_V1.23.0/Drivers/BSP/STM32469I-Discovery/stm32469i_discovery.c **** {
 451              		.loc 1 719 1 is_stmt 1 view -0
 452              		.cfi_startproc
 453              		@ args = 0, pretend = 0, frame = 0
 454              		@ frame_needed = 0, uses_anonymous_args = 0
 455              		.loc 1 719 1 is_stmt 0 view .LVU119
 456 0000 08B5     		push	{r3, lr}
 457              	.LCFI8:
 458              		.cfi_def_cfa_offset 8
 459              		.cfi_offset 3, -8
 460              		.cfi_offset 14, -4
 720:/home/paulo/Alexandria/STM32Cube_FW_F4_V1.23.0/Drivers/BSP/STM32469I-Discovery/stm32469i_discovery.c ****   /* De-initialize the I2C2 comunication bus */
 721:/home/paulo/Alexandria/STM32Cube_FW_F4_V1.23.0/Drivers/BSP/STM32469I-Discovery/stm32469i_discovery.c ****   HAL_I2C_DeInit(&heval_I2c2);
 461              		.loc 1 721 3 is_stmt 1 view .LVU120
 462 0002 0348     		ldr	r0, .L23
 463              	.LVL19:
ARM GAS  /tmp/cc7YGL8m.s 			page 23


 464              		.loc 1 721 3 is_stmt 0 view .LVU121
 465 0004 FFF7FEFF 		bl	HAL_I2C_DeInit
 466              	.LVL20:
 722:/home/paulo/Alexandria/STM32Cube_FW_F4_V1.23.0/Drivers/BSP/STM32469I-Discovery/stm32469i_discovery.c **** 
 723:/home/paulo/Alexandria/STM32Cube_FW_F4_V1.23.0/Drivers/BSP/STM32469I-Discovery/stm32469i_discovery.c ****   /* Re-Initiaize the I2C2 comunication bus */
 724:/home/paulo/Alexandria/STM32Cube_FW_F4_V1.23.0/Drivers/BSP/STM32469I-Discovery/stm32469i_discovery.c ****   I2C2_Init();
 467              		.loc 1 724 3 is_stmt 1 view .LVU122
 468 0008 FFF7FEFF 		bl	I2C2_Init
 469              	.LVL21:
 725:/home/paulo/Alexandria/STM32Cube_FW_F4_V1.23.0/Drivers/BSP/STM32469I-Discovery/stm32469i_discovery.c **** }
 470              		.loc 1 725 1 is_stmt 0 view .LVU123
 471 000c 08BD     		pop	{r3, pc}
 472              	.L24:
 473 000e 00BF     		.align	2
 474              	.L23:
 475 0010 00000000 		.word	.LANCHOR0
 476              		.cfi_endproc
 477              	.LFE147:
 479              		.section	.text.I2C2_WriteMultiple,"ax",%progbits
 480              		.align	1
 481              		.syntax unified
 482              		.thumb
 483              		.thumb_func
 484              		.fpu fpv4-sp-d16
 486              	I2C2_WriteMultiple:
 487              	.LVL22:
 488              	.LFB144:
 673:/home/paulo/Alexandria/STM32Cube_FW_F4_V1.23.0/Drivers/BSP/STM32469I-Discovery/stm32469i_discovery.c ****   HAL_StatusTypeDef status = HAL_OK;
 489              		.loc 1 673 1 is_stmt 1 view -0
 490              		.cfi_startproc
 491              		@ args = 4, pretend = 0, frame = 0
 492              		@ frame_needed = 0, uses_anonymous_args = 0
 673:/home/paulo/Alexandria/STM32Cube_FW_F4_V1.23.0/Drivers/BSP/STM32469I-Discovery/stm32469i_discovery.c ****   HAL_StatusTypeDef status = HAL_OK;
 493              		.loc 1 673 1 is_stmt 0 view .LVU125
 494 0000 30B5     		push	{r4, r5, lr}
 495              	.LCFI9:
 496              		.cfi_def_cfa_offset 12
 497              		.cfi_offset 4, -12
 498              		.cfi_offset 5, -8
 499              		.cfi_offset 14, -4
 500 0002 85B0     		sub	sp, sp, #20
 501              	.LCFI10:
 502              		.cfi_def_cfa_offset 32
 503 0004 0446     		mov	r4, r0
 674:/home/paulo/Alexandria/STM32Cube_FW_F4_V1.23.0/Drivers/BSP/STM32469I-Discovery/stm32469i_discovery.c **** 
 504              		.loc 1 674 3 is_stmt 1 view .LVU126
 505              	.LVL23:
 676:/home/paulo/Alexandria/STM32Cube_FW_F4_V1.23.0/Drivers/BSP/STM32469I-Discovery/stm32469i_discovery.c ****                          Addr,
 506              		.loc 1 676 3 view .LVU127
 676:/home/paulo/Alexandria/STM32Cube_FW_F4_V1.23.0/Drivers/BSP/STM32469I-Discovery/stm32469i_discovery.c ****                          Addr,
 507              		.loc 1 676 12 is_stmt 0 view .LVU128
 508 0006 4FF47A70 		mov	r0, #1000
 509              	.LVL24:
 676:/home/paulo/Alexandria/STM32Cube_FW_F4_V1.23.0/Drivers/BSP/STM32469I-Discovery/stm32469i_discovery.c ****                          Addr,
 510              		.loc 1 676 12 view .LVU129
 511 000a 0290     		str	r0, [sp, #8]
 512 000c BDF82000 		ldrh	r0, [sp, #32]
ARM GAS  /tmp/cc7YGL8m.s 			page 24


 513 0010 0190     		str	r0, [sp, #4]
 514 0012 0093     		str	r3, [sp]
 515 0014 1346     		mov	r3, r2
 516              	.LVL25:
 676:/home/paulo/Alexandria/STM32Cube_FW_F4_V1.23.0/Drivers/BSP/STM32469I-Discovery/stm32469i_discovery.c ****                          Addr,
 517              		.loc 1 676 12 view .LVU130
 518 0016 0A46     		mov	r2, r1
 519              	.LVL26:
 676:/home/paulo/Alexandria/STM32Cube_FW_F4_V1.23.0/Drivers/BSP/STM32469I-Discovery/stm32469i_discovery.c ****                          Addr,
 520              		.loc 1 676 12 view .LVU131
 521 0018 2146     		mov	r1, r4
 522              	.LVL27:
 676:/home/paulo/Alexandria/STM32Cube_FW_F4_V1.23.0/Drivers/BSP/STM32469I-Discovery/stm32469i_discovery.c ****                          Addr,
 523              		.loc 1 676 12 view .LVU132
 524 001a 0648     		ldr	r0, .L29
 525 001c FFF7FEFF 		bl	HAL_I2C_Mem_Write
 526              	.LVL28:
 685:/home/paulo/Alexandria/STM32Cube_FW_F4_V1.23.0/Drivers/BSP/STM32469I-Discovery/stm32469i_discovery.c ****   {
 527              		.loc 1 685 3 is_stmt 1 view .LVU133
 685:/home/paulo/Alexandria/STM32Cube_FW_F4_V1.23.0/Drivers/BSP/STM32469I-Discovery/stm32469i_discovery.c ****   {
 528              		.loc 1 685 5 is_stmt 0 view .LVU134
 529 0020 0546     		mov	r5, r0
 530 0022 10B9     		cbnz	r0, .L28
 531              	.LVL29:
 532              	.L26:
 690:/home/paulo/Alexandria/STM32Cube_FW_F4_V1.23.0/Drivers/BSP/STM32469I-Discovery/stm32469i_discovery.c **** }
 533              		.loc 1 690 3 is_stmt 1 view .LVU135
 691:/home/paulo/Alexandria/STM32Cube_FW_F4_V1.23.0/Drivers/BSP/STM32469I-Discovery/stm32469i_discovery.c **** 
 534              		.loc 1 691 1 is_stmt 0 view .LVU136
 535 0024 2846     		mov	r0, r5
 536 0026 05B0     		add	sp, sp, #20
 537              	.LCFI11:
 538              		.cfi_remember_state
 539              		.cfi_def_cfa_offset 12
 540              		@ sp needed
 541 0028 30BD     		pop	{r4, r5, pc}
 542              	.LVL30:
 543              	.L28:
 544              	.LCFI12:
 545              		.cfi_restore_state
 688:/home/paulo/Alexandria/STM32Cube_FW_F4_V1.23.0/Drivers/BSP/STM32469I-Discovery/stm32469i_discovery.c ****   }
 546              		.loc 1 688 5 is_stmt 1 view .LVU137
 547 002a 2046     		mov	r0, r4
 548              	.LVL31:
 688:/home/paulo/Alexandria/STM32Cube_FW_F4_V1.23.0/Drivers/BSP/STM32469I-Discovery/stm32469i_discovery.c ****   }
 549              		.loc 1 688 5 is_stmt 0 view .LVU138
 550 002c FFF7FEFF 		bl	I2C2_Error
 551              	.LVL32:
 552 0030 F8E7     		b	.L26
 553              	.L30:
 554 0032 00BF     		.align	2
 555              	.L29:
 556 0034 00000000 		.word	.LANCHOR0
 557              		.cfi_endproc
 558              	.LFE144:
 560              		.section	.text.I2C1_Error,"ax",%progbits
 561              		.align	1
ARM GAS  /tmp/cc7YGL8m.s 			page 25


 562              		.syntax unified
 563              		.thumb
 564              		.thumb_func
 565              		.fpu fpv4-sp-d16
 567              	I2C1_Error:
 568              	.LVL33:
 569              	.LFB146:
 710:/home/paulo/Alexandria/STM32Cube_FW_F4_V1.23.0/Drivers/BSP/STM32469I-Discovery/stm32469i_discovery.c ****   /* De-initialize the I2C comunication bus */
 570              		.loc 1 710 1 is_stmt 1 view -0
 571              		.cfi_startproc
 572              		@ args = 0, pretend = 0, frame = 0
 573              		@ frame_needed = 0, uses_anonymous_args = 0
 710:/home/paulo/Alexandria/STM32Cube_FW_F4_V1.23.0/Drivers/BSP/STM32469I-Discovery/stm32469i_discovery.c ****   /* De-initialize the I2C comunication bus */
 574              		.loc 1 710 1 is_stmt 0 view .LVU140
 575 0000 08B5     		push	{r3, lr}
 576              	.LCFI13:
 577              		.cfi_def_cfa_offset 8
 578              		.cfi_offset 3, -8
 579              		.cfi_offset 14, -4
 712:/home/paulo/Alexandria/STM32Cube_FW_F4_V1.23.0/Drivers/BSP/STM32469I-Discovery/stm32469i_discovery.c **** 
 580              		.loc 1 712 3 is_stmt 1 view .LVU141
 581 0002 0348     		ldr	r0, .L33
 582              	.LVL34:
 712:/home/paulo/Alexandria/STM32Cube_FW_F4_V1.23.0/Drivers/BSP/STM32469I-Discovery/stm32469i_discovery.c **** 
 583              		.loc 1 712 3 is_stmt 0 view .LVU142
 584 0004 FFF7FEFF 		bl	HAL_I2C_DeInit
 585              	.LVL35:
 715:/home/paulo/Alexandria/STM32Cube_FW_F4_V1.23.0/Drivers/BSP/STM32469I-Discovery/stm32469i_discovery.c **** }
 586              		.loc 1 715 3 is_stmt 1 view .LVU143
 587 0008 FFF7FEFF 		bl	I2C1_Init
 588              	.LVL36:
 716:/home/paulo/Alexandria/STM32Cube_FW_F4_V1.23.0/Drivers/BSP/STM32469I-Discovery/stm32469i_discovery.c **** 
 589              		.loc 1 716 1 is_stmt 0 view .LVU144
 590 000c 08BD     		pop	{r3, pc}
 591              	.L34:
 592 000e 00BF     		.align	2
 593              	.L33:
 594 0010 00000000 		.word	.LANCHOR1
 595              		.cfi_endproc
 596              	.LFE146:
 598              		.section	.text.I2C1_WriteMultiple,"ax",%progbits
 599              		.align	1
 600              		.syntax unified
 601              		.thumb
 602              		.thumb_func
 603              		.fpu fpv4-sp-d16
 605              	I2C1_WriteMultiple:
 606              	.LVL37:
 607              	.LFB143:
 648:/home/paulo/Alexandria/STM32Cube_FW_F4_V1.23.0/Drivers/BSP/STM32469I-Discovery/stm32469i_discovery.c ****   HAL_StatusTypeDef status = HAL_OK;
 608              		.loc 1 648 1 is_stmt 1 view -0
 609              		.cfi_startproc
 610              		@ args = 4, pretend = 0, frame = 0
 611              		@ frame_needed = 0, uses_anonymous_args = 0
 648:/home/paulo/Alexandria/STM32Cube_FW_F4_V1.23.0/Drivers/BSP/STM32469I-Discovery/stm32469i_discovery.c ****   HAL_StatusTypeDef status = HAL_OK;
 612              		.loc 1 648 1 is_stmt 0 view .LVU146
 613 0000 30B5     		push	{r4, r5, lr}
ARM GAS  /tmp/cc7YGL8m.s 			page 26


 614              	.LCFI14:
 615              		.cfi_def_cfa_offset 12
 616              		.cfi_offset 4, -12
 617              		.cfi_offset 5, -8
 618              		.cfi_offset 14, -4
 619 0002 85B0     		sub	sp, sp, #20
 620              	.LCFI15:
 621              		.cfi_def_cfa_offset 32
 622 0004 0446     		mov	r4, r0
 649:/home/paulo/Alexandria/STM32Cube_FW_F4_V1.23.0/Drivers/BSP/STM32469I-Discovery/stm32469i_discovery.c **** 
 623              		.loc 1 649 3 is_stmt 1 view .LVU147
 624              	.LVL38:
 651:/home/paulo/Alexandria/STM32Cube_FW_F4_V1.23.0/Drivers/BSP/STM32469I-Discovery/stm32469i_discovery.c ****                          Addr,
 625              		.loc 1 651 3 view .LVU148
 651:/home/paulo/Alexandria/STM32Cube_FW_F4_V1.23.0/Drivers/BSP/STM32469I-Discovery/stm32469i_discovery.c ****                          Addr,
 626              		.loc 1 651 12 is_stmt 0 view .LVU149
 627 0006 4FF47A70 		mov	r0, #1000
 628              	.LVL39:
 651:/home/paulo/Alexandria/STM32Cube_FW_F4_V1.23.0/Drivers/BSP/STM32469I-Discovery/stm32469i_discovery.c ****                          Addr,
 629              		.loc 1 651 12 view .LVU150
 630 000a 0290     		str	r0, [sp, #8]
 631 000c BDF82000 		ldrh	r0, [sp, #32]
 632 0010 0190     		str	r0, [sp, #4]
 633 0012 0093     		str	r3, [sp]
 634 0014 1346     		mov	r3, r2
 635              	.LVL40:
 651:/home/paulo/Alexandria/STM32Cube_FW_F4_V1.23.0/Drivers/BSP/STM32469I-Discovery/stm32469i_discovery.c ****                          Addr,
 636              		.loc 1 651 12 view .LVU151
 637 0016 0A46     		mov	r2, r1
 638              	.LVL41:
 651:/home/paulo/Alexandria/STM32Cube_FW_F4_V1.23.0/Drivers/BSP/STM32469I-Discovery/stm32469i_discovery.c ****                          Addr,
 639              		.loc 1 651 12 view .LVU152
 640 0018 2146     		mov	r1, r4
 641              	.LVL42:
 651:/home/paulo/Alexandria/STM32Cube_FW_F4_V1.23.0/Drivers/BSP/STM32469I-Discovery/stm32469i_discovery.c ****                          Addr,
 642              		.loc 1 651 12 view .LVU153
 643 001a 0648     		ldr	r0, .L39
 644 001c FFF7FEFF 		bl	HAL_I2C_Mem_Write
 645              	.LVL43:
 660:/home/paulo/Alexandria/STM32Cube_FW_F4_V1.23.0/Drivers/BSP/STM32469I-Discovery/stm32469i_discovery.c ****   {
 646              		.loc 1 660 3 is_stmt 1 view .LVU154
 660:/home/paulo/Alexandria/STM32Cube_FW_F4_V1.23.0/Drivers/BSP/STM32469I-Discovery/stm32469i_discovery.c ****   {
 647              		.loc 1 660 5 is_stmt 0 view .LVU155
 648 0020 0546     		mov	r5, r0
 649 0022 10B9     		cbnz	r0, .L38
 650              	.LVL44:
 651              	.L36:
 665:/home/paulo/Alexandria/STM32Cube_FW_F4_V1.23.0/Drivers/BSP/STM32469I-Discovery/stm32469i_discovery.c **** }
 652              		.loc 1 665 3 is_stmt 1 view .LVU156
 666:/home/paulo/Alexandria/STM32Cube_FW_F4_V1.23.0/Drivers/BSP/STM32469I-Discovery/stm32469i_discovery.c **** 
 653              		.loc 1 666 1 is_stmt 0 view .LVU157
 654 0024 2846     		mov	r0, r5
 655 0026 05B0     		add	sp, sp, #20
 656              	.LCFI16:
 657              		.cfi_remember_state
 658              		.cfi_def_cfa_offset 12
 659              		@ sp needed
ARM GAS  /tmp/cc7YGL8m.s 			page 27


 660 0028 30BD     		pop	{r4, r5, pc}
 661              	.LVL45:
 662              	.L38:
 663              	.LCFI17:
 664              		.cfi_restore_state
 663:/home/paulo/Alexandria/STM32Cube_FW_F4_V1.23.0/Drivers/BSP/STM32469I-Discovery/stm32469i_discovery.c ****   }
 665              		.loc 1 663 5 is_stmt 1 view .LVU158
 666 002a 2046     		mov	r0, r4
 667              	.LVL46:
 663:/home/paulo/Alexandria/STM32Cube_FW_F4_V1.23.0/Drivers/BSP/STM32469I-Discovery/stm32469i_discovery.c ****   }
 668              		.loc 1 663 5 is_stmt 0 view .LVU159
 669 002c FFF7FEFF 		bl	I2C1_Error
 670              	.LVL47:
 671 0030 F8E7     		b	.L36
 672              	.L40:
 673 0032 00BF     		.align	2
 674              	.L39:
 675 0034 00000000 		.word	.LANCHOR1
 676              		.cfi_endproc
 677              	.LFE143:
 679              		.section	.text.I2C1_Write,"ax",%progbits
 680              		.align	1
 681              		.syntax unified
 682              		.thumb
 683              		.thumb_func
 684              		.fpu fpv4-sp-d16
 686              	I2C1_Write:
 687              	.LVL48:
 688              	.LFB139:
 528:/home/paulo/Alexandria/STM32Cube_FW_F4_V1.23.0/Drivers/BSP/STM32469I-Discovery/stm32469i_discovery.c ****   HAL_StatusTypeDef status = HAL_OK;
 689              		.loc 1 528 1 is_stmt 1 view -0
 690              		.cfi_startproc
 691              		@ args = 0, pretend = 0, frame = 8
 692              		@ frame_needed = 0, uses_anonymous_args = 0
 528:/home/paulo/Alexandria/STM32Cube_FW_F4_V1.23.0/Drivers/BSP/STM32469I-Discovery/stm32469i_discovery.c ****   HAL_StatusTypeDef status = HAL_OK;
 693              		.loc 1 528 1 is_stmt 0 view .LVU161
 694 0000 10B5     		push	{r4, lr}
 695              	.LCFI18:
 696              		.cfi_def_cfa_offset 8
 697              		.cfi_offset 4, -8
 698              		.cfi_offset 14, -4
 699 0002 86B0     		sub	sp, sp, #24
 700              	.LCFI19:
 701              		.cfi_def_cfa_offset 32
 702 0004 0446     		mov	r4, r0
 703 0006 8DF81720 		strb	r2, [sp, #23]
 529:/home/paulo/Alexandria/STM32Cube_FW_F4_V1.23.0/Drivers/BSP/STM32469I-Discovery/stm32469i_discovery.c **** 
 704              		.loc 1 529 3 is_stmt 1 view .LVU162
 705              	.LVL49:
 531:/home/paulo/Alexandria/STM32Cube_FW_F4_V1.23.0/Drivers/BSP/STM32469I-Discovery/stm32469i_discovery.c ****                          Addr,
 706              		.loc 1 531 3 view .LVU163
 531:/home/paulo/Alexandria/STM32Cube_FW_F4_V1.23.0/Drivers/BSP/STM32469I-Discovery/stm32469i_discovery.c ****                          Addr,
 707              		.loc 1 531 12 is_stmt 0 view .LVU164
 708 000a 6423     		movs	r3, #100
 709 000c 0293     		str	r3, [sp, #8]
 710 000e 0123     		movs	r3, #1
 711 0010 0193     		str	r3, [sp, #4]
ARM GAS  /tmp/cc7YGL8m.s 			page 28


 712 0012 0DF11702 		add	r2, sp, #23
 713              	.LVL50:
 531:/home/paulo/Alexandria/STM32Cube_FW_F4_V1.23.0/Drivers/BSP/STM32469I-Discovery/stm32469i_discovery.c ****                          Addr,
 714              		.loc 1 531 12 view .LVU165
 715 0016 0092     		str	r2, [sp]
 716 0018 0A46     		mov	r2, r1
 717              	.LVL51:
 531:/home/paulo/Alexandria/STM32Cube_FW_F4_V1.23.0/Drivers/BSP/STM32469I-Discovery/stm32469i_discovery.c ****                          Addr,
 718              		.loc 1 531 12 view .LVU166
 719 001a 0146     		mov	r1, r0
 720              	.LVL52:
 531:/home/paulo/Alexandria/STM32Cube_FW_F4_V1.23.0/Drivers/BSP/STM32469I-Discovery/stm32469i_discovery.c ****                          Addr,
 721              		.loc 1 531 12 view .LVU167
 722 001c 0448     		ldr	r0, .L45
 723              	.LVL53:
 531:/home/paulo/Alexandria/STM32Cube_FW_F4_V1.23.0/Drivers/BSP/STM32469I-Discovery/stm32469i_discovery.c ****                          Addr,
 724              		.loc 1 531 12 view .LVU168
 725 001e FFF7FEFF 		bl	HAL_I2C_Mem_Write
 726              	.LVL54:
 540:/home/paulo/Alexandria/STM32Cube_FW_F4_V1.23.0/Drivers/BSP/STM32469I-Discovery/stm32469i_discovery.c ****   {
 727              		.loc 1 540 3 is_stmt 1 view .LVU169
 540:/home/paulo/Alexandria/STM32Cube_FW_F4_V1.23.0/Drivers/BSP/STM32469I-Discovery/stm32469i_discovery.c ****   {
 728              		.loc 1 540 5 is_stmt 0 view .LVU170
 729 0022 08B9     		cbnz	r0, .L44
 730              	.LVL55:
 731              	.L41:
 545:/home/paulo/Alexandria/STM32Cube_FW_F4_V1.23.0/Drivers/BSP/STM32469I-Discovery/stm32469i_discovery.c **** 
 732              		.loc 1 545 1 view .LVU171
 733 0024 06B0     		add	sp, sp, #24
 734              	.LCFI20:
 735              		.cfi_remember_state
 736              		.cfi_def_cfa_offset 8
 737              		@ sp needed
 738 0026 10BD     		pop	{r4, pc}
 739              	.LVL56:
 740              	.L44:
 741              	.LCFI21:
 742              		.cfi_restore_state
 543:/home/paulo/Alexandria/STM32Cube_FW_F4_V1.23.0/Drivers/BSP/STM32469I-Discovery/stm32469i_discovery.c ****   }
 743              		.loc 1 543 5 is_stmt 1 view .LVU172
 744 0028 2046     		mov	r0, r4
 745              	.LVL57:
 543:/home/paulo/Alexandria/STM32Cube_FW_F4_V1.23.0/Drivers/BSP/STM32469I-Discovery/stm32469i_discovery.c ****   }
 746              		.loc 1 543 5 is_stmt 0 view .LVU173
 747 002a FFF7FEFF 		bl	I2C1_Error
 748              	.LVL58:
 545:/home/paulo/Alexandria/STM32Cube_FW_F4_V1.23.0/Drivers/BSP/STM32469I-Discovery/stm32469i_discovery.c **** 
 749              		.loc 1 545 1 view .LVU174
 750 002e F9E7     		b	.L41
 751              	.L46:
 752              		.align	2
 753              	.L45:
 754 0030 00000000 		.word	.LANCHOR1
 755              		.cfi_endproc
 756              	.LFE139:
 758              		.section	.text.I2C2_ReadMultiple,"ax",%progbits
 759              		.align	1
ARM GAS  /tmp/cc7YGL8m.s 			page 29


 760              		.syntax unified
 761              		.thumb
 762              		.thumb_func
 763              		.fpu fpv4-sp-d16
 765              	I2C2_ReadMultiple:
 766              	.LVL59:
 767              	.LFB142:
 614:/home/paulo/Alexandria/STM32Cube_FW_F4_V1.23.0/Drivers/BSP/STM32469I-Discovery/stm32469i_discovery.c ****   HAL_StatusTypeDef status = HAL_OK;
 768              		.loc 1 614 1 is_stmt 1 view -0
 769              		.cfi_startproc
 770              		@ args = 4, pretend = 0, frame = 0
 771              		@ frame_needed = 0, uses_anonymous_args = 0
 614:/home/paulo/Alexandria/STM32Cube_FW_F4_V1.23.0/Drivers/BSP/STM32469I-Discovery/stm32469i_discovery.c ****   HAL_StatusTypeDef status = HAL_OK;
 772              		.loc 1 614 1 is_stmt 0 view .LVU176
 773 0000 30B5     		push	{r4, r5, lr}
 774              	.LCFI22:
 775              		.cfi_def_cfa_offset 12
 776              		.cfi_offset 4, -12
 777              		.cfi_offset 5, -8
 778              		.cfi_offset 14, -4
 779 0002 85B0     		sub	sp, sp, #20
 780              	.LCFI23:
 781              		.cfi_def_cfa_offset 32
 782 0004 0446     		mov	r4, r0
 615:/home/paulo/Alexandria/STM32Cube_FW_F4_V1.23.0/Drivers/BSP/STM32469I-Discovery/stm32469i_discovery.c **** 
 783              		.loc 1 615 3 is_stmt 1 view .LVU177
 784              	.LVL60:
 617:/home/paulo/Alexandria/STM32Cube_FW_F4_V1.23.0/Drivers/BSP/STM32469I-Discovery/stm32469i_discovery.c ****                         Addr,
 785              		.loc 1 617 3 view .LVU178
 617:/home/paulo/Alexandria/STM32Cube_FW_F4_V1.23.0/Drivers/BSP/STM32469I-Discovery/stm32469i_discovery.c ****                         Addr,
 786              		.loc 1 617 12 is_stmt 0 view .LVU179
 787 0006 4FF47A70 		mov	r0, #1000
 788              	.LVL61:
 617:/home/paulo/Alexandria/STM32Cube_FW_F4_V1.23.0/Drivers/BSP/STM32469I-Discovery/stm32469i_discovery.c ****                         Addr,
 789              		.loc 1 617 12 view .LVU180
 790 000a 0290     		str	r0, [sp, #8]
 791 000c BDF82000 		ldrh	r0, [sp, #32]
 792 0010 0190     		str	r0, [sp, #4]
 793 0012 0093     		str	r3, [sp]
 794 0014 1346     		mov	r3, r2
 795              	.LVL62:
 617:/home/paulo/Alexandria/STM32Cube_FW_F4_V1.23.0/Drivers/BSP/STM32469I-Discovery/stm32469i_discovery.c ****                         Addr,
 796              		.loc 1 617 12 view .LVU181
 797 0016 0A46     		mov	r2, r1
 798              	.LVL63:
 617:/home/paulo/Alexandria/STM32Cube_FW_F4_V1.23.0/Drivers/BSP/STM32469I-Discovery/stm32469i_discovery.c ****                         Addr,
 799              		.loc 1 617 12 view .LVU182
 800 0018 2146     		mov	r1, r4
 801              	.LVL64:
 617:/home/paulo/Alexandria/STM32Cube_FW_F4_V1.23.0/Drivers/BSP/STM32469I-Discovery/stm32469i_discovery.c ****                         Addr,
 802              		.loc 1 617 12 view .LVU183
 803 001a 0648     		ldr	r0, .L51
 804 001c FFF7FEFF 		bl	HAL_I2C_Mem_Read
 805              	.LVL65:
 626:/home/paulo/Alexandria/STM32Cube_FW_F4_V1.23.0/Drivers/BSP/STM32469I-Discovery/stm32469i_discovery.c ****   {
 806              		.loc 1 626 3 is_stmt 1 view .LVU184
 626:/home/paulo/Alexandria/STM32Cube_FW_F4_V1.23.0/Drivers/BSP/STM32469I-Discovery/stm32469i_discovery.c ****   {
ARM GAS  /tmp/cc7YGL8m.s 			page 30


 807              		.loc 1 626 5 is_stmt 0 view .LVU185
 808 0020 0546     		mov	r5, r0
 809 0022 10B9     		cbnz	r0, .L50
 810              	.LVL66:
 811              	.L48:
 631:/home/paulo/Alexandria/STM32Cube_FW_F4_V1.23.0/Drivers/BSP/STM32469I-Discovery/stm32469i_discovery.c **** }
 812              		.loc 1 631 3 is_stmt 1 view .LVU186
 632:/home/paulo/Alexandria/STM32Cube_FW_F4_V1.23.0/Drivers/BSP/STM32469I-Discovery/stm32469i_discovery.c **** 
 813              		.loc 1 632 1 is_stmt 0 view .LVU187
 814 0024 2846     		mov	r0, r5
 815 0026 05B0     		add	sp, sp, #20
 816              	.LCFI24:
 817              		.cfi_remember_state
 818              		.cfi_def_cfa_offset 12
 819              		@ sp needed
 820 0028 30BD     		pop	{r4, r5, pc}
 821              	.LVL67:
 822              	.L50:
 823              	.LCFI25:
 824              		.cfi_restore_state
 629:/home/paulo/Alexandria/STM32Cube_FW_F4_V1.23.0/Drivers/BSP/STM32469I-Discovery/stm32469i_discovery.c ****   }
 825              		.loc 1 629 5 is_stmt 1 view .LVU188
 826 002a 2046     		mov	r0, r4
 827              	.LVL68:
 629:/home/paulo/Alexandria/STM32Cube_FW_F4_V1.23.0/Drivers/BSP/STM32469I-Discovery/stm32469i_discovery.c ****   }
 828              		.loc 1 629 5 is_stmt 0 view .LVU189
 829 002c FFF7FEFF 		bl	I2C2_Error
 830              	.LVL69:
 831 0030 F8E7     		b	.L48
 832              	.L52:
 833 0032 00BF     		.align	2
 834              	.L51:
 835 0034 00000000 		.word	.LANCHOR0
 836              		.cfi_endproc
 837              	.LFE142:
 839              		.section	.text.I2C1_ReadMultiple,"ax",%progbits
 840              		.align	1
 841              		.syntax unified
 842              		.thumb
 843              		.thumb_func
 844              		.fpu fpv4-sp-d16
 846              	I2C1_ReadMultiple:
 847              	.LVL70:
 848              	.LFB141:
 589:/home/paulo/Alexandria/STM32Cube_FW_F4_V1.23.0/Drivers/BSP/STM32469I-Discovery/stm32469i_discovery.c ****   HAL_StatusTypeDef status = HAL_OK;
 849              		.loc 1 589 1 is_stmt 1 view -0
 850              		.cfi_startproc
 851              		@ args = 4, pretend = 0, frame = 0
 852              		@ frame_needed = 0, uses_anonymous_args = 0
 589:/home/paulo/Alexandria/STM32Cube_FW_F4_V1.23.0/Drivers/BSP/STM32469I-Discovery/stm32469i_discovery.c ****   HAL_StatusTypeDef status = HAL_OK;
 853              		.loc 1 589 1 is_stmt 0 view .LVU191
 854 0000 30B5     		push	{r4, r5, lr}
 855              	.LCFI26:
 856              		.cfi_def_cfa_offset 12
 857              		.cfi_offset 4, -12
 858              		.cfi_offset 5, -8
 859              		.cfi_offset 14, -4
ARM GAS  /tmp/cc7YGL8m.s 			page 31


 860 0002 85B0     		sub	sp, sp, #20
 861              	.LCFI27:
 862              		.cfi_def_cfa_offset 32
 863 0004 0446     		mov	r4, r0
 590:/home/paulo/Alexandria/STM32Cube_FW_F4_V1.23.0/Drivers/BSP/STM32469I-Discovery/stm32469i_discovery.c **** 
 864              		.loc 1 590 3 is_stmt 1 view .LVU192
 865              	.LVL71:
 592:/home/paulo/Alexandria/STM32Cube_FW_F4_V1.23.0/Drivers/BSP/STM32469I-Discovery/stm32469i_discovery.c ****                         Addr,
 866              		.loc 1 592 3 view .LVU193
 592:/home/paulo/Alexandria/STM32Cube_FW_F4_V1.23.0/Drivers/BSP/STM32469I-Discovery/stm32469i_discovery.c ****                         Addr,
 867              		.loc 1 592 12 is_stmt 0 view .LVU194
 868 0006 4FF47A70 		mov	r0, #1000
 869              	.LVL72:
 592:/home/paulo/Alexandria/STM32Cube_FW_F4_V1.23.0/Drivers/BSP/STM32469I-Discovery/stm32469i_discovery.c ****                         Addr,
 870              		.loc 1 592 12 view .LVU195
 871 000a 0290     		str	r0, [sp, #8]
 872 000c BDF82000 		ldrh	r0, [sp, #32]
 873 0010 0190     		str	r0, [sp, #4]
 874 0012 0093     		str	r3, [sp]
 875 0014 1346     		mov	r3, r2
 876              	.LVL73:
 592:/home/paulo/Alexandria/STM32Cube_FW_F4_V1.23.0/Drivers/BSP/STM32469I-Discovery/stm32469i_discovery.c ****                         Addr,
 877              		.loc 1 592 12 view .LVU196
 878 0016 0A46     		mov	r2, r1
 879              	.LVL74:
 592:/home/paulo/Alexandria/STM32Cube_FW_F4_V1.23.0/Drivers/BSP/STM32469I-Discovery/stm32469i_discovery.c ****                         Addr,
 880              		.loc 1 592 12 view .LVU197
 881 0018 2146     		mov	r1, r4
 882              	.LVL75:
 592:/home/paulo/Alexandria/STM32Cube_FW_F4_V1.23.0/Drivers/BSP/STM32469I-Discovery/stm32469i_discovery.c ****                         Addr,
 883              		.loc 1 592 12 view .LVU198
 884 001a 0648     		ldr	r0, .L57
 885 001c FFF7FEFF 		bl	HAL_I2C_Mem_Read
 886              	.LVL76:
 601:/home/paulo/Alexandria/STM32Cube_FW_F4_V1.23.0/Drivers/BSP/STM32469I-Discovery/stm32469i_discovery.c ****   {
 887              		.loc 1 601 3 is_stmt 1 view .LVU199
 601:/home/paulo/Alexandria/STM32Cube_FW_F4_V1.23.0/Drivers/BSP/STM32469I-Discovery/stm32469i_discovery.c ****   {
 888              		.loc 1 601 5 is_stmt 0 view .LVU200
 889 0020 0546     		mov	r5, r0
 890 0022 10B9     		cbnz	r0, .L56
 891              	.LVL77:
 892              	.L54:
 606:/home/paulo/Alexandria/STM32Cube_FW_F4_V1.23.0/Drivers/BSP/STM32469I-Discovery/stm32469i_discovery.c **** }
 893              		.loc 1 606 3 is_stmt 1 view .LVU201
 607:/home/paulo/Alexandria/STM32Cube_FW_F4_V1.23.0/Drivers/BSP/STM32469I-Discovery/stm32469i_discovery.c **** 
 894              		.loc 1 607 1 is_stmt 0 view .LVU202
 895 0024 2846     		mov	r0, r5
 896 0026 05B0     		add	sp, sp, #20
 897              	.LCFI28:
 898              		.cfi_remember_state
 899              		.cfi_def_cfa_offset 12
 900              		@ sp needed
 901 0028 30BD     		pop	{r4, r5, pc}
 902              	.LVL78:
 903              	.L56:
 904              	.LCFI29:
 905              		.cfi_restore_state
ARM GAS  /tmp/cc7YGL8m.s 			page 32


 604:/home/paulo/Alexandria/STM32Cube_FW_F4_V1.23.0/Drivers/BSP/STM32469I-Discovery/stm32469i_discovery.c ****   }
 906              		.loc 1 604 5 is_stmt 1 view .LVU203
 907 002a 2046     		mov	r0, r4
 908              	.LVL79:
 604:/home/paulo/Alexandria/STM32Cube_FW_F4_V1.23.0/Drivers/BSP/STM32469I-Discovery/stm32469i_discovery.c ****   }
 909              		.loc 1 604 5 is_stmt 0 view .LVU204
 910 002c FFF7FEFF 		bl	I2C1_Error
 911              	.LVL80:
 912 0030 F8E7     		b	.L54
 913              	.L58:
 914 0032 00BF     		.align	2
 915              	.L57:
 916 0034 00000000 		.word	.LANCHOR1
 917              		.cfi_endproc
 918              	.LFE141:
 920              		.section	.text.I2C1_Read,"ax",%progbits
 921              		.align	1
 922              		.syntax unified
 923              		.thumb
 924              		.thumb_func
 925              		.fpu fpv4-sp-d16
 927              	I2C1_Read:
 928              	.LVL81:
 929              	.LFB140:
 554:/home/paulo/Alexandria/STM32Cube_FW_F4_V1.23.0/Drivers/BSP/STM32469I-Discovery/stm32469i_discovery.c ****   HAL_StatusTypeDef status = HAL_OK;
 930              		.loc 1 554 1 is_stmt 1 view -0
 931              		.cfi_startproc
 932              		@ args = 0, pretend = 0, frame = 8
 933              		@ frame_needed = 0, uses_anonymous_args = 0
 554:/home/paulo/Alexandria/STM32Cube_FW_F4_V1.23.0/Drivers/BSP/STM32469I-Discovery/stm32469i_discovery.c ****   HAL_StatusTypeDef status = HAL_OK;
 934              		.loc 1 554 1 is_stmt 0 view .LVU206
 935 0000 10B5     		push	{r4, lr}
 936              	.LCFI30:
 937              		.cfi_def_cfa_offset 8
 938              		.cfi_offset 4, -8
 939              		.cfi_offset 14, -4
 940 0002 86B0     		sub	sp, sp, #24
 941              	.LCFI31:
 942              		.cfi_def_cfa_offset 32
 943 0004 0446     		mov	r4, r0
 555:/home/paulo/Alexandria/STM32Cube_FW_F4_V1.23.0/Drivers/BSP/STM32469I-Discovery/stm32469i_discovery.c ****   uint8_t Value = 0;
 944              		.loc 1 555 3 is_stmt 1 view .LVU207
 945              	.LVL82:
 556:/home/paulo/Alexandria/STM32Cube_FW_F4_V1.23.0/Drivers/BSP/STM32469I-Discovery/stm32469i_discovery.c **** 
 946              		.loc 1 556 3 view .LVU208
 556:/home/paulo/Alexandria/STM32Cube_FW_F4_V1.23.0/Drivers/BSP/STM32469I-Discovery/stm32469i_discovery.c **** 
 947              		.loc 1 556 11 is_stmt 0 view .LVU209
 948 0006 0023     		movs	r3, #0
 949 0008 8DF81730 		strb	r3, [sp, #23]
 558:/home/paulo/Alexandria/STM32Cube_FW_F4_V1.23.0/Drivers/BSP/STM32469I-Discovery/stm32469i_discovery.c ****                         Addr,
 950              		.loc 1 558 3 is_stmt 1 view .LVU210
 558:/home/paulo/Alexandria/STM32Cube_FW_F4_V1.23.0/Drivers/BSP/STM32469I-Discovery/stm32469i_discovery.c ****                         Addr,
 951              		.loc 1 558 12 is_stmt 0 view .LVU211
 952 000c 4FF47A73 		mov	r3, #1000
 953 0010 0293     		str	r3, [sp, #8]
 954 0012 0123     		movs	r3, #1
 955 0014 0193     		str	r3, [sp, #4]
ARM GAS  /tmp/cc7YGL8m.s 			page 33


 956 0016 0DF11702 		add	r2, sp, #23
 957 001a 0092     		str	r2, [sp]
 958 001c 0A46     		mov	r2, r1
 959 001e 0146     		mov	r1, r0
 960              	.LVL83:
 558:/home/paulo/Alexandria/STM32Cube_FW_F4_V1.23.0/Drivers/BSP/STM32469I-Discovery/stm32469i_discovery.c ****                         Addr,
 961              		.loc 1 558 12 view .LVU212
 962 0020 0548     		ldr	r0, .L63
 963              	.LVL84:
 558:/home/paulo/Alexandria/STM32Cube_FW_F4_V1.23.0/Drivers/BSP/STM32469I-Discovery/stm32469i_discovery.c ****                         Addr,
 964              		.loc 1 558 12 view .LVU213
 965 0022 FFF7FEFF 		bl	HAL_I2C_Mem_Read
 966              	.LVL85:
 567:/home/paulo/Alexandria/STM32Cube_FW_F4_V1.23.0/Drivers/BSP/STM32469I-Discovery/stm32469i_discovery.c ****   {
 967              		.loc 1 567 3 is_stmt 1 view .LVU214
 567:/home/paulo/Alexandria/STM32Cube_FW_F4_V1.23.0/Drivers/BSP/STM32469I-Discovery/stm32469i_discovery.c ****   {
 968              		.loc 1 567 5 is_stmt 0 view .LVU215
 969 0026 18B9     		cbnz	r0, .L62
 970              	.LVL86:
 971              	.L60:
 572:/home/paulo/Alexandria/STM32Cube_FW_F4_V1.23.0/Drivers/BSP/STM32469I-Discovery/stm32469i_discovery.c **** }
 972              		.loc 1 572 3 is_stmt 1 view .LVU216
 573:/home/paulo/Alexandria/STM32Cube_FW_F4_V1.23.0/Drivers/BSP/STM32469I-Discovery/stm32469i_discovery.c **** 
 973              		.loc 1 573 1 is_stmt 0 view .LVU217
 974 0028 9DF81700 		ldrb	r0, [sp, #23]	@ zero_extendqisi2
 975 002c 06B0     		add	sp, sp, #24
 976              	.LCFI32:
 977              		.cfi_remember_state
 978              		.cfi_def_cfa_offset 8
 979              		@ sp needed
 980 002e 10BD     		pop	{r4, pc}
 981              	.LVL87:
 982              	.L62:
 983              	.LCFI33:
 984              		.cfi_restore_state
 570:/home/paulo/Alexandria/STM32Cube_FW_F4_V1.23.0/Drivers/BSP/STM32469I-Discovery/stm32469i_discovery.c ****   }
 985              		.loc 1 570 5 is_stmt 1 view .LVU218
 986 0030 2046     		mov	r0, r4
 987              	.LVL88:
 570:/home/paulo/Alexandria/STM32Cube_FW_F4_V1.23.0/Drivers/BSP/STM32469I-Discovery/stm32469i_discovery.c ****   }
 988              		.loc 1 570 5 is_stmt 0 view .LVU219
 989 0032 FFF7FEFF 		bl	I2C1_Error
 990              	.LVL89:
 991 0036 F7E7     		b	.L60
 992              	.L64:
 993              		.align	2
 994              	.L63:
 995 0038 00000000 		.word	.LANCHOR1
 996              		.cfi_endproc
 997              	.LFE140:
 999              		.section	.text.I2C1_IsDeviceReady,"ax",%progbits
 1000              		.align	1
 1001              		.syntax unified
 1002              		.thumb
 1003              		.thumb_func
 1004              		.fpu fpv4-sp-d16
 1006              	I2C1_IsDeviceReady:
ARM GAS  /tmp/cc7YGL8m.s 			page 34


 1007              	.LVL90:
 1008              	.LFB145:
 701:/home/paulo/Alexandria/STM32Cube_FW_F4_V1.23.0/Drivers/BSP/STM32469I-Discovery/stm32469i_discovery.c ****   return (HAL_I2C_IsDeviceReady(&heval_I2c1, DevAddress, Trials, 1000));
 1009              		.loc 1 701 1 is_stmt 1 view -0
 1010              		.cfi_startproc
 1011              		@ args = 0, pretend = 0, frame = 0
 1012              		@ frame_needed = 0, uses_anonymous_args = 0
 701:/home/paulo/Alexandria/STM32Cube_FW_F4_V1.23.0/Drivers/BSP/STM32469I-Discovery/stm32469i_discovery.c ****   return (HAL_I2C_IsDeviceReady(&heval_I2c1, DevAddress, Trials, 1000));
 1013              		.loc 1 701 1 is_stmt 0 view .LVU221
 1014 0000 08B5     		push	{r3, lr}
 1015              	.LCFI34:
 1016              		.cfi_def_cfa_offset 8
 1017              		.cfi_offset 3, -8
 1018              		.cfi_offset 14, -4
 702:/home/paulo/Alexandria/STM32Cube_FW_F4_V1.23.0/Drivers/BSP/STM32469I-Discovery/stm32469i_discovery.c **** }
 1019              		.loc 1 702 3 is_stmt 1 view .LVU222
 702:/home/paulo/Alexandria/STM32Cube_FW_F4_V1.23.0/Drivers/BSP/STM32469I-Discovery/stm32469i_discovery.c **** }
 1020              		.loc 1 702 11 is_stmt 0 view .LVU223
 1021 0002 4FF47A73 		mov	r3, #1000
 1022 0006 0A46     		mov	r2, r1
 1023 0008 0146     		mov	r1, r0
 1024              	.LVL91:
 702:/home/paulo/Alexandria/STM32Cube_FW_F4_V1.23.0/Drivers/BSP/STM32469I-Discovery/stm32469i_discovery.c **** }
 1025              		.loc 1 702 11 view .LVU224
 1026 000a 0248     		ldr	r0, .L67
 1027              	.LVL92:
 702:/home/paulo/Alexandria/STM32Cube_FW_F4_V1.23.0/Drivers/BSP/STM32469I-Discovery/stm32469i_discovery.c **** }
 1028              		.loc 1 702 11 view .LVU225
 1029 000c FFF7FEFF 		bl	HAL_I2C_IsDeviceReady
 1030              	.LVL93:
 703:/home/paulo/Alexandria/STM32Cube_FW_F4_V1.23.0/Drivers/BSP/STM32469I-Discovery/stm32469i_discovery.c **** 
 1031              		.loc 1 703 1 view .LVU226
 1032 0010 08BD     		pop	{r3, pc}
 1033              	.L68:
 1034 0012 00BF     		.align	2
 1035              	.L67:
 1036 0014 00000000 		.word	.LANCHOR1
 1037              		.cfi_endproc
 1038              	.LFE145:
 1040              		.section	.text.BSP_GetVersion,"ax",%progbits
 1041              		.align	1
 1042              		.global	BSP_GetVersion
 1043              		.syntax unified
 1044              		.thumb
 1045              		.thumb_func
 1046              		.fpu fpv4-sp-d16
 1048              	BSP_GetVersion:
 1049              	.LFB126:
 168:/home/paulo/Alexandria/STM32Cube_FW_F4_V1.23.0/Drivers/BSP/STM32469I-Discovery/stm32469i_discovery.c ****   return __STM32469I_DISCOVERY_BSP_VERSION;
 1050              		.loc 1 168 1 is_stmt 1 view -0
 1051              		.cfi_startproc
 1052              		@ args = 0, pretend = 0, frame = 0
 1053              		@ frame_needed = 0, uses_anonymous_args = 0
 1054              		@ link register save eliminated.
 169:/home/paulo/Alexandria/STM32Cube_FW_F4_V1.23.0/Drivers/BSP/STM32469I-Discovery/stm32469i_discovery.c **** }
 1055              		.loc 1 169 3 view .LVU228
 170:/home/paulo/Alexandria/STM32Cube_FW_F4_V1.23.0/Drivers/BSP/STM32469I-Discovery/stm32469i_discovery.c **** 
ARM GAS  /tmp/cc7YGL8m.s 			page 35


 1056              		.loc 1 170 1 is_stmt 0 view .LVU229
 1057 0000 0048     		ldr	r0, .L70
 1058 0002 7047     		bx	lr
 1059              	.L71:
 1060              		.align	2
 1061              	.L70:
 1062 0004 00010002 		.word	33554688
 1063              		.cfi_endproc
 1064              	.LFE126:
 1066              		.section	.text.BSP_LED_Init,"ax",%progbits
 1067              		.align	1
 1068              		.global	BSP_LED_Init
 1069              		.syntax unified
 1070              		.thumb
 1071              		.thumb_func
 1072              		.fpu fpv4-sp-d16
 1074              	BSP_LED_Init:
 1075              	.LVL94:
 1076              	.LFB127:
 182:/home/paulo/Alexandria/STM32Cube_FW_F4_V1.23.0/Drivers/BSP/STM32469I-Discovery/stm32469i_discovery.c ****   GPIO_InitTypeDef  gpio_init_structure;
 1077              		.loc 1 182 1 is_stmt 1 view -0
 1078              		.cfi_startproc
 1079              		@ args = 0, pretend = 0, frame = 40
 1080              		@ frame_needed = 0, uses_anonymous_args = 0
 183:/home/paulo/Alexandria/STM32Cube_FW_F4_V1.23.0/Drivers/BSP/STM32469I-Discovery/stm32469i_discovery.c **** 
 1081              		.loc 1 183 3 view .LVU231
 185:/home/paulo/Alexandria/STM32Cube_FW_F4_V1.23.0/Drivers/BSP/STM32469I-Discovery/stm32469i_discovery.c ****   {
 1082              		.loc 1 185 3 view .LVU232
 185:/home/paulo/Alexandria/STM32Cube_FW_F4_V1.23.0/Drivers/BSP/STM32469I-Discovery/stm32469i_discovery.c ****   {
 1083              		.loc 1 185 6 is_stmt 0 view .LVU233
 1084 0000 0328     		cmp	r0, #3
 1085 0002 54D8     		bhi	.L81
 182:/home/paulo/Alexandria/STM32Cube_FW_F4_V1.23.0/Drivers/BSP/STM32469I-Discovery/stm32469i_discovery.c ****   GPIO_InitTypeDef  gpio_init_structure;
 1086              		.loc 1 182 1 view .LVU234
 1087 0004 30B5     		push	{r4, r5, lr}
 1088              	.LCFI35:
 1089              		.cfi_def_cfa_offset 12
 1090              		.cfi_offset 4, -12
 1091              		.cfi_offset 5, -8
 1092              		.cfi_offset 14, -4
 1093 0006 8BB0     		sub	sp, sp, #44
 1094              	.LCFI36:
 1095              		.cfi_def_cfa_offset 56
 188:/home/paulo/Alexandria/STM32Cube_FW_F4_V1.23.0/Drivers/BSP/STM32469I-Discovery/stm32469i_discovery.c ****     gpio_init_structure.Mode  = GPIO_MODE_OUTPUT_PP;
 1096              		.loc 1 188 5 is_stmt 1 view .LVU235
 188:/home/paulo/Alexandria/STM32Cube_FW_F4_V1.23.0/Drivers/BSP/STM32469I-Discovery/stm32469i_discovery.c ****     gpio_init_structure.Mode  = GPIO_MODE_OUTPUT_PP;
 1097              		.loc 1 188 41 is_stmt 0 view .LVU236
 1098 0008 294B     		ldr	r3, .L84
 1099 000a 53F82030 		ldr	r3, [r3, r0, lsl #2]
 188:/home/paulo/Alexandria/STM32Cube_FW_F4_V1.23.0/Drivers/BSP/STM32469I-Discovery/stm32469i_discovery.c ****     gpio_init_structure.Mode  = GPIO_MODE_OUTPUT_PP;
 1100              		.loc 1 188 31 view .LVU237
 1101 000e 0593     		str	r3, [sp, #20]
 189:/home/paulo/Alexandria/STM32Cube_FW_F4_V1.23.0/Drivers/BSP/STM32469I-Discovery/stm32469i_discovery.c ****     gpio_init_structure.Pull  = GPIO_PULLUP;
 1102              		.loc 1 189 5 is_stmt 1 view .LVU238
 189:/home/paulo/Alexandria/STM32Cube_FW_F4_V1.23.0/Drivers/BSP/STM32469I-Discovery/stm32469i_discovery.c ****     gpio_init_structure.Pull  = GPIO_PULLUP;
 1103              		.loc 1 189 31 is_stmt 0 view .LVU239
 1104 0010 0123     		movs	r3, #1
ARM GAS  /tmp/cc7YGL8m.s 			page 36


 1105 0012 0693     		str	r3, [sp, #24]
 190:/home/paulo/Alexandria/STM32Cube_FW_F4_V1.23.0/Drivers/BSP/STM32469I-Discovery/stm32469i_discovery.c ****     gpio_init_structure.Speed = GPIO_SPEED_HIGH;
 1106              		.loc 1 190 5 is_stmt 1 view .LVU240
 190:/home/paulo/Alexandria/STM32Cube_FW_F4_V1.23.0/Drivers/BSP/STM32469I-Discovery/stm32469i_discovery.c ****     gpio_init_structure.Speed = GPIO_SPEED_HIGH;
 1107              		.loc 1 190 31 is_stmt 0 view .LVU241
 1108 0014 0793     		str	r3, [sp, #28]
 191:/home/paulo/Alexandria/STM32Cube_FW_F4_V1.23.0/Drivers/BSP/STM32469I-Discovery/stm32469i_discovery.c **** 
 1109              		.loc 1 191 5 is_stmt 1 view .LVU242
 191:/home/paulo/Alexandria/STM32Cube_FW_F4_V1.23.0/Drivers/BSP/STM32469I-Discovery/stm32469i_discovery.c **** 
 1110              		.loc 1 191 31 is_stmt 0 view .LVU243
 1111 0016 0323     		movs	r3, #3
 1112 0018 0893     		str	r3, [sp, #32]
 193:/home/paulo/Alexandria/STM32Cube_FW_F4_V1.23.0/Drivers/BSP/STM32469I-Discovery/stm32469i_discovery.c ****     {
 1113              		.loc 1 193 5 is_stmt 1 view .LVU244
 1114 001a 0328     		cmp	r0, #3
 1115 001c 0FD8     		bhi	.L74
 1116 001e DFE800F0 		tbb	[pc, r0]
 1117              	.L76:
 1118 0022 02       		.byte	(.L79-.L76)/2
 1119 0023 1F       		.byte	(.L78-.L76)/2
 1120 0024 2C       		.byte	(.L77-.L76)/2
 1121 0025 39       		.byte	(.L75-.L76)/2
 1122              		.p2align 1
 1123              	.L79:
 196:/home/paulo/Alexandria/STM32Cube_FW_F4_V1.23.0/Drivers/BSP/STM32469I-Discovery/stm32469i_discovery.c ****       break;
 1124              		.loc 1 196 7 view .LVU245
 1125              	.LBB6:
 196:/home/paulo/Alexandria/STM32Cube_FW_F4_V1.23.0/Drivers/BSP/STM32469I-Discovery/stm32469i_discovery.c ****       break;
 1126              		.loc 1 196 7 view .LVU246
 1127 0026 0023     		movs	r3, #0
 1128 0028 0193     		str	r3, [sp, #4]
 196:/home/paulo/Alexandria/STM32Cube_FW_F4_V1.23.0/Drivers/BSP/STM32469I-Discovery/stm32469i_discovery.c ****       break;
 1129              		.loc 1 196 7 view .LVU247
 1130 002a 224B     		ldr	r3, .L84+4
 1131 002c 1A6B     		ldr	r2, [r3, #48]
 1132 002e 42F04002 		orr	r2, r2, #64
 1133 0032 1A63     		str	r2, [r3, #48]
 196:/home/paulo/Alexandria/STM32Cube_FW_F4_V1.23.0/Drivers/BSP/STM32469I-Discovery/stm32469i_discovery.c ****       break;
 1134              		.loc 1 196 7 view .LVU248
 1135 0034 1B6B     		ldr	r3, [r3, #48]
 1136 0036 03F04003 		and	r3, r3, #64
 1137 003a 0193     		str	r3, [sp, #4]
 196:/home/paulo/Alexandria/STM32Cube_FW_F4_V1.23.0/Drivers/BSP/STM32469I-Discovery/stm32469i_discovery.c ****       break;
 1138              		.loc 1 196 7 view .LVU249
 1139 003c 019B     		ldr	r3, [sp, #4]
 1140              	.LBE6:
 197:/home/paulo/Alexandria/STM32Cube_FW_F4_V1.23.0/Drivers/BSP/STM32469I-Discovery/stm32469i_discovery.c ****     case LED2 :
 1141              		.loc 1 197 7 view .LVU250
 1142              	.L74:
 1143 003e 0446     		mov	r4, r0
 212:/home/paulo/Alexandria/STM32Cube_FW_F4_V1.23.0/Drivers/BSP/STM32469I-Discovery/stm32469i_discovery.c **** 
 1144              		.loc 1 212 5 view .LVU251
 1145 0040 1D4D     		ldr	r5, .L84+8
 1146 0042 05A9     		add	r1, sp, #20
 1147 0044 55F82000 		ldr	r0, [r5, r0, lsl #2]
 1148              	.LVL95:
 212:/home/paulo/Alexandria/STM32Cube_FW_F4_V1.23.0/Drivers/BSP/STM32469I-Discovery/stm32469i_discovery.c **** 
ARM GAS  /tmp/cc7YGL8m.s 			page 37


 1149              		.loc 1 212 5 is_stmt 0 view .LVU252
 1150 0048 FFF7FEFF 		bl	HAL_GPIO_Init
 1151              	.LVL96:
 215:/home/paulo/Alexandria/STM32Cube_FW_F4_V1.23.0/Drivers/BSP/STM32469I-Discovery/stm32469i_discovery.c **** 
 1152              		.loc 1 215 5 is_stmt 1 view .LVU253
 1153 004c 0122     		movs	r2, #1
 1154 004e 184B     		ldr	r3, .L84
 1155 0050 33F82410 		ldrh	r1, [r3, r4, lsl #2]
 1156 0054 55F82400 		ldr	r0, [r5, r4, lsl #2]
 1157 0058 FFF7FEFF 		bl	HAL_GPIO_WritePin
 1158              	.LVL97:
 219:/home/paulo/Alexandria/STM32Cube_FW_F4_V1.23.0/Drivers/BSP/STM32469I-Discovery/stm32469i_discovery.c **** 
 1159              		.loc 1 219 1 is_stmt 0 view .LVU254
 1160 005c 0BB0     		add	sp, sp, #44
 1161              	.LCFI37:
 1162              		.cfi_remember_state
 1163              		.cfi_def_cfa_offset 12
 1164              		@ sp needed
 1165 005e 30BD     		pop	{r4, r5, pc}
 1166              	.LVL98:
 1167              	.L78:
 1168              	.LCFI38:
 1169              		.cfi_restore_state
 199:/home/paulo/Alexandria/STM32Cube_FW_F4_V1.23.0/Drivers/BSP/STM32469I-Discovery/stm32469i_discovery.c ****       break;
 1170              		.loc 1 199 7 is_stmt 1 view .LVU255
 1171              	.LBB7:
 199:/home/paulo/Alexandria/STM32Cube_FW_F4_V1.23.0/Drivers/BSP/STM32469I-Discovery/stm32469i_discovery.c ****       break;
 1172              		.loc 1 199 7 view .LVU256
 1173 0060 0023     		movs	r3, #0
 1174 0062 0293     		str	r3, [sp, #8]
 199:/home/paulo/Alexandria/STM32Cube_FW_F4_V1.23.0/Drivers/BSP/STM32469I-Discovery/stm32469i_discovery.c ****       break;
 1175              		.loc 1 199 7 view .LVU257
 1176 0064 134B     		ldr	r3, .L84+4
 1177 0066 1A6B     		ldr	r2, [r3, #48]
 1178 0068 42F00802 		orr	r2, r2, #8
 1179 006c 1A63     		str	r2, [r3, #48]
 199:/home/paulo/Alexandria/STM32Cube_FW_F4_V1.23.0/Drivers/BSP/STM32469I-Discovery/stm32469i_discovery.c ****       break;
 1180              		.loc 1 199 7 view .LVU258
 1181 006e 1B6B     		ldr	r3, [r3, #48]
 1182 0070 03F00803 		and	r3, r3, #8
 1183 0074 0293     		str	r3, [sp, #8]
 199:/home/paulo/Alexandria/STM32Cube_FW_F4_V1.23.0/Drivers/BSP/STM32469I-Discovery/stm32469i_discovery.c ****       break;
 1184              		.loc 1 199 7 view .LVU259
 1185 0076 029B     		ldr	r3, [sp, #8]
 1186              	.LBE7:
 200:/home/paulo/Alexandria/STM32Cube_FW_F4_V1.23.0/Drivers/BSP/STM32469I-Discovery/stm32469i_discovery.c ****     case LED3 :
 1187              		.loc 1 200 7 view .LVU260
 1188 0078 E1E7     		b	.L74
 1189              	.L77:
 202:/home/paulo/Alexandria/STM32Cube_FW_F4_V1.23.0/Drivers/BSP/STM32469I-Discovery/stm32469i_discovery.c ****       break;
 1190              		.loc 1 202 7 view .LVU261
 1191              	.LBB8:
 202:/home/paulo/Alexandria/STM32Cube_FW_F4_V1.23.0/Drivers/BSP/STM32469I-Discovery/stm32469i_discovery.c ****       break;
 1192              		.loc 1 202 7 view .LVU262
 1193 007a 0023     		movs	r3, #0
 1194 007c 0393     		str	r3, [sp, #12]
 202:/home/paulo/Alexandria/STM32Cube_FW_F4_V1.23.0/Drivers/BSP/STM32469I-Discovery/stm32469i_discovery.c ****       break;
ARM GAS  /tmp/cc7YGL8m.s 			page 38


 1195              		.loc 1 202 7 view .LVU263
 1196 007e 0D4B     		ldr	r3, .L84+4
 1197 0080 1A6B     		ldr	r2, [r3, #48]
 1198 0082 42F00802 		orr	r2, r2, #8
 1199 0086 1A63     		str	r2, [r3, #48]
 202:/home/paulo/Alexandria/STM32Cube_FW_F4_V1.23.0/Drivers/BSP/STM32469I-Discovery/stm32469i_discovery.c ****       break;
 1200              		.loc 1 202 7 view .LVU264
 1201 0088 1B6B     		ldr	r3, [r3, #48]
 1202 008a 03F00803 		and	r3, r3, #8
 1203 008e 0393     		str	r3, [sp, #12]
 202:/home/paulo/Alexandria/STM32Cube_FW_F4_V1.23.0/Drivers/BSP/STM32469I-Discovery/stm32469i_discovery.c ****       break;
 1204              		.loc 1 202 7 view .LVU265
 1205 0090 039B     		ldr	r3, [sp, #12]
 1206              	.LBE8:
 203:/home/paulo/Alexandria/STM32Cube_FW_F4_V1.23.0/Drivers/BSP/STM32469I-Discovery/stm32469i_discovery.c ****     case LED4 :
 1207              		.loc 1 203 7 view .LVU266
 1208 0092 D4E7     		b	.L74
 1209              	.L75:
 205:/home/paulo/Alexandria/STM32Cube_FW_F4_V1.23.0/Drivers/BSP/STM32469I-Discovery/stm32469i_discovery.c ****       break;
 1210              		.loc 1 205 7 view .LVU267
 1211              	.LBB9:
 205:/home/paulo/Alexandria/STM32Cube_FW_F4_V1.23.0/Drivers/BSP/STM32469I-Discovery/stm32469i_discovery.c ****       break;
 1212              		.loc 1 205 7 view .LVU268
 1213 0094 0023     		movs	r3, #0
 1214 0096 0493     		str	r3, [sp, #16]
 205:/home/paulo/Alexandria/STM32Cube_FW_F4_V1.23.0/Drivers/BSP/STM32469I-Discovery/stm32469i_discovery.c ****       break;
 1215              		.loc 1 205 7 view .LVU269
 1216 0098 064B     		ldr	r3, .L84+4
 1217 009a 1A6B     		ldr	r2, [r3, #48]
 1218 009c 42F48062 		orr	r2, r2, #1024
 1219 00a0 1A63     		str	r2, [r3, #48]
 205:/home/paulo/Alexandria/STM32Cube_FW_F4_V1.23.0/Drivers/BSP/STM32469I-Discovery/stm32469i_discovery.c ****       break;
 1220              		.loc 1 205 7 view .LVU270
 1221 00a2 1B6B     		ldr	r3, [r3, #48]
 1222 00a4 03F48063 		and	r3, r3, #1024
 1223 00a8 0493     		str	r3, [sp, #16]
 205:/home/paulo/Alexandria/STM32Cube_FW_F4_V1.23.0/Drivers/BSP/STM32469I-Discovery/stm32469i_discovery.c ****       break;
 1224              		.loc 1 205 7 view .LVU271
 1225 00aa 049B     		ldr	r3, [sp, #16]
 1226              	.LBE9:
 206:/home/paulo/Alexandria/STM32Cube_FW_F4_V1.23.0/Drivers/BSP/STM32469I-Discovery/stm32469i_discovery.c ****     default :
 1227              		.loc 1 206 7 view .LVU272
 1228 00ac C7E7     		b	.L74
 1229              	.L81:
 1230              	.LCFI39:
 1231              		.cfi_def_cfa_offset 0
 1232              		.cfi_restore 4
 1233              		.cfi_restore 5
 1234              		.cfi_restore 14
 1235 00ae 7047     		bx	lr
 1236              	.L85:
 1237              		.align	2
 1238              	.L84:
 1239 00b0 00000000 		.word	.LANCHOR2
 1240 00b4 00380240 		.word	1073887232
 1241 00b8 00000000 		.word	.LANCHOR3
 1242              		.cfi_endproc
ARM GAS  /tmp/cc7YGL8m.s 			page 39


 1243              	.LFE127:
 1245              		.section	.text.BSP_LED_DeInit,"ax",%progbits
 1246              		.align	1
 1247              		.global	BSP_LED_DeInit
 1248              		.syntax unified
 1249              		.thumb
 1250              		.thumb_func
 1251              		.fpu fpv4-sp-d16
 1253              	BSP_LED_DeInit:
 1254              	.LVL99:
 1255              	.LFB128:
 233:/home/paulo/Alexandria/STM32Cube_FW_F4_V1.23.0/Drivers/BSP/STM32469I-Discovery/stm32469i_discovery.c ****   GPIO_InitTypeDef  gpio_init_structure;
 1256              		.loc 1 233 1 view -0
 1257              		.cfi_startproc
 1258              		@ args = 0, pretend = 0, frame = 0
 1259              		@ frame_needed = 0, uses_anonymous_args = 0
 234:/home/paulo/Alexandria/STM32Cube_FW_F4_V1.23.0/Drivers/BSP/STM32469I-Discovery/stm32469i_discovery.c **** 
 1260              		.loc 1 234 3 view .LVU274
 236:/home/paulo/Alexandria/STM32Cube_FW_F4_V1.23.0/Drivers/BSP/STM32469I-Discovery/stm32469i_discovery.c ****   {
 1261              		.loc 1 236 3 view .LVU275
 236:/home/paulo/Alexandria/STM32Cube_FW_F4_V1.23.0/Drivers/BSP/STM32469I-Discovery/stm32469i_discovery.c ****   {
 1262              		.loc 1 236 6 is_stmt 0 view .LVU276
 1263 0000 0328     		cmp	r0, #3
 1264 0002 00D9     		bls	.L92
 1265 0004 7047     		bx	lr
 1266              	.L92:
 233:/home/paulo/Alexandria/STM32Cube_FW_F4_V1.23.0/Drivers/BSP/STM32469I-Discovery/stm32469i_discovery.c ****   GPIO_InitTypeDef  gpio_init_structure;
 1267              		.loc 1 233 1 view .LVU277
 1268 0006 70B5     		push	{r4, r5, r6, lr}
 1269              	.LCFI40:
 1270              		.cfi_def_cfa_offset 16
 1271              		.cfi_offset 4, -16
 1272              		.cfi_offset 5, -12
 1273              		.cfi_offset 6, -8
 1274              		.cfi_offset 14, -4
 1275 0008 0446     		mov	r4, r0
 239:/home/paulo/Alexandria/STM32Cube_FW_F4_V1.23.0/Drivers/BSP/STM32469I-Discovery/stm32469i_discovery.c **** 
 1276              		.loc 1 239 5 is_stmt 1 view .LVU278
 239:/home/paulo/Alexandria/STM32Cube_FW_F4_V1.23.0/Drivers/BSP/STM32469I-Discovery/stm32469i_discovery.c **** 
 1277              		.loc 1 239 39 is_stmt 0 view .LVU279
 1278 000a 084B     		ldr	r3, .L93
 1279 000c 53F82060 		ldr	r6, [r3, r0, lsl #2]
 242:/home/paulo/Alexandria/STM32Cube_FW_F4_V1.23.0/Drivers/BSP/STM32469I-Discovery/stm32469i_discovery.c ****     HAL_GPIO_DeInit(GPIO_PORT[Led], gpio_init_structure.Pin);
 1280              		.loc 1 242 5 is_stmt 1 view .LVU280
 1281 0010 074D     		ldr	r5, .L93+4
 1282 0012 0122     		movs	r2, #1
 1283 0014 B1B2     		uxth	r1, r6
 1284 0016 55F82000 		ldr	r0, [r5, r0, lsl #2]
 1285              	.LVL100:
 242:/home/paulo/Alexandria/STM32Cube_FW_F4_V1.23.0/Drivers/BSP/STM32469I-Discovery/stm32469i_discovery.c ****     HAL_GPIO_DeInit(GPIO_PORT[Led], gpio_init_structure.Pin);
 1286              		.loc 1 242 5 is_stmt 0 view .LVU281
 1287 001a FFF7FEFF 		bl	HAL_GPIO_WritePin
 1288              	.LVL101:
 243:/home/paulo/Alexandria/STM32Cube_FW_F4_V1.23.0/Drivers/BSP/STM32469I-Discovery/stm32469i_discovery.c ****   }
 1289              		.loc 1 243 5 is_stmt 1 view .LVU282
 1290 001e 3146     		mov	r1, r6
 1291 0020 55F82400 		ldr	r0, [r5, r4, lsl #2]
ARM GAS  /tmp/cc7YGL8m.s 			page 40


 1292 0024 FFF7FEFF 		bl	HAL_GPIO_DeInit
 1293              	.LVL102:
 246:/home/paulo/Alexandria/STM32Cube_FW_F4_V1.23.0/Drivers/BSP/STM32469I-Discovery/stm32469i_discovery.c **** 
 1294              		.loc 1 246 1 is_stmt 0 view .LVU283
 1295 0028 70BD     		pop	{r4, r5, r6, pc}
 1296              	.L94:
 1297 002a 00BF     		.align	2
 1298              	.L93:
 1299 002c 00000000 		.word	.LANCHOR2
 1300 0030 00000000 		.word	.LANCHOR3
 1301              		.cfi_endproc
 1302              	.LFE128:
 1304              		.section	.text.BSP_LED_On,"ax",%progbits
 1305              		.align	1
 1306              		.global	BSP_LED_On
 1307              		.syntax unified
 1308              		.thumb
 1309              		.thumb_func
 1310              		.fpu fpv4-sp-d16
 1312              	BSP_LED_On:
 1313              	.LVL103:
 1314              	.LFB129:
 258:/home/paulo/Alexandria/STM32Cube_FW_F4_V1.23.0/Drivers/BSP/STM32469I-Discovery/stm32469i_discovery.c ****   if (Led <= LED4)
 1315              		.loc 1 258 1 is_stmt 1 view -0
 1316              		.cfi_startproc
 1317              		@ args = 0, pretend = 0, frame = 0
 1318              		@ frame_needed = 0, uses_anonymous_args = 0
 259:/home/paulo/Alexandria/STM32Cube_FW_F4_V1.23.0/Drivers/BSP/STM32469I-Discovery/stm32469i_discovery.c ****   {
 1319              		.loc 1 259 3 view .LVU285
 259:/home/paulo/Alexandria/STM32Cube_FW_F4_V1.23.0/Drivers/BSP/STM32469I-Discovery/stm32469i_discovery.c ****   {
 1320              		.loc 1 259 6 is_stmt 0 view .LVU286
 1321 0000 0328     		cmp	r0, #3
 1322 0002 00D9     		bls	.L101
 1323 0004 7047     		bx	lr
 1324              	.L101:
 258:/home/paulo/Alexandria/STM32Cube_FW_F4_V1.23.0/Drivers/BSP/STM32469I-Discovery/stm32469i_discovery.c ****   if (Led <= LED4)
 1325              		.loc 1 258 1 view .LVU287
 1326 0006 08B5     		push	{r3, lr}
 1327              	.LCFI41:
 1328              		.cfi_def_cfa_offset 8
 1329              		.cfi_offset 3, -8
 1330              		.cfi_offset 14, -4
 261:/home/paulo/Alexandria/STM32Cube_FW_F4_V1.23.0/Drivers/BSP/STM32469I-Discovery/stm32469i_discovery.c ****   }
 1331              		.loc 1 261 6 is_stmt 1 view .LVU288
 1332 0008 0022     		movs	r2, #0
 1333 000a 044B     		ldr	r3, .L102
 1334 000c 33F82010 		ldrh	r1, [r3, r0, lsl #2]
 1335 0010 034B     		ldr	r3, .L102+4
 1336 0012 53F82000 		ldr	r0, [r3, r0, lsl #2]
 1337              	.LVL104:
 261:/home/paulo/Alexandria/STM32Cube_FW_F4_V1.23.0/Drivers/BSP/STM32469I-Discovery/stm32469i_discovery.c ****   }
 1338              		.loc 1 261 6 is_stmt 0 view .LVU289
 1339 0016 FFF7FEFF 		bl	HAL_GPIO_WritePin
 1340              	.LVL105:
 264:/home/paulo/Alexandria/STM32Cube_FW_F4_V1.23.0/Drivers/BSP/STM32469I-Discovery/stm32469i_discovery.c **** 
 1341              		.loc 1 264 1 view .LVU290
 1342 001a 08BD     		pop	{r3, pc}
ARM GAS  /tmp/cc7YGL8m.s 			page 41


 1343              	.L103:
 1344              		.align	2
 1345              	.L102:
 1346 001c 00000000 		.word	.LANCHOR2
 1347 0020 00000000 		.word	.LANCHOR3
 1348              		.cfi_endproc
 1349              	.LFE129:
 1351              		.section	.text.BSP_LED_Off,"ax",%progbits
 1352              		.align	1
 1353              		.global	BSP_LED_Off
 1354              		.syntax unified
 1355              		.thumb
 1356              		.thumb_func
 1357              		.fpu fpv4-sp-d16
 1359              	BSP_LED_Off:
 1360              	.LVL106:
 1361              	.LFB130:
 276:/home/paulo/Alexandria/STM32Cube_FW_F4_V1.23.0/Drivers/BSP/STM32469I-Discovery/stm32469i_discovery.c ****   if (Led <= LED4)
 1362              		.loc 1 276 1 is_stmt 1 view -0
 1363              		.cfi_startproc
 1364              		@ args = 0, pretend = 0, frame = 0
 1365              		@ frame_needed = 0, uses_anonymous_args = 0
 277:/home/paulo/Alexandria/STM32Cube_FW_F4_V1.23.0/Drivers/BSP/STM32469I-Discovery/stm32469i_discovery.c ****   {
 1366              		.loc 1 277 3 view .LVU292
 277:/home/paulo/Alexandria/STM32Cube_FW_F4_V1.23.0/Drivers/BSP/STM32469I-Discovery/stm32469i_discovery.c ****   {
 1367              		.loc 1 277 6 is_stmt 0 view .LVU293
 1368 0000 0328     		cmp	r0, #3
 1369 0002 00D9     		bls	.L110
 1370 0004 7047     		bx	lr
 1371              	.L110:
 276:/home/paulo/Alexandria/STM32Cube_FW_F4_V1.23.0/Drivers/BSP/STM32469I-Discovery/stm32469i_discovery.c ****   if (Led <= LED4)
 1372              		.loc 1 276 1 view .LVU294
 1373 0006 08B5     		push	{r3, lr}
 1374              	.LCFI42:
 1375              		.cfi_def_cfa_offset 8
 1376              		.cfi_offset 3, -8
 1377              		.cfi_offset 14, -4
 279:/home/paulo/Alexandria/STM32Cube_FW_F4_V1.23.0/Drivers/BSP/STM32469I-Discovery/stm32469i_discovery.c ****   }
 1378              		.loc 1 279 5 is_stmt 1 view .LVU295
 1379 0008 0122     		movs	r2, #1
 1380 000a 044B     		ldr	r3, .L111
 1381 000c 33F82010 		ldrh	r1, [r3, r0, lsl #2]
 1382 0010 034B     		ldr	r3, .L111+4
 1383 0012 53F82000 		ldr	r0, [r3, r0, lsl #2]
 1384              	.LVL107:
 279:/home/paulo/Alexandria/STM32Cube_FW_F4_V1.23.0/Drivers/BSP/STM32469I-Discovery/stm32469i_discovery.c ****   }
 1385              		.loc 1 279 5 is_stmt 0 view .LVU296
 1386 0016 FFF7FEFF 		bl	HAL_GPIO_WritePin
 1387              	.LVL108:
 281:/home/paulo/Alexandria/STM32Cube_FW_F4_V1.23.0/Drivers/BSP/STM32469I-Discovery/stm32469i_discovery.c **** 
 1388              		.loc 1 281 1 view .LVU297
 1389 001a 08BD     		pop	{r3, pc}
 1390              	.L112:
 1391              		.align	2
 1392              	.L111:
 1393 001c 00000000 		.word	.LANCHOR2
 1394 0020 00000000 		.word	.LANCHOR3
ARM GAS  /tmp/cc7YGL8m.s 			page 42


 1395              		.cfi_endproc
 1396              	.LFE130:
 1398              		.section	.text.BSP_LED_Toggle,"ax",%progbits
 1399              		.align	1
 1400              		.global	BSP_LED_Toggle
 1401              		.syntax unified
 1402              		.thumb
 1403              		.thumb_func
 1404              		.fpu fpv4-sp-d16
 1406              	BSP_LED_Toggle:
 1407              	.LVL109:
 1408              	.LFB131:
 293:/home/paulo/Alexandria/STM32Cube_FW_F4_V1.23.0/Drivers/BSP/STM32469I-Discovery/stm32469i_discovery.c ****   if (Led <= LED4)
 1409              		.loc 1 293 1 is_stmt 1 view -0
 1410              		.cfi_startproc
 1411              		@ args = 0, pretend = 0, frame = 0
 1412              		@ frame_needed = 0, uses_anonymous_args = 0
 294:/home/paulo/Alexandria/STM32Cube_FW_F4_V1.23.0/Drivers/BSP/STM32469I-Discovery/stm32469i_discovery.c ****   {
 1413              		.loc 1 294 3 view .LVU299
 294:/home/paulo/Alexandria/STM32Cube_FW_F4_V1.23.0/Drivers/BSP/STM32469I-Discovery/stm32469i_discovery.c ****   {
 1414              		.loc 1 294 6 is_stmt 0 view .LVU300
 1415 0000 0328     		cmp	r0, #3
 1416 0002 00D9     		bls	.L119
 1417 0004 7047     		bx	lr
 1418              	.L119:
 293:/home/paulo/Alexandria/STM32Cube_FW_F4_V1.23.0/Drivers/BSP/STM32469I-Discovery/stm32469i_discovery.c ****   if (Led <= LED4)
 1419              		.loc 1 293 1 view .LVU301
 1420 0006 08B5     		push	{r3, lr}
 1421              	.LCFI43:
 1422              		.cfi_def_cfa_offset 8
 1423              		.cfi_offset 3, -8
 1424              		.cfi_offset 14, -4
 296:/home/paulo/Alexandria/STM32Cube_FW_F4_V1.23.0/Drivers/BSP/STM32469I-Discovery/stm32469i_discovery.c ****   }
 1425              		.loc 1 296 6 is_stmt 1 view .LVU302
 1426 0008 044B     		ldr	r3, .L120
 1427 000a 33F82010 		ldrh	r1, [r3, r0, lsl #2]
 1428 000e 044B     		ldr	r3, .L120+4
 1429 0010 53F82000 		ldr	r0, [r3, r0, lsl #2]
 1430              	.LVL110:
 296:/home/paulo/Alexandria/STM32Cube_FW_F4_V1.23.0/Drivers/BSP/STM32469I-Discovery/stm32469i_discovery.c ****   }
 1431              		.loc 1 296 6 is_stmt 0 view .LVU303
 1432 0014 FFF7FEFF 		bl	HAL_GPIO_TogglePin
 1433              	.LVL111:
 298:/home/paulo/Alexandria/STM32Cube_FW_F4_V1.23.0/Drivers/BSP/STM32469I-Discovery/stm32469i_discovery.c **** 
 1434              		.loc 1 298 1 view .LVU304
 1435 0018 08BD     		pop	{r3, pc}
 1436              	.L121:
 1437 001a 00BF     		.align	2
 1438              	.L120:
 1439 001c 00000000 		.word	.LANCHOR2
 1440 0020 00000000 		.word	.LANCHOR3
 1441              		.cfi_endproc
 1442              	.LFE131:
 1444              		.section	.text.BSP_PB_Init,"ax",%progbits
 1445              		.align	1
 1446              		.global	BSP_PB_Init
 1447              		.syntax unified
ARM GAS  /tmp/cc7YGL8m.s 			page 43


 1448              		.thumb
 1449              		.thumb_func
 1450              		.fpu fpv4-sp-d16
 1452              	BSP_PB_Init:
 1453              	.LVL112:
 1454              	.LFB132:
 313:/home/paulo/Alexandria/STM32Cube_FW_F4_V1.23.0/Drivers/BSP/STM32469I-Discovery/stm32469i_discovery.c ****   GPIO_InitTypeDef gpio_init_structure;
 1455              		.loc 1 313 1 is_stmt 1 view -0
 1456              		.cfi_startproc
 1457              		@ args = 0, pretend = 0, frame = 24
 1458              		@ frame_needed = 0, uses_anonymous_args = 0
 313:/home/paulo/Alexandria/STM32Cube_FW_F4_V1.23.0/Drivers/BSP/STM32469I-Discovery/stm32469i_discovery.c ****   GPIO_InitTypeDef gpio_init_structure;
 1459              		.loc 1 313 1 is_stmt 0 view .LVU306
 1460 0000 30B5     		push	{r4, r5, lr}
 1461              	.LCFI44:
 1462              		.cfi_def_cfa_offset 12
 1463              		.cfi_offset 4, -12
 1464              		.cfi_offset 5, -8
 1465              		.cfi_offset 14, -4
 1466 0002 87B0     		sub	sp, sp, #28
 1467              	.LCFI45:
 1468              		.cfi_def_cfa_offset 40
 1469 0004 0546     		mov	r5, r0
 314:/home/paulo/Alexandria/STM32Cube_FW_F4_V1.23.0/Drivers/BSP/STM32469I-Discovery/stm32469i_discovery.c **** 
 1470              		.loc 1 314 3 is_stmt 1 view .LVU307
 317:/home/paulo/Alexandria/STM32Cube_FW_F4_V1.23.0/Drivers/BSP/STM32469I-Discovery/stm32469i_discovery.c **** 
 1471              		.loc 1 317 3 view .LVU308
 1472              	.LBB10:
 317:/home/paulo/Alexandria/STM32Cube_FW_F4_V1.23.0/Drivers/BSP/STM32469I-Discovery/stm32469i_discovery.c **** 
 1473              		.loc 1 317 3 view .LVU309
 1474 0006 0023     		movs	r3, #0
 1475 0008 0093     		str	r3, [sp]
 317:/home/paulo/Alexandria/STM32Cube_FW_F4_V1.23.0/Drivers/BSP/STM32469I-Discovery/stm32469i_discovery.c **** 
 1476              		.loc 1 317 3 view .LVU310
 1477 000a 1A4B     		ldr	r3, .L128
 1478 000c 1A6B     		ldr	r2, [r3, #48]
 1479 000e 42F00102 		orr	r2, r2, #1
 1480 0012 1A63     		str	r2, [r3, #48]
 317:/home/paulo/Alexandria/STM32Cube_FW_F4_V1.23.0/Drivers/BSP/STM32469I-Discovery/stm32469i_discovery.c **** 
 1481              		.loc 1 317 3 view .LVU311
 1482 0014 1B6B     		ldr	r3, [r3, #48]
 1483 0016 03F00103 		and	r3, r3, #1
 1484 001a 0093     		str	r3, [sp]
 317:/home/paulo/Alexandria/STM32Cube_FW_F4_V1.23.0/Drivers/BSP/STM32469I-Discovery/stm32469i_discovery.c **** 
 1485              		.loc 1 317 3 view .LVU312
 1486 001c 009B     		ldr	r3, [sp]
 1487              	.LBE10:
 319:/home/paulo/Alexandria/STM32Cube_FW_F4_V1.23.0/Drivers/BSP/STM32469I-Discovery/stm32469i_discovery.c ****   {
 1488              		.loc 1 319 3 view .LVU313
 319:/home/paulo/Alexandria/STM32Cube_FW_F4_V1.23.0/Drivers/BSP/STM32469I-Discovery/stm32469i_discovery.c ****   {
 1489              		.loc 1 319 5 is_stmt 0 view .LVU314
 1490 001e 0C46     		mov	r4, r1
 1491 0020 19B1     		cbz	r1, .L126
 1492              	.LVL113:
 1493              	.L123:
 329:/home/paulo/Alexandria/STM32Cube_FW_F4_V1.23.0/Drivers/BSP/STM32469I-Discovery/stm32469i_discovery.c ****   {
 1494              		.loc 1 329 3 is_stmt 1 view .LVU315
ARM GAS  /tmp/cc7YGL8m.s 			page 44


 329:/home/paulo/Alexandria/STM32Cube_FW_F4_V1.23.0/Drivers/BSP/STM32469I-Discovery/stm32469i_discovery.c ****   {
 1495              		.loc 1 329 5 is_stmt 0 view .LVU316
 1496 0022 012C     		cmp	r4, #1
 1497 0024 0FD0     		beq	.L127
 1498              	.L122:
 344:/home/paulo/Alexandria/STM32Cube_FW_F4_V1.23.0/Drivers/BSP/STM32469I-Discovery/stm32469i_discovery.c **** 
 1499              		.loc 1 344 1 view .LVU317
 1500 0026 07B0     		add	sp, sp, #28
 1501              	.LCFI46:
 1502              		.cfi_remember_state
 1503              		.cfi_def_cfa_offset 12
 1504              		@ sp needed
 1505 0028 30BD     		pop	{r4, r5, pc}
 1506              	.LVL114:
 1507              	.L126:
 1508              	.LCFI47:
 1509              		.cfi_restore_state
 322:/home/paulo/Alexandria/STM32Cube_FW_F4_V1.23.0/Drivers/BSP/STM32469I-Discovery/stm32469i_discovery.c ****     gpio_init_structure.Mode = GPIO_MODE_INPUT;
 1510              		.loc 1 322 5 is_stmt 1 view .LVU318
 322:/home/paulo/Alexandria/STM32Cube_FW_F4_V1.23.0/Drivers/BSP/STM32469I-Discovery/stm32469i_discovery.c ****     gpio_init_structure.Mode = GPIO_MODE_INPUT;
 1511              		.loc 1 322 29 is_stmt 0 view .LVU319
 1512 002a 0123     		movs	r3, #1
 1513 002c 0193     		str	r3, [sp, #4]
 323:/home/paulo/Alexandria/STM32Cube_FW_F4_V1.23.0/Drivers/BSP/STM32469I-Discovery/stm32469i_discovery.c ****     gpio_init_structure.Pull = GPIO_NOPULL;
 1514              		.loc 1 323 5 is_stmt 1 view .LVU320
 323:/home/paulo/Alexandria/STM32Cube_FW_F4_V1.23.0/Drivers/BSP/STM32469I-Discovery/stm32469i_discovery.c ****     gpio_init_structure.Pull = GPIO_NOPULL;
 1515              		.loc 1 323 30 is_stmt 0 view .LVU321
 1516 002e 0023     		movs	r3, #0
 1517 0030 0293     		str	r3, [sp, #8]
 324:/home/paulo/Alexandria/STM32Cube_FW_F4_V1.23.0/Drivers/BSP/STM32469I-Discovery/stm32469i_discovery.c ****     gpio_init_structure.Speed = GPIO_SPEED_FAST;
 1518              		.loc 1 324 5 is_stmt 1 view .LVU322
 324:/home/paulo/Alexandria/STM32Cube_FW_F4_V1.23.0/Drivers/BSP/STM32469I-Discovery/stm32469i_discovery.c ****     gpio_init_structure.Speed = GPIO_SPEED_FAST;
 1519              		.loc 1 324 30 is_stmt 0 view .LVU323
 1520 0032 0393     		str	r3, [sp, #12]
 325:/home/paulo/Alexandria/STM32Cube_FW_F4_V1.23.0/Drivers/BSP/STM32469I-Discovery/stm32469i_discovery.c ****     HAL_GPIO_Init(BUTTON_PORT[Button], &gpio_init_structure);
 1521              		.loc 1 325 5 is_stmt 1 view .LVU324
 325:/home/paulo/Alexandria/STM32Cube_FW_F4_V1.23.0/Drivers/BSP/STM32469I-Discovery/stm32469i_discovery.c ****     HAL_GPIO_Init(BUTTON_PORT[Button], &gpio_init_structure);
 1522              		.loc 1 325 31 is_stmt 0 view .LVU325
 1523 0034 0223     		movs	r3, #2
 1524 0036 0493     		str	r3, [sp, #16]
 326:/home/paulo/Alexandria/STM32Cube_FW_F4_V1.23.0/Drivers/BSP/STM32469I-Discovery/stm32469i_discovery.c ****   }
 1525              		.loc 1 326 5 is_stmt 1 view .LVU326
 1526 0038 01A9     		add	r1, sp, #4
 1527              	.LVL115:
 326:/home/paulo/Alexandria/STM32Cube_FW_F4_V1.23.0/Drivers/BSP/STM32469I-Discovery/stm32469i_discovery.c ****   }
 1528              		.loc 1 326 5 is_stmt 0 view .LVU327
 1529 003a 0F4B     		ldr	r3, .L128+4
 1530 003c 53F82000 		ldr	r0, [r3, r0, lsl #2]
 1531              	.LVL116:
 326:/home/paulo/Alexandria/STM32Cube_FW_F4_V1.23.0/Drivers/BSP/STM32469I-Discovery/stm32469i_discovery.c ****   }
 1532              		.loc 1 326 5 view .LVU328
 1533 0040 FFF7FEFF 		bl	HAL_GPIO_Init
 1534              	.LVL117:
 1535 0044 EDE7     		b	.L123
 1536              	.L127:
 332:/home/paulo/Alexandria/STM32Cube_FW_F4_V1.23.0/Drivers/BSP/STM32469I-Discovery/stm32469i_discovery.c ****     gpio_init_structure.Pull = GPIO_NOPULL;
 1537              		.loc 1 332 5 is_stmt 1 view .LVU329
ARM GAS  /tmp/cc7YGL8m.s 			page 45


 332:/home/paulo/Alexandria/STM32Cube_FW_F4_V1.23.0/Drivers/BSP/STM32469I-Discovery/stm32469i_discovery.c ****     gpio_init_structure.Pull = GPIO_NOPULL;
 1538              		.loc 1 332 29 is_stmt 0 view .LVU330
 1539 0046 0123     		movs	r3, #1
 1540 0048 0193     		str	r3, [sp, #4]
 333:/home/paulo/Alexandria/STM32Cube_FW_F4_V1.23.0/Drivers/BSP/STM32469I-Discovery/stm32469i_discovery.c ****     gpio_init_structure.Speed = GPIO_SPEED_FAST;
 1541              		.loc 1 333 5 is_stmt 1 view .LVU331
 333:/home/paulo/Alexandria/STM32Cube_FW_F4_V1.23.0/Drivers/BSP/STM32469I-Discovery/stm32469i_discovery.c ****     gpio_init_structure.Speed = GPIO_SPEED_FAST;
 1542              		.loc 1 333 30 is_stmt 0 view .LVU332
 1543 004a 0024     		movs	r4, #0
 1544 004c 0394     		str	r4, [sp, #12]
 334:/home/paulo/Alexandria/STM32Cube_FW_F4_V1.23.0/Drivers/BSP/STM32469I-Discovery/stm32469i_discovery.c **** 
 1545              		.loc 1 334 5 is_stmt 1 view .LVU333
 334:/home/paulo/Alexandria/STM32Cube_FW_F4_V1.23.0/Drivers/BSP/STM32469I-Discovery/stm32469i_discovery.c **** 
 1546              		.loc 1 334 31 is_stmt 0 view .LVU334
 1547 004e 0223     		movs	r3, #2
 1548 0050 0493     		str	r3, [sp, #16]
 336:/home/paulo/Alexandria/STM32Cube_FW_F4_V1.23.0/Drivers/BSP/STM32469I-Discovery/stm32469i_discovery.c **** 
 1549              		.loc 1 336 5 is_stmt 1 view .LVU335
 336:/home/paulo/Alexandria/STM32Cube_FW_F4_V1.23.0/Drivers/BSP/STM32469I-Discovery/stm32469i_discovery.c **** 
 1550              		.loc 1 336 30 is_stmt 0 view .LVU336
 1551 0052 0A4B     		ldr	r3, .L128+8
 1552 0054 0293     		str	r3, [sp, #8]
 338:/home/paulo/Alexandria/STM32Cube_FW_F4_V1.23.0/Drivers/BSP/STM32469I-Discovery/stm32469i_discovery.c **** 
 1553              		.loc 1 338 5 is_stmt 1 view .LVU337
 1554 0056 01A9     		add	r1, sp, #4
 1555 0058 074B     		ldr	r3, .L128+4
 1556 005a 53F82500 		ldr	r0, [r3, r5, lsl #2]
 1557 005e FFF7FEFF 		bl	HAL_GPIO_Init
 1558              	.LVL118:
 341:/home/paulo/Alexandria/STM32Cube_FW_F4_V1.23.0/Drivers/BSP/STM32469I-Discovery/stm32469i_discovery.c ****     HAL_NVIC_EnableIRQ((IRQn_Type)(BUTTON_IRQn[Button]));
 1559              		.loc 1 341 5 view .LVU338
 1560 0062 2246     		mov	r2, r4
 1561 0064 0F21     		movs	r1, #15
 1562 0066 0620     		movs	r0, #6
 1563 0068 FFF7FEFF 		bl	HAL_NVIC_SetPriority
 1564              	.LVL119:
 342:/home/paulo/Alexandria/STM32Cube_FW_F4_V1.23.0/Drivers/BSP/STM32469I-Discovery/stm32469i_discovery.c ****   }
 1565              		.loc 1 342 5 view .LVU339
 1566 006c 0620     		movs	r0, #6
 1567 006e FFF7FEFF 		bl	HAL_NVIC_EnableIRQ
 1568              	.LVL120:
 344:/home/paulo/Alexandria/STM32Cube_FW_F4_V1.23.0/Drivers/BSP/STM32469I-Discovery/stm32469i_discovery.c **** 
 1569              		.loc 1 344 1 is_stmt 0 view .LVU340
 1570 0072 D8E7     		b	.L122
 1571              	.L129:
 1572              		.align	2
 1573              	.L128:
 1574 0074 00380240 		.word	1073887232
 1575 0078 00000000 		.word	.LANCHOR4
 1576 007c 00001110 		.word	269549568
 1577              		.cfi_endproc
 1578              	.LFE132:
 1580              		.section	.text.BSP_PB_DeInit,"ax",%progbits
 1581              		.align	1
 1582              		.global	BSP_PB_DeInit
 1583              		.syntax unified
 1584              		.thumb
ARM GAS  /tmp/cc7YGL8m.s 			page 46


 1585              		.thumb_func
 1586              		.fpu fpv4-sp-d16
 1588              	BSP_PB_DeInit:
 1589              	.LVL121:
 1590              	.LFB133:
 355:/home/paulo/Alexandria/STM32Cube_FW_F4_V1.23.0/Drivers/BSP/STM32469I-Discovery/stm32469i_discovery.c ****     GPIO_InitTypeDef gpio_init_structure;
 1591              		.loc 1 355 1 is_stmt 1 view -0
 1592              		.cfi_startproc
 1593              		@ args = 0, pretend = 0, frame = 0
 1594              		@ frame_needed = 0, uses_anonymous_args = 0
 355:/home/paulo/Alexandria/STM32Cube_FW_F4_V1.23.0/Drivers/BSP/STM32469I-Discovery/stm32469i_discovery.c ****     GPIO_InitTypeDef gpio_init_structure;
 1595              		.loc 1 355 1 is_stmt 0 view .LVU342
 1596 0000 10B5     		push	{r4, lr}
 1597              	.LCFI48:
 1598              		.cfi_def_cfa_offset 8
 1599              		.cfi_offset 4, -8
 1600              		.cfi_offset 14, -4
 1601 0002 0446     		mov	r4, r0
 356:/home/paulo/Alexandria/STM32Cube_FW_F4_V1.23.0/Drivers/BSP/STM32469I-Discovery/stm32469i_discovery.c **** 
 1602              		.loc 1 356 5 is_stmt 1 view .LVU343
 358:/home/paulo/Alexandria/STM32Cube_FW_F4_V1.23.0/Drivers/BSP/STM32469I-Discovery/stm32469i_discovery.c ****     HAL_NVIC_DisableIRQ((IRQn_Type)(BUTTON_IRQn[Button]));
 1603              		.loc 1 358 5 view .LVU344
 359:/home/paulo/Alexandria/STM32Cube_FW_F4_V1.23.0/Drivers/BSP/STM32469I-Discovery/stm32469i_discovery.c ****     HAL_GPIO_DeInit(BUTTON_PORT[Button], gpio_init_structure.Pin);
 1604              		.loc 1 359 5 view .LVU345
 1605 0004 0620     		movs	r0, #6
 1606              	.LVL122:
 359:/home/paulo/Alexandria/STM32Cube_FW_F4_V1.23.0/Drivers/BSP/STM32469I-Discovery/stm32469i_discovery.c ****     HAL_GPIO_DeInit(BUTTON_PORT[Button], gpio_init_structure.Pin);
 1607              		.loc 1 359 5 is_stmt 0 view .LVU346
 1608 0006 FFF7FEFF 		bl	HAL_NVIC_DisableIRQ
 1609              	.LVL123:
 360:/home/paulo/Alexandria/STM32Cube_FW_F4_V1.23.0/Drivers/BSP/STM32469I-Discovery/stm32469i_discovery.c **** }
 1610              		.loc 1 360 5 is_stmt 1 view .LVU347
 1611 000a 0121     		movs	r1, #1
 1612 000c 024B     		ldr	r3, .L132
 1613 000e 53F82400 		ldr	r0, [r3, r4, lsl #2]
 1614 0012 FFF7FEFF 		bl	HAL_GPIO_DeInit
 1615              	.LVL124:
 361:/home/paulo/Alexandria/STM32Cube_FW_F4_V1.23.0/Drivers/BSP/STM32469I-Discovery/stm32469i_discovery.c **** 
 1616              		.loc 1 361 1 is_stmt 0 view .LVU348
 1617 0016 10BD     		pop	{r4, pc}
 1618              	.L133:
 1619              		.align	2
 1620              	.L132:
 1621 0018 00000000 		.word	.LANCHOR4
 1622              		.cfi_endproc
 1623              	.LFE133:
 1625              		.section	.text.BSP_PB_GetState,"ax",%progbits
 1626              		.align	1
 1627              		.global	BSP_PB_GetState
 1628              		.syntax unified
 1629              		.thumb
 1630              		.thumb_func
 1631              		.fpu fpv4-sp-d16
 1633              	BSP_PB_GetState:
 1634              	.LVL125:
 1635              	.LFB134:
 373:/home/paulo/Alexandria/STM32Cube_FW_F4_V1.23.0/Drivers/BSP/STM32469I-Discovery/stm32469i_discovery.c ****   return HAL_GPIO_ReadPin(BUTTON_PORT[Button], BUTTON_PIN[Button]);
ARM GAS  /tmp/cc7YGL8m.s 			page 47


 1636              		.loc 1 373 1 is_stmt 1 view -0
 1637              		.cfi_startproc
 1638              		@ args = 0, pretend = 0, frame = 0
 1639              		@ frame_needed = 0, uses_anonymous_args = 0
 373:/home/paulo/Alexandria/STM32Cube_FW_F4_V1.23.0/Drivers/BSP/STM32469I-Discovery/stm32469i_discovery.c ****   return HAL_GPIO_ReadPin(BUTTON_PORT[Button], BUTTON_PIN[Button]);
 1640              		.loc 1 373 1 is_stmt 0 view .LVU350
 1641 0000 08B5     		push	{r3, lr}
 1642              	.LCFI49:
 1643              		.cfi_def_cfa_offset 8
 1644              		.cfi_offset 3, -8
 1645              		.cfi_offset 14, -4
 374:/home/paulo/Alexandria/STM32Cube_FW_F4_V1.23.0/Drivers/BSP/STM32469I-Discovery/stm32469i_discovery.c **** }
 1646              		.loc 1 374 3 is_stmt 1 view .LVU351
 374:/home/paulo/Alexandria/STM32Cube_FW_F4_V1.23.0/Drivers/BSP/STM32469I-Discovery/stm32469i_discovery.c **** }
 1647              		.loc 1 374 10 is_stmt 0 view .LVU352
 1648 0002 0121     		movs	r1, #1
 1649 0004 024B     		ldr	r3, .L136
 1650 0006 53F82000 		ldr	r0, [r3, r0, lsl #2]
 1651              	.LVL126:
 374:/home/paulo/Alexandria/STM32Cube_FW_F4_V1.23.0/Drivers/BSP/STM32469I-Discovery/stm32469i_discovery.c **** }
 1652              		.loc 1 374 10 view .LVU353
 1653 000a FFF7FEFF 		bl	HAL_GPIO_ReadPin
 1654              	.LVL127:
 375:/home/paulo/Alexandria/STM32Cube_FW_F4_V1.23.0/Drivers/BSP/STM32469I-Discovery/stm32469i_discovery.c **** 
 1655              		.loc 1 375 1 view .LVU354
 1656 000e 08BD     		pop	{r3, pc}
 1657              	.L137:
 1658              		.align	2
 1659              	.L136:
 1660 0010 00000000 		.word	.LANCHOR4
 1661              		.cfi_endproc
 1662              	.LFE134:
 1664              		.section	.text.AUDIO_IO_Init,"ax",%progbits
 1665              		.align	1
 1666              		.global	AUDIO_IO_Init
 1667              		.syntax unified
 1668              		.thumb
 1669              		.thumb_func
 1670              		.fpu fpv4-sp-d16
 1672              	AUDIO_IO_Init:
 1673              	.LFB148:
 726:/home/paulo/Alexandria/STM32Cube_FW_F4_V1.23.0/Drivers/BSP/STM32469I-Discovery/stm32469i_discovery.c **** 
 727:/home/paulo/Alexandria/STM32Cube_FW_F4_V1.23.0/Drivers/BSP/STM32469I-Discovery/stm32469i_discovery.c **** /**
 728:/home/paulo/Alexandria/STM32Cube_FW_F4_V1.23.0/Drivers/BSP/STM32469I-Discovery/stm32469i_discovery.c ****   * @}
 729:/home/paulo/Alexandria/STM32Cube_FW_F4_V1.23.0/Drivers/BSP/STM32469I-Discovery/stm32469i_discovery.c ****   */
 730:/home/paulo/Alexandria/STM32Cube_FW_F4_V1.23.0/Drivers/BSP/STM32469I-Discovery/stm32469i_discovery.c **** 
 731:/home/paulo/Alexandria/STM32Cube_FW_F4_V1.23.0/Drivers/BSP/STM32469I-Discovery/stm32469i_discovery.c **** /*******************************************************************************
 732:/home/paulo/Alexandria/STM32Cube_FW_F4_V1.23.0/Drivers/BSP/STM32469I-Discovery/stm32469i_discovery.c ****                             LINK OPERATIONS
 733:/home/paulo/Alexandria/STM32Cube_FW_F4_V1.23.0/Drivers/BSP/STM32469I-Discovery/stm32469i_discovery.c **** *******************************************************************************/
 734:/home/paulo/Alexandria/STM32Cube_FW_F4_V1.23.0/Drivers/BSP/STM32469I-Discovery/stm32469i_discovery.c **** 
 735:/home/paulo/Alexandria/STM32Cube_FW_F4_V1.23.0/Drivers/BSP/STM32469I-Discovery/stm32469i_discovery.c **** /********************************* LINK AUDIO *********************************/
 736:/home/paulo/Alexandria/STM32Cube_FW_F4_V1.23.0/Drivers/BSP/STM32469I-Discovery/stm32469i_discovery.c **** 
 737:/home/paulo/Alexandria/STM32Cube_FW_F4_V1.23.0/Drivers/BSP/STM32469I-Discovery/stm32469i_discovery.c **** /**
 738:/home/paulo/Alexandria/STM32Cube_FW_F4_V1.23.0/Drivers/BSP/STM32469I-Discovery/stm32469i_discovery.c ****   * @brief  Initializes Audio low level.
 739:/home/paulo/Alexandria/STM32Cube_FW_F4_V1.23.0/Drivers/BSP/STM32469I-Discovery/stm32469i_discovery.c ****   */
 740:/home/paulo/Alexandria/STM32Cube_FW_F4_V1.23.0/Drivers/BSP/STM32469I-Discovery/stm32469i_discovery.c **** void AUDIO_IO_Init(void)
 741:/home/paulo/Alexandria/STM32Cube_FW_F4_V1.23.0/Drivers/BSP/STM32469I-Discovery/stm32469i_discovery.c **** {
ARM GAS  /tmp/cc7YGL8m.s 			page 48


 1674              		.loc 1 741 1 is_stmt 1 view -0
 1675              		.cfi_startproc
 1676              		@ args = 0, pretend = 0, frame = 0
 1677              		@ frame_needed = 0, uses_anonymous_args = 0
 1678 0000 08B5     		push	{r3, lr}
 1679              	.LCFI50:
 1680              		.cfi_def_cfa_offset 8
 1681              		.cfi_offset 3, -8
 1682              		.cfi_offset 14, -4
 742:/home/paulo/Alexandria/STM32Cube_FW_F4_V1.23.0/Drivers/BSP/STM32469I-Discovery/stm32469i_discovery.c ****   I2C2_Init();
 1683              		.loc 1 742 3 view .LVU356
 1684 0002 FFF7FEFF 		bl	I2C2_Init
 1685              	.LVL128:
 743:/home/paulo/Alexandria/STM32Cube_FW_F4_V1.23.0/Drivers/BSP/STM32469I-Discovery/stm32469i_discovery.c **** }
 1686              		.loc 1 743 1 is_stmt 0 view .LVU357
 1687 0006 08BD     		pop	{r3, pc}
 1688              		.cfi_endproc
 1689              	.LFE148:
 1691              		.section	.text.AUDIO_IO_DeInit,"ax",%progbits
 1692              		.align	1
 1693              		.global	AUDIO_IO_DeInit
 1694              		.syntax unified
 1695              		.thumb
 1696              		.thumb_func
 1697              		.fpu fpv4-sp-d16
 1699              	AUDIO_IO_DeInit:
 1700              	.LFB149:
 744:/home/paulo/Alexandria/STM32Cube_FW_F4_V1.23.0/Drivers/BSP/STM32469I-Discovery/stm32469i_discovery.c **** 
 745:/home/paulo/Alexandria/STM32Cube_FW_F4_V1.23.0/Drivers/BSP/STM32469I-Discovery/stm32469i_discovery.c **** /**
 746:/home/paulo/Alexandria/STM32Cube_FW_F4_V1.23.0/Drivers/BSP/STM32469I-Discovery/stm32469i_discovery.c ****   * @brief  DeInitializes Audio low level.
 747:/home/paulo/Alexandria/STM32Cube_FW_F4_V1.23.0/Drivers/BSP/STM32469I-Discovery/stm32469i_discovery.c ****   */
 748:/home/paulo/Alexandria/STM32Cube_FW_F4_V1.23.0/Drivers/BSP/STM32469I-Discovery/stm32469i_discovery.c **** void AUDIO_IO_DeInit(void)
 749:/home/paulo/Alexandria/STM32Cube_FW_F4_V1.23.0/Drivers/BSP/STM32469I-Discovery/stm32469i_discovery.c **** {
 1701              		.loc 1 749 1 is_stmt 1 view -0
 1702              		.cfi_startproc
 1703              		@ args = 0, pretend = 0, frame = 0
 1704              		@ frame_needed = 0, uses_anonymous_args = 0
 1705              		@ link register save eliminated.
 750:/home/paulo/Alexandria/STM32Cube_FW_F4_V1.23.0/Drivers/BSP/STM32469I-Discovery/stm32469i_discovery.c **** 
 751:/home/paulo/Alexandria/STM32Cube_FW_F4_V1.23.0/Drivers/BSP/STM32469I-Discovery/stm32469i_discovery.c **** }
 1706              		.loc 1 751 1 view .LVU359
 1707 0000 7047     		bx	lr
 1708              		.cfi_endproc
 1709              	.LFE149:
 1711              		.section	.text.AUDIO_IO_Write,"ax",%progbits
 1712              		.align	1
 1713              		.global	AUDIO_IO_Write
 1714              		.syntax unified
 1715              		.thumb
 1716              		.thumb_func
 1717              		.fpu fpv4-sp-d16
 1719              	AUDIO_IO_Write:
 1720              	.LVL129:
 1721              	.LFB150:
 752:/home/paulo/Alexandria/STM32Cube_FW_F4_V1.23.0/Drivers/BSP/STM32469I-Discovery/stm32469i_discovery.c **** 
 753:/home/paulo/Alexandria/STM32Cube_FW_F4_V1.23.0/Drivers/BSP/STM32469I-Discovery/stm32469i_discovery.c **** /**
 754:/home/paulo/Alexandria/STM32Cube_FW_F4_V1.23.0/Drivers/BSP/STM32469I-Discovery/stm32469i_discovery.c ****   * @brief  Writes a single data.
ARM GAS  /tmp/cc7YGL8m.s 			page 49


 755:/home/paulo/Alexandria/STM32Cube_FW_F4_V1.23.0/Drivers/BSP/STM32469I-Discovery/stm32469i_discovery.c ****   * @param  Addr: I2C address
 756:/home/paulo/Alexandria/STM32Cube_FW_F4_V1.23.0/Drivers/BSP/STM32469I-Discovery/stm32469i_discovery.c ****   * @param  Reg: Reg address
 757:/home/paulo/Alexandria/STM32Cube_FW_F4_V1.23.0/Drivers/BSP/STM32469I-Discovery/stm32469i_discovery.c ****   * @param  Value: Data to be written
 758:/home/paulo/Alexandria/STM32Cube_FW_F4_V1.23.0/Drivers/BSP/STM32469I-Discovery/stm32469i_discovery.c ****   */
 759:/home/paulo/Alexandria/STM32Cube_FW_F4_V1.23.0/Drivers/BSP/STM32469I-Discovery/stm32469i_discovery.c **** void AUDIO_IO_Write(uint8_t Addr, uint8_t Reg, uint8_t Value)
 760:/home/paulo/Alexandria/STM32Cube_FW_F4_V1.23.0/Drivers/BSP/STM32469I-Discovery/stm32469i_discovery.c **** {
 1722              		.loc 1 760 1 view -0
 1723              		.cfi_startproc
 1724              		@ args = 0, pretend = 0, frame = 8
 1725              		@ frame_needed = 0, uses_anonymous_args = 0
 1726              		.loc 1 760 1 is_stmt 0 view .LVU361
 1727 0000 00B5     		push	{lr}
 1728              	.LCFI51:
 1729              		.cfi_def_cfa_offset 4
 1730              		.cfi_offset 14, -4
 1731 0002 85B0     		sub	sp, sp, #20
 1732              	.LCFI52:
 1733              		.cfi_def_cfa_offset 24
 1734 0004 8DF80F20 		strb	r2, [sp, #15]
 761:/home/paulo/Alexandria/STM32Cube_FW_F4_V1.23.0/Drivers/BSP/STM32469I-Discovery/stm32469i_discovery.c ****   I2C2_WriteMultiple(Addr, (uint16_t) Reg, I2C_MEMADD_SIZE_8BIT, (uint8_t*)&Value, 1);
 1735              		.loc 1 761 3 is_stmt 1 view .LVU362
 1736 0008 0122     		movs	r2, #1
 1737              	.LVL130:
 1738              		.loc 1 761 3 is_stmt 0 view .LVU363
 1739 000a 0092     		str	r2, [sp]
 1740 000c 0DF10F03 		add	r3, sp, #15
 1741              	.LVL131:
 1742              		.loc 1 761 3 view .LVU364
 1743 0010 FFF7FEFF 		bl	I2C2_WriteMultiple
 1744              	.LVL132:
 762:/home/paulo/Alexandria/STM32Cube_FW_F4_V1.23.0/Drivers/BSP/STM32469I-Discovery/stm32469i_discovery.c **** }
 1745              		.loc 1 762 1 view .LVU365
 1746 0014 05B0     		add	sp, sp, #20
 1747              	.LCFI53:
 1748              		.cfi_def_cfa_offset 4
 1749              		@ sp needed
 1750 0016 5DF804FB 		ldr	pc, [sp], #4
 1751              		.cfi_endproc
 1752              	.LFE150:
 1754              		.section	.text.AUDIO_IO_Read,"ax",%progbits
 1755              		.align	1
 1756              		.global	AUDIO_IO_Read
 1757              		.syntax unified
 1758              		.thumb
 1759              		.thumb_func
 1760              		.fpu fpv4-sp-d16
 1762              	AUDIO_IO_Read:
 1763              	.LVL133:
 1764              	.LFB151:
 763:/home/paulo/Alexandria/STM32Cube_FW_F4_V1.23.0/Drivers/BSP/STM32469I-Discovery/stm32469i_discovery.c **** 
 764:/home/paulo/Alexandria/STM32Cube_FW_F4_V1.23.0/Drivers/BSP/STM32469I-Discovery/stm32469i_discovery.c **** /**
 765:/home/paulo/Alexandria/STM32Cube_FW_F4_V1.23.0/Drivers/BSP/STM32469I-Discovery/stm32469i_discovery.c ****   * @brief  Reads a single data.
 766:/home/paulo/Alexandria/STM32Cube_FW_F4_V1.23.0/Drivers/BSP/STM32469I-Discovery/stm32469i_discovery.c ****   * @param  Addr: I2C address
 767:/home/paulo/Alexandria/STM32Cube_FW_F4_V1.23.0/Drivers/BSP/STM32469I-Discovery/stm32469i_discovery.c ****   * @param  Reg: Reg address
 768:/home/paulo/Alexandria/STM32Cube_FW_F4_V1.23.0/Drivers/BSP/STM32469I-Discovery/stm32469i_discovery.c ****   * @retval Data to be read
 769:/home/paulo/Alexandria/STM32Cube_FW_F4_V1.23.0/Drivers/BSP/STM32469I-Discovery/stm32469i_discovery.c ****   */
 770:/home/paulo/Alexandria/STM32Cube_FW_F4_V1.23.0/Drivers/BSP/STM32469I-Discovery/stm32469i_discovery.c **** uint8_t AUDIO_IO_Read(uint8_t Addr, uint8_t Reg)
ARM GAS  /tmp/cc7YGL8m.s 			page 50


 771:/home/paulo/Alexandria/STM32Cube_FW_F4_V1.23.0/Drivers/BSP/STM32469I-Discovery/stm32469i_discovery.c **** {
 1765              		.loc 1 771 1 is_stmt 1 view -0
 1766              		.cfi_startproc
 1767              		@ args = 0, pretend = 0, frame = 8
 1768              		@ frame_needed = 0, uses_anonymous_args = 0
 1769              		.loc 1 771 1 is_stmt 0 view .LVU367
 1770 0000 00B5     		push	{lr}
 1771              	.LCFI54:
 1772              		.cfi_def_cfa_offset 4
 1773              		.cfi_offset 14, -4
 1774 0002 85B0     		sub	sp, sp, #20
 1775              	.LCFI55:
 1776              		.cfi_def_cfa_offset 24
 772:/home/paulo/Alexandria/STM32Cube_FW_F4_V1.23.0/Drivers/BSP/STM32469I-Discovery/stm32469i_discovery.c ****   uint8_t read_value = 0;
 1777              		.loc 1 772 3 is_stmt 1 view .LVU368
 1778              		.loc 1 772 11 is_stmt 0 view .LVU369
 1779 0004 0023     		movs	r3, #0
 1780 0006 8DF80F30 		strb	r3, [sp, #15]
 773:/home/paulo/Alexandria/STM32Cube_FW_F4_V1.23.0/Drivers/BSP/STM32469I-Discovery/stm32469i_discovery.c **** 
 774:/home/paulo/Alexandria/STM32Cube_FW_F4_V1.23.0/Drivers/BSP/STM32469I-Discovery/stm32469i_discovery.c ****   I2C2_ReadMultiple(Addr, (uint16_t) Reg, I2C_MEMADD_SIZE_8BIT, (uint8_t*)&read_value, 1);
 1781              		.loc 1 774 3 is_stmt 1 view .LVU370
 1782 000a 0122     		movs	r2, #1
 1783 000c 0092     		str	r2, [sp]
 1784 000e 0DF10F03 		add	r3, sp, #15
 1785 0012 FFF7FEFF 		bl	I2C2_ReadMultiple
 1786              	.LVL134:
 775:/home/paulo/Alexandria/STM32Cube_FW_F4_V1.23.0/Drivers/BSP/STM32469I-Discovery/stm32469i_discovery.c **** 
 776:/home/paulo/Alexandria/STM32Cube_FW_F4_V1.23.0/Drivers/BSP/STM32469I-Discovery/stm32469i_discovery.c ****   return read_value;
 1787              		.loc 1 776 3 view .LVU371
 777:/home/paulo/Alexandria/STM32Cube_FW_F4_V1.23.0/Drivers/BSP/STM32469I-Discovery/stm32469i_discovery.c **** }
 1788              		.loc 1 777 1 is_stmt 0 view .LVU372
 1789 0016 9DF80F00 		ldrb	r0, [sp, #15]	@ zero_extendqisi2
 1790 001a 05B0     		add	sp, sp, #20
 1791              	.LCFI56:
 1792              		.cfi_def_cfa_offset 4
 1793              		@ sp needed
 1794 001c 5DF804FB 		ldr	pc, [sp], #4
 1795              		.cfi_endproc
 1796              	.LFE151:
 1798              		.section	.text.AUDIO_IO_Delay,"ax",%progbits
 1799              		.align	1
 1800              		.global	AUDIO_IO_Delay
 1801              		.syntax unified
 1802              		.thumb
 1803              		.thumb_func
 1804              		.fpu fpv4-sp-d16
 1806              	AUDIO_IO_Delay:
 1807              	.LVL135:
 1808              	.LFB152:
 778:/home/paulo/Alexandria/STM32Cube_FW_F4_V1.23.0/Drivers/BSP/STM32469I-Discovery/stm32469i_discovery.c **** 
 779:/home/paulo/Alexandria/STM32Cube_FW_F4_V1.23.0/Drivers/BSP/STM32469I-Discovery/stm32469i_discovery.c **** /**
 780:/home/paulo/Alexandria/STM32Cube_FW_F4_V1.23.0/Drivers/BSP/STM32469I-Discovery/stm32469i_discovery.c ****   * @brief  AUDIO Codec delay
 781:/home/paulo/Alexandria/STM32Cube_FW_F4_V1.23.0/Drivers/BSP/STM32469I-Discovery/stm32469i_discovery.c ****   * @param  Delay: Delay in ms
 782:/home/paulo/Alexandria/STM32Cube_FW_F4_V1.23.0/Drivers/BSP/STM32469I-Discovery/stm32469i_discovery.c ****   */
 783:/home/paulo/Alexandria/STM32Cube_FW_F4_V1.23.0/Drivers/BSP/STM32469I-Discovery/stm32469i_discovery.c **** void AUDIO_IO_Delay(uint32_t Delay)
 784:/home/paulo/Alexandria/STM32Cube_FW_F4_V1.23.0/Drivers/BSP/STM32469I-Discovery/stm32469i_discovery.c **** {
 1809              		.loc 1 784 1 is_stmt 1 view -0
ARM GAS  /tmp/cc7YGL8m.s 			page 51


 1810              		.cfi_startproc
 1811              		@ args = 0, pretend = 0, frame = 0
 1812              		@ frame_needed = 0, uses_anonymous_args = 0
 1813              		.loc 1 784 1 is_stmt 0 view .LVU374
 1814 0000 08B5     		push	{r3, lr}
 1815              	.LCFI57:
 1816              		.cfi_def_cfa_offset 8
 1817              		.cfi_offset 3, -8
 1818              		.cfi_offset 14, -4
 785:/home/paulo/Alexandria/STM32Cube_FW_F4_V1.23.0/Drivers/BSP/STM32469I-Discovery/stm32469i_discovery.c ****   HAL_Delay(Delay);
 1819              		.loc 1 785 3 is_stmt 1 view .LVU375
 1820 0002 FFF7FEFF 		bl	HAL_Delay
 1821              	.LVL136:
 786:/home/paulo/Alexandria/STM32Cube_FW_F4_V1.23.0/Drivers/BSP/STM32469I-Discovery/stm32469i_discovery.c **** }
 1822              		.loc 1 786 1 is_stmt 0 view .LVU376
 1823 0006 08BD     		pop	{r3, pc}
 1824              		.cfi_endproc
 1825              	.LFE152:
 1827              		.section	.text.EEPROM_IO_Init,"ax",%progbits
 1828              		.align	1
 1829              		.global	EEPROM_IO_Init
 1830              		.syntax unified
 1831              		.thumb
 1832              		.thumb_func
 1833              		.fpu fpv4-sp-d16
 1835              	EEPROM_IO_Init:
 1836              	.LFB153:
 787:/home/paulo/Alexandria/STM32Cube_FW_F4_V1.23.0/Drivers/BSP/STM32469I-Discovery/stm32469i_discovery.c **** 
 788:/home/paulo/Alexandria/STM32Cube_FW_F4_V1.23.0/Drivers/BSP/STM32469I-Discovery/stm32469i_discovery.c **** /******************************** LINK I2C EEPROM *****************************/
 789:/home/paulo/Alexandria/STM32Cube_FW_F4_V1.23.0/Drivers/BSP/STM32469I-Discovery/stm32469i_discovery.c **** 
 790:/home/paulo/Alexandria/STM32Cube_FW_F4_V1.23.0/Drivers/BSP/STM32469I-Discovery/stm32469i_discovery.c **** /**
 791:/home/paulo/Alexandria/STM32Cube_FW_F4_V1.23.0/Drivers/BSP/STM32469I-Discovery/stm32469i_discovery.c ****   * @brief  Initializes peripherals used by the I2C EEPROM driver.
 792:/home/paulo/Alexandria/STM32Cube_FW_F4_V1.23.0/Drivers/BSP/STM32469I-Discovery/stm32469i_discovery.c ****   */
 793:/home/paulo/Alexandria/STM32Cube_FW_F4_V1.23.0/Drivers/BSP/STM32469I-Discovery/stm32469i_discovery.c **** void EEPROM_IO_Init(void)
 794:/home/paulo/Alexandria/STM32Cube_FW_F4_V1.23.0/Drivers/BSP/STM32469I-Discovery/stm32469i_discovery.c **** {
 1837              		.loc 1 794 1 is_stmt 1 view -0
 1838              		.cfi_startproc
 1839              		@ args = 0, pretend = 0, frame = 0
 1840              		@ frame_needed = 0, uses_anonymous_args = 0
 1841 0000 08B5     		push	{r3, lr}
 1842              	.LCFI58:
 1843              		.cfi_def_cfa_offset 8
 1844              		.cfi_offset 3, -8
 1845              		.cfi_offset 14, -4
 795:/home/paulo/Alexandria/STM32Cube_FW_F4_V1.23.0/Drivers/BSP/STM32469I-Discovery/stm32469i_discovery.c ****   I2C1_Init();
 1846              		.loc 1 795 3 view .LVU378
 1847 0002 FFF7FEFF 		bl	I2C1_Init
 1848              	.LVL137:
 796:/home/paulo/Alexandria/STM32Cube_FW_F4_V1.23.0/Drivers/BSP/STM32469I-Discovery/stm32469i_discovery.c **** }
 1849              		.loc 1 796 1 is_stmt 0 view .LVU379
 1850 0006 08BD     		pop	{r3, pc}
 1851              		.cfi_endproc
 1852              	.LFE153:
 1854              		.section	.text.EEPROM_IO_WriteData,"ax",%progbits
 1855              		.align	1
 1856              		.global	EEPROM_IO_WriteData
 1857              		.syntax unified
ARM GAS  /tmp/cc7YGL8m.s 			page 52


 1858              		.thumb
 1859              		.thumb_func
 1860              		.fpu fpv4-sp-d16
 1862              	EEPROM_IO_WriteData:
 1863              	.LVL138:
 1864              	.LFB154:
 797:/home/paulo/Alexandria/STM32Cube_FW_F4_V1.23.0/Drivers/BSP/STM32469I-Discovery/stm32469i_discovery.c **** 
 798:/home/paulo/Alexandria/STM32Cube_FW_F4_V1.23.0/Drivers/BSP/STM32469I-Discovery/stm32469i_discovery.c **** /**
 799:/home/paulo/Alexandria/STM32Cube_FW_F4_V1.23.0/Drivers/BSP/STM32469I-Discovery/stm32469i_discovery.c ****   * @brief  Write data to I2C EEPROM driver in using DMA channel.
 800:/home/paulo/Alexandria/STM32Cube_FW_F4_V1.23.0/Drivers/BSP/STM32469I-Discovery/stm32469i_discovery.c ****   * @param  DevAddress: Target device address
 801:/home/paulo/Alexandria/STM32Cube_FW_F4_V1.23.0/Drivers/BSP/STM32469I-Discovery/stm32469i_discovery.c ****   * @param  MemAddress: Internal memory address
 802:/home/paulo/Alexandria/STM32Cube_FW_F4_V1.23.0/Drivers/BSP/STM32469I-Discovery/stm32469i_discovery.c ****   * @param  pBuffer: Pointer to data buffer
 803:/home/paulo/Alexandria/STM32Cube_FW_F4_V1.23.0/Drivers/BSP/STM32469I-Discovery/stm32469i_discovery.c ****   * @param  BufferSize: Amount of data to be sent
 804:/home/paulo/Alexandria/STM32Cube_FW_F4_V1.23.0/Drivers/BSP/STM32469I-Discovery/stm32469i_discovery.c ****   * @retval HAL status
 805:/home/paulo/Alexandria/STM32Cube_FW_F4_V1.23.0/Drivers/BSP/STM32469I-Discovery/stm32469i_discovery.c ****   */
 806:/home/paulo/Alexandria/STM32Cube_FW_F4_V1.23.0/Drivers/BSP/STM32469I-Discovery/stm32469i_discovery.c **** HAL_StatusTypeDef EEPROM_IO_WriteData(uint16_t DevAddress, uint16_t MemAddress, uint8_t* pBuffer, u
 807:/home/paulo/Alexandria/STM32Cube_FW_F4_V1.23.0/Drivers/BSP/STM32469I-Discovery/stm32469i_discovery.c **** {
 1865              		.loc 1 807 1 is_stmt 1 view -0
 1866              		.cfi_startproc
 1867              		@ args = 0, pretend = 0, frame = 0
 1868              		@ frame_needed = 0, uses_anonymous_args = 0
 1869              		.loc 1 807 1 is_stmt 0 view .LVU381
 1870 0000 00B5     		push	{lr}
 1871              	.LCFI59:
 1872              		.cfi_def_cfa_offset 4
 1873              		.cfi_offset 14, -4
 1874 0002 83B0     		sub	sp, sp, #12
 1875              	.LCFI60:
 1876              		.cfi_def_cfa_offset 16
 808:/home/paulo/Alexandria/STM32Cube_FW_F4_V1.23.0/Drivers/BSP/STM32469I-Discovery/stm32469i_discovery.c ****   return (I2C1_WriteMultiple(DevAddress, MemAddress, I2C_MEMADD_SIZE_16BIT, pBuffer, BufferSize));
 1877              		.loc 1 808 3 is_stmt 1 view .LVU382
 1878              		.loc 1 808 11 is_stmt 0 view .LVU383
 1879 0004 9BB2     		uxth	r3, r3
 1880              	.LVL139:
 1881              		.loc 1 808 11 view .LVU384
 1882 0006 0093     		str	r3, [sp]
 1883 0008 1346     		mov	r3, r2
 1884 000a 1022     		movs	r2, #16
 1885              	.LVL140:
 1886              		.loc 1 808 11 view .LVU385
 1887 000c C0B2     		uxtb	r0, r0
 1888              	.LVL141:
 1889              		.loc 1 808 11 view .LVU386
 1890 000e FFF7FEFF 		bl	I2C1_WriteMultiple
 1891              	.LVL142:
 809:/home/paulo/Alexandria/STM32Cube_FW_F4_V1.23.0/Drivers/BSP/STM32469I-Discovery/stm32469i_discovery.c **** }
 1892              		.loc 1 809 1 view .LVU387
 1893 0012 03B0     		add	sp, sp, #12
 1894              	.LCFI61:
 1895              		.cfi_def_cfa_offset 4
 1896              		@ sp needed
 1897 0014 5DF804FB 		ldr	pc, [sp], #4
 1898              		.cfi_endproc
 1899              	.LFE154:
 1901              		.section	.text.EEPROM_IO_ReadData,"ax",%progbits
 1902              		.align	1
 1903              		.global	EEPROM_IO_ReadData
ARM GAS  /tmp/cc7YGL8m.s 			page 53


 1904              		.syntax unified
 1905              		.thumb
 1906              		.thumb_func
 1907              		.fpu fpv4-sp-d16
 1909              	EEPROM_IO_ReadData:
 1910              	.LVL143:
 1911              	.LFB155:
 810:/home/paulo/Alexandria/STM32Cube_FW_F4_V1.23.0/Drivers/BSP/STM32469I-Discovery/stm32469i_discovery.c **** 
 811:/home/paulo/Alexandria/STM32Cube_FW_F4_V1.23.0/Drivers/BSP/STM32469I-Discovery/stm32469i_discovery.c **** /**
 812:/home/paulo/Alexandria/STM32Cube_FW_F4_V1.23.0/Drivers/BSP/STM32469I-Discovery/stm32469i_discovery.c ****   * @brief  Read data from I2C EEPROM driver in using DMA channel.
 813:/home/paulo/Alexandria/STM32Cube_FW_F4_V1.23.0/Drivers/BSP/STM32469I-Discovery/stm32469i_discovery.c ****   * @param  DevAddress: Target device address
 814:/home/paulo/Alexandria/STM32Cube_FW_F4_V1.23.0/Drivers/BSP/STM32469I-Discovery/stm32469i_discovery.c ****   * @param  MemAddress: Internal memory address
 815:/home/paulo/Alexandria/STM32Cube_FW_F4_V1.23.0/Drivers/BSP/STM32469I-Discovery/stm32469i_discovery.c ****   * @param  pBuffer: Pointer to data buffer
 816:/home/paulo/Alexandria/STM32Cube_FW_F4_V1.23.0/Drivers/BSP/STM32469I-Discovery/stm32469i_discovery.c ****   * @param  BufferSize: Amount of data to be read
 817:/home/paulo/Alexandria/STM32Cube_FW_F4_V1.23.0/Drivers/BSP/STM32469I-Discovery/stm32469i_discovery.c ****   * @retval HAL status
 818:/home/paulo/Alexandria/STM32Cube_FW_F4_V1.23.0/Drivers/BSP/STM32469I-Discovery/stm32469i_discovery.c ****   */
 819:/home/paulo/Alexandria/STM32Cube_FW_F4_V1.23.0/Drivers/BSP/STM32469I-Discovery/stm32469i_discovery.c **** HAL_StatusTypeDef EEPROM_IO_ReadData(uint16_t DevAddress, uint16_t MemAddress, uint8_t* pBuffer, ui
 820:/home/paulo/Alexandria/STM32Cube_FW_F4_V1.23.0/Drivers/BSP/STM32469I-Discovery/stm32469i_discovery.c **** {
 1912              		.loc 1 820 1 is_stmt 1 view -0
 1913              		.cfi_startproc
 1914              		@ args = 0, pretend = 0, frame = 0
 1915              		@ frame_needed = 0, uses_anonymous_args = 0
 1916              		.loc 1 820 1 is_stmt 0 view .LVU389
 1917 0000 00B5     		push	{lr}
 1918              	.LCFI62:
 1919              		.cfi_def_cfa_offset 4
 1920              		.cfi_offset 14, -4
 1921 0002 83B0     		sub	sp, sp, #12
 1922              	.LCFI63:
 1923              		.cfi_def_cfa_offset 16
 821:/home/paulo/Alexandria/STM32Cube_FW_F4_V1.23.0/Drivers/BSP/STM32469I-Discovery/stm32469i_discovery.c ****   return (I2C1_ReadMultiple(DevAddress, MemAddress, I2C_MEMADD_SIZE_16BIT, pBuffer, BufferSize));
 1924              		.loc 1 821 3 is_stmt 1 view .LVU390
 1925              		.loc 1 821 11 is_stmt 0 view .LVU391
 1926 0004 9BB2     		uxth	r3, r3
 1927              	.LVL144:
 1928              		.loc 1 821 11 view .LVU392
 1929 0006 0093     		str	r3, [sp]
 1930 0008 1346     		mov	r3, r2
 1931 000a 1022     		movs	r2, #16
 1932              	.LVL145:
 1933              		.loc 1 821 11 view .LVU393
 1934 000c C0B2     		uxtb	r0, r0
 1935              	.LVL146:
 1936              		.loc 1 821 11 view .LVU394
 1937 000e FFF7FEFF 		bl	I2C1_ReadMultiple
 1938              	.LVL147:
 822:/home/paulo/Alexandria/STM32Cube_FW_F4_V1.23.0/Drivers/BSP/STM32469I-Discovery/stm32469i_discovery.c **** }
 1939              		.loc 1 822 1 view .LVU395
 1940 0012 03B0     		add	sp, sp, #12
 1941              	.LCFI64:
 1942              		.cfi_def_cfa_offset 4
 1943              		@ sp needed
 1944 0014 5DF804FB 		ldr	pc, [sp], #4
 1945              		.cfi_endproc
 1946              	.LFE155:
 1948              		.section	.text.EEPROM_IO_IsDeviceReady,"ax",%progbits
 1949              		.align	1
ARM GAS  /tmp/cc7YGL8m.s 			page 54


 1950              		.global	EEPROM_IO_IsDeviceReady
 1951              		.syntax unified
 1952              		.thumb
 1953              		.thumb_func
 1954              		.fpu fpv4-sp-d16
 1956              	EEPROM_IO_IsDeviceReady:
 1957              	.LVL148:
 1958              	.LFB156:
 823:/home/paulo/Alexandria/STM32Cube_FW_F4_V1.23.0/Drivers/BSP/STM32469I-Discovery/stm32469i_discovery.c **** 
 824:/home/paulo/Alexandria/STM32Cube_FW_F4_V1.23.0/Drivers/BSP/STM32469I-Discovery/stm32469i_discovery.c **** /**
 825:/home/paulo/Alexandria/STM32Cube_FW_F4_V1.23.0/Drivers/BSP/STM32469I-Discovery/stm32469i_discovery.c ****   * @brief  Checks if target device is ready for communication.
 826:/home/paulo/Alexandria/STM32Cube_FW_F4_V1.23.0/Drivers/BSP/STM32469I-Discovery/stm32469i_discovery.c ****   * @note   This function is used with Memory devices
 827:/home/paulo/Alexandria/STM32Cube_FW_F4_V1.23.0/Drivers/BSP/STM32469I-Discovery/stm32469i_discovery.c ****   * @param  DevAddress: Target device address
 828:/home/paulo/Alexandria/STM32Cube_FW_F4_V1.23.0/Drivers/BSP/STM32469I-Discovery/stm32469i_discovery.c ****   * @param  Trials: Number of trials
 829:/home/paulo/Alexandria/STM32Cube_FW_F4_V1.23.0/Drivers/BSP/STM32469I-Discovery/stm32469i_discovery.c ****   * @retval HAL status
 830:/home/paulo/Alexandria/STM32Cube_FW_F4_V1.23.0/Drivers/BSP/STM32469I-Discovery/stm32469i_discovery.c ****   */
 831:/home/paulo/Alexandria/STM32Cube_FW_F4_V1.23.0/Drivers/BSP/STM32469I-Discovery/stm32469i_discovery.c **** HAL_StatusTypeDef EEPROM_IO_IsDeviceReady(uint16_t DevAddress, uint32_t Trials)
 832:/home/paulo/Alexandria/STM32Cube_FW_F4_V1.23.0/Drivers/BSP/STM32469I-Discovery/stm32469i_discovery.c **** {
 1959              		.loc 1 832 1 is_stmt 1 view -0
 1960              		.cfi_startproc
 1961              		@ args = 0, pretend = 0, frame = 0
 1962              		@ frame_needed = 0, uses_anonymous_args = 0
 1963              		.loc 1 832 1 is_stmt 0 view .LVU397
 1964 0000 08B5     		push	{r3, lr}
 1965              	.LCFI65:
 1966              		.cfi_def_cfa_offset 8
 1967              		.cfi_offset 3, -8
 1968              		.cfi_offset 14, -4
 833:/home/paulo/Alexandria/STM32Cube_FW_F4_V1.23.0/Drivers/BSP/STM32469I-Discovery/stm32469i_discovery.c ****   return (I2C1_IsDeviceReady(DevAddress, Trials));
 1969              		.loc 1 833 3 is_stmt 1 view .LVU398
 1970              		.loc 1 833 11 is_stmt 0 view .LVU399
 1971 0002 FFF7FEFF 		bl	I2C1_IsDeviceReady
 1972              	.LVL149:
 834:/home/paulo/Alexandria/STM32Cube_FW_F4_V1.23.0/Drivers/BSP/STM32469I-Discovery/stm32469i_discovery.c **** }
 1973              		.loc 1 834 1 view .LVU400
 1974 0006 08BD     		pop	{r3, pc}
 1975              		.cfi_endproc
 1976              	.LFE156:
 1978              		.section	.text.TS_IO_Init,"ax",%progbits
 1979              		.align	1
 1980              		.global	TS_IO_Init
 1981              		.syntax unified
 1982              		.thumb
 1983              		.thumb_func
 1984              		.fpu fpv4-sp-d16
 1986              	TS_IO_Init:
 1987              	.LFB157:
 835:/home/paulo/Alexandria/STM32Cube_FW_F4_V1.23.0/Drivers/BSP/STM32469I-Discovery/stm32469i_discovery.c **** 
 836:/home/paulo/Alexandria/STM32Cube_FW_F4_V1.23.0/Drivers/BSP/STM32469I-Discovery/stm32469i_discovery.c **** /******************************** LINK TS (TouchScreen) ***********************/
 837:/home/paulo/Alexandria/STM32Cube_FW_F4_V1.23.0/Drivers/BSP/STM32469I-Discovery/stm32469i_discovery.c **** 
 838:/home/paulo/Alexandria/STM32Cube_FW_F4_V1.23.0/Drivers/BSP/STM32469I-Discovery/stm32469i_discovery.c **** /**
 839:/home/paulo/Alexandria/STM32Cube_FW_F4_V1.23.0/Drivers/BSP/STM32469I-Discovery/stm32469i_discovery.c ****   * @brief  Initialize I2C communication
 840:/home/paulo/Alexandria/STM32Cube_FW_F4_V1.23.0/Drivers/BSP/STM32469I-Discovery/stm32469i_discovery.c ****   *         channel from MCU to TouchScreen (TS).
 841:/home/paulo/Alexandria/STM32Cube_FW_F4_V1.23.0/Drivers/BSP/STM32469I-Discovery/stm32469i_discovery.c ****   */
 842:/home/paulo/Alexandria/STM32Cube_FW_F4_V1.23.0/Drivers/BSP/STM32469I-Discovery/stm32469i_discovery.c **** void TS_IO_Init(void)
 843:/home/paulo/Alexandria/STM32Cube_FW_F4_V1.23.0/Drivers/BSP/STM32469I-Discovery/stm32469i_discovery.c **** {
 1988              		.loc 1 843 1 is_stmt 1 view -0
ARM GAS  /tmp/cc7YGL8m.s 			page 55


 1989              		.cfi_startproc
 1990              		@ args = 0, pretend = 0, frame = 0
 1991              		@ frame_needed = 0, uses_anonymous_args = 0
 1992 0000 08B5     		push	{r3, lr}
 1993              	.LCFI66:
 1994              		.cfi_def_cfa_offset 8
 1995              		.cfi_offset 3, -8
 1996              		.cfi_offset 14, -4
 844:/home/paulo/Alexandria/STM32Cube_FW_F4_V1.23.0/Drivers/BSP/STM32469I-Discovery/stm32469i_discovery.c ****   I2C1_Init();
 1997              		.loc 1 844 3 view .LVU402
 1998 0002 FFF7FEFF 		bl	I2C1_Init
 1999              	.LVL150:
 845:/home/paulo/Alexandria/STM32Cube_FW_F4_V1.23.0/Drivers/BSP/STM32469I-Discovery/stm32469i_discovery.c **** }
 2000              		.loc 1 845 1 is_stmt 0 view .LVU403
 2001 0006 08BD     		pop	{r3, pc}
 2002              		.cfi_endproc
 2003              	.LFE157:
 2005              		.section	.text.TS_IO_Write,"ax",%progbits
 2006              		.align	1
 2007              		.global	TS_IO_Write
 2008              		.syntax unified
 2009              		.thumb
 2010              		.thumb_func
 2011              		.fpu fpv4-sp-d16
 2013              	TS_IO_Write:
 2014              	.LVL151:
 2015              	.LFB158:
 846:/home/paulo/Alexandria/STM32Cube_FW_F4_V1.23.0/Drivers/BSP/STM32469I-Discovery/stm32469i_discovery.c **** 
 847:/home/paulo/Alexandria/STM32Cube_FW_F4_V1.23.0/Drivers/BSP/STM32469I-Discovery/stm32469i_discovery.c **** /**
 848:/home/paulo/Alexandria/STM32Cube_FW_F4_V1.23.0/Drivers/BSP/STM32469I-Discovery/stm32469i_discovery.c ****   * @brief  Writes single data with I2C communication
 849:/home/paulo/Alexandria/STM32Cube_FW_F4_V1.23.0/Drivers/BSP/STM32469I-Discovery/stm32469i_discovery.c ****   *         channel from MCU to TouchScreen.
 850:/home/paulo/Alexandria/STM32Cube_FW_F4_V1.23.0/Drivers/BSP/STM32469I-Discovery/stm32469i_discovery.c ****   * @param  Addr: I2C address
 851:/home/paulo/Alexandria/STM32Cube_FW_F4_V1.23.0/Drivers/BSP/STM32469I-Discovery/stm32469i_discovery.c ****   * @param  Reg: Register address
 852:/home/paulo/Alexandria/STM32Cube_FW_F4_V1.23.0/Drivers/BSP/STM32469I-Discovery/stm32469i_discovery.c ****   * @param  Value: Data to be written
 853:/home/paulo/Alexandria/STM32Cube_FW_F4_V1.23.0/Drivers/BSP/STM32469I-Discovery/stm32469i_discovery.c ****   */
 854:/home/paulo/Alexandria/STM32Cube_FW_F4_V1.23.0/Drivers/BSP/STM32469I-Discovery/stm32469i_discovery.c **** void TS_IO_Write(uint8_t Addr, uint8_t Reg, uint8_t Value)
 855:/home/paulo/Alexandria/STM32Cube_FW_F4_V1.23.0/Drivers/BSP/STM32469I-Discovery/stm32469i_discovery.c **** {
 2016              		.loc 1 855 1 is_stmt 1 view -0
 2017              		.cfi_startproc
 2018              		@ args = 0, pretend = 0, frame = 0
 2019              		@ frame_needed = 0, uses_anonymous_args = 0
 2020              		.loc 1 855 1 is_stmt 0 view .LVU405
 2021 0000 08B5     		push	{r3, lr}
 2022              	.LCFI67:
 2023              		.cfi_def_cfa_offset 8
 2024              		.cfi_offset 3, -8
 2025              		.cfi_offset 14, -4
 856:/home/paulo/Alexandria/STM32Cube_FW_F4_V1.23.0/Drivers/BSP/STM32469I-Discovery/stm32469i_discovery.c ****   I2C1_Write(Addr, Reg, Value);
 2026              		.loc 1 856 3 is_stmt 1 view .LVU406
 2027 0002 FFF7FEFF 		bl	I2C1_Write
 2028              	.LVL152:
 857:/home/paulo/Alexandria/STM32Cube_FW_F4_V1.23.0/Drivers/BSP/STM32469I-Discovery/stm32469i_discovery.c **** }
 2029              		.loc 1 857 1 is_stmt 0 view .LVU407
 2030 0006 08BD     		pop	{r3, pc}
 2031              		.cfi_endproc
 2032              	.LFE158:
 2034              		.section	.text.TS_IO_Read,"ax",%progbits
ARM GAS  /tmp/cc7YGL8m.s 			page 56


 2035              		.align	1
 2036              		.global	TS_IO_Read
 2037              		.syntax unified
 2038              		.thumb
 2039              		.thumb_func
 2040              		.fpu fpv4-sp-d16
 2042              	TS_IO_Read:
 2043              	.LVL153:
 2044              	.LFB159:
 858:/home/paulo/Alexandria/STM32Cube_FW_F4_V1.23.0/Drivers/BSP/STM32469I-Discovery/stm32469i_discovery.c **** 
 859:/home/paulo/Alexandria/STM32Cube_FW_F4_V1.23.0/Drivers/BSP/STM32469I-Discovery/stm32469i_discovery.c **** /**
 860:/home/paulo/Alexandria/STM32Cube_FW_F4_V1.23.0/Drivers/BSP/STM32469I-Discovery/stm32469i_discovery.c ****   * @brief  Reads single data with I2C communication
 861:/home/paulo/Alexandria/STM32Cube_FW_F4_V1.23.0/Drivers/BSP/STM32469I-Discovery/stm32469i_discovery.c ****   *         channel from TouchScreen.
 862:/home/paulo/Alexandria/STM32Cube_FW_F4_V1.23.0/Drivers/BSP/STM32469I-Discovery/stm32469i_discovery.c ****   * @param  Addr: I2C address
 863:/home/paulo/Alexandria/STM32Cube_FW_F4_V1.23.0/Drivers/BSP/STM32469I-Discovery/stm32469i_discovery.c ****   * @param  Reg: Register address
 864:/home/paulo/Alexandria/STM32Cube_FW_F4_V1.23.0/Drivers/BSP/STM32469I-Discovery/stm32469i_discovery.c ****   * @retval Read data
 865:/home/paulo/Alexandria/STM32Cube_FW_F4_V1.23.0/Drivers/BSP/STM32469I-Discovery/stm32469i_discovery.c ****   */
 866:/home/paulo/Alexandria/STM32Cube_FW_F4_V1.23.0/Drivers/BSP/STM32469I-Discovery/stm32469i_discovery.c **** uint8_t TS_IO_Read(uint8_t Addr, uint8_t Reg)
 867:/home/paulo/Alexandria/STM32Cube_FW_F4_V1.23.0/Drivers/BSP/STM32469I-Discovery/stm32469i_discovery.c **** {
 2045              		.loc 1 867 1 is_stmt 1 view -0
 2046              		.cfi_startproc
 2047              		@ args = 0, pretend = 0, frame = 0
 2048              		@ frame_needed = 0, uses_anonymous_args = 0
 2049              		.loc 1 867 1 is_stmt 0 view .LVU409
 2050 0000 08B5     		push	{r3, lr}
 2051              	.LCFI68:
 2052              		.cfi_def_cfa_offset 8
 2053              		.cfi_offset 3, -8
 2054              		.cfi_offset 14, -4
 868:/home/paulo/Alexandria/STM32Cube_FW_F4_V1.23.0/Drivers/BSP/STM32469I-Discovery/stm32469i_discovery.c ****   return I2C1_Read(Addr, Reg);
 2055              		.loc 1 868 3 is_stmt 1 view .LVU410
 2056              		.loc 1 868 10 is_stmt 0 view .LVU411
 2057 0002 FFF7FEFF 		bl	I2C1_Read
 2058              	.LVL154:
 869:/home/paulo/Alexandria/STM32Cube_FW_F4_V1.23.0/Drivers/BSP/STM32469I-Discovery/stm32469i_discovery.c **** }
 2059              		.loc 1 869 1 view .LVU412
 2060 0006 08BD     		pop	{r3, pc}
 2061              		.cfi_endproc
 2062              	.LFE159:
 2064              		.section	.text.TS_IO_ReadMultiple,"ax",%progbits
 2065              		.align	1
 2066              		.global	TS_IO_ReadMultiple
 2067              		.syntax unified
 2068              		.thumb
 2069              		.thumb_func
 2070              		.fpu fpv4-sp-d16
 2072              	TS_IO_ReadMultiple:
 2073              	.LVL155:
 2074              	.LFB160:
 870:/home/paulo/Alexandria/STM32Cube_FW_F4_V1.23.0/Drivers/BSP/STM32469I-Discovery/stm32469i_discovery.c **** 
 871:/home/paulo/Alexandria/STM32Cube_FW_F4_V1.23.0/Drivers/BSP/STM32469I-Discovery/stm32469i_discovery.c **** /**
 872:/home/paulo/Alexandria/STM32Cube_FW_F4_V1.23.0/Drivers/BSP/STM32469I-Discovery/stm32469i_discovery.c ****   * @brief  Reads multiple data with I2C communication
 873:/home/paulo/Alexandria/STM32Cube_FW_F4_V1.23.0/Drivers/BSP/STM32469I-Discovery/stm32469i_discovery.c ****   *         channel from TouchScreen.
 874:/home/paulo/Alexandria/STM32Cube_FW_F4_V1.23.0/Drivers/BSP/STM32469I-Discovery/stm32469i_discovery.c ****   * @param  Addr: I2C address
 875:/home/paulo/Alexandria/STM32Cube_FW_F4_V1.23.0/Drivers/BSP/STM32469I-Discovery/stm32469i_discovery.c ****   * @param  Reg: Register address
 876:/home/paulo/Alexandria/STM32Cube_FW_F4_V1.23.0/Drivers/BSP/STM32469I-Discovery/stm32469i_discovery.c ****   * @param  Buffer: Pointer to data buffer
 877:/home/paulo/Alexandria/STM32Cube_FW_F4_V1.23.0/Drivers/BSP/STM32469I-Discovery/stm32469i_discovery.c ****   * @param  Length: Length of the data
ARM GAS  /tmp/cc7YGL8m.s 			page 57


 878:/home/paulo/Alexandria/STM32Cube_FW_F4_V1.23.0/Drivers/BSP/STM32469I-Discovery/stm32469i_discovery.c ****   * @retval Number of read data
 879:/home/paulo/Alexandria/STM32Cube_FW_F4_V1.23.0/Drivers/BSP/STM32469I-Discovery/stm32469i_discovery.c ****   */
 880:/home/paulo/Alexandria/STM32Cube_FW_F4_V1.23.0/Drivers/BSP/STM32469I-Discovery/stm32469i_discovery.c **** uint16_t TS_IO_ReadMultiple(uint8_t Addr, uint8_t Reg, uint8_t *Buffer, uint16_t Length)
 881:/home/paulo/Alexandria/STM32Cube_FW_F4_V1.23.0/Drivers/BSP/STM32469I-Discovery/stm32469i_discovery.c **** {
 2075              		.loc 1 881 1 is_stmt 1 view -0
 2076              		.cfi_startproc
 2077              		@ args = 0, pretend = 0, frame = 0
 2078              		@ frame_needed = 0, uses_anonymous_args = 0
 2079              		.loc 1 881 1 is_stmt 0 view .LVU414
 2080 0000 00B5     		push	{lr}
 2081              	.LCFI69:
 2082              		.cfi_def_cfa_offset 4
 2083              		.cfi_offset 14, -4
 2084 0002 83B0     		sub	sp, sp, #12
 2085              	.LCFI70:
 2086              		.cfi_def_cfa_offset 16
 882:/home/paulo/Alexandria/STM32Cube_FW_F4_V1.23.0/Drivers/BSP/STM32469I-Discovery/stm32469i_discovery.c ****  return I2C1_ReadMultiple(Addr, (uint16_t)Reg, I2C_MEMADD_SIZE_8BIT, Buffer, Length);
 2087              		.loc 1 882 2 is_stmt 1 view .LVU415
 2088              		.loc 1 882 9 is_stmt 0 view .LVU416
 2089 0004 0093     		str	r3, [sp]
 2090 0006 1346     		mov	r3, r2
 2091              	.LVL156:
 2092              		.loc 1 882 9 view .LVU417
 2093 0008 0122     		movs	r2, #1
 2094              	.LVL157:
 2095              		.loc 1 882 9 view .LVU418
 2096 000a FFF7FEFF 		bl	I2C1_ReadMultiple
 2097              	.LVL158:
 883:/home/paulo/Alexandria/STM32Cube_FW_F4_V1.23.0/Drivers/BSP/STM32469I-Discovery/stm32469i_discovery.c **** }
 2098              		.loc 1 883 1 view .LVU419
 2099 000e 03B0     		add	sp, sp, #12
 2100              	.LCFI71:
 2101              		.cfi_def_cfa_offset 4
 2102              		@ sp needed
 2103 0010 5DF804FB 		ldr	pc, [sp], #4
 2104              		.cfi_endproc
 2105              	.LFE160:
 2107              		.section	.text.TS_IO_WriteMultiple,"ax",%progbits
 2108              		.align	1
 2109              		.global	TS_IO_WriteMultiple
 2110              		.syntax unified
 2111              		.thumb
 2112              		.thumb_func
 2113              		.fpu fpv4-sp-d16
 2115              	TS_IO_WriteMultiple:
 2116              	.LVL159:
 2117              	.LFB161:
 884:/home/paulo/Alexandria/STM32Cube_FW_F4_V1.23.0/Drivers/BSP/STM32469I-Discovery/stm32469i_discovery.c **** 
 885:/home/paulo/Alexandria/STM32Cube_FW_F4_V1.23.0/Drivers/BSP/STM32469I-Discovery/stm32469i_discovery.c **** /**
 886:/home/paulo/Alexandria/STM32Cube_FW_F4_V1.23.0/Drivers/BSP/STM32469I-Discovery/stm32469i_discovery.c ****   * @brief  Writes multiple data with I2C communication
 887:/home/paulo/Alexandria/STM32Cube_FW_F4_V1.23.0/Drivers/BSP/STM32469I-Discovery/stm32469i_discovery.c ****   *         channel from MCU to TouchScreen.
 888:/home/paulo/Alexandria/STM32Cube_FW_F4_V1.23.0/Drivers/BSP/STM32469I-Discovery/stm32469i_discovery.c ****   * @param  Addr: I2C address
 889:/home/paulo/Alexandria/STM32Cube_FW_F4_V1.23.0/Drivers/BSP/STM32469I-Discovery/stm32469i_discovery.c ****   * @param  Reg: Register address
 890:/home/paulo/Alexandria/STM32Cube_FW_F4_V1.23.0/Drivers/BSP/STM32469I-Discovery/stm32469i_discovery.c ****   * @param  Buffer: Pointer to data buffer
